------- FILE simple.bas.asm LEVEL 1 PASS 3
      1  10000 ????						; MACRO.H
      2  10000 ????
      3  10000 ????						; Based on the 2600 macro.h file.
      4  10000 ????						; Macros irrelevant to the 7800 have been removed, and the sleep macro
      5  10000 ????						; has been adapted to give accurate results on the 7800.
      6  10000 ????
      7  10000 ????						; Version 1.0 2019/12/11 (based on the 2600 Version 1.05, 13/NOVEMBER/2003)
      8  10000 ????
      9  10000 ????						; Available macros...
     10  10000 ????						;   SLEEP n		 - sleep for n cycles
     11  10000 ????						;   SET_POINTER	 - load a 16-bit absolute to a 16-bit variable
     12  10000 ????
     13  10000 ????						;-------------------------------------------------------------------------------
     14  10000 ????						; SLEEP duration
     15  10000 ????						; Original author: Thomas Jentzsch
     16  10000 ????						; Inserts code which takes the specified number of cycles to execute.	This is
     17  10000 ????						; useful for code where precise timing is required.
     18  10000 ????						; ILLEGAL-OPCODE VERSION DOES NOT AFFECT FLAGS OR REGISTERS.
     19  10000 ????						; LEGAL OPCODE VERSION MAY AFFECT FLAGS
     20  10000 ????						; Uses illegal opcode (DASM 2.20.01 onwards).
     21  10000 ????
     22  10000 ????				       MAC	sleep
     23  10000 ????			    .CYCLES    SET	{1}
     24  10000 ????
     25  10000 ????				       IF	.CYCLES < 2
     26  10000 ????				       ECHO	"MACRO ERROR: 'SLEEP': Duration must be > 1"
     27  10000 ????				       ERR
     28  10000 ????				       ENDIF
     29  10000 ????
     30  10000 ????				       IF	.CYCLES & 1
     31  10000 ????				       IFNCONST	NO_ILLEGAL_OPCODES
     32  10000 ????				       nop	$80
     33  10000 ????				       ELSE
     34  10000 ????				       bit	$80
     35  10000 ????				       ENDIF
     36  10000 ????			    .CYCLES    SET	.CYCLES - 3
     37  10000 ????				       ENDIF
     38  10000 ????
     39  10000 ????				       REPEAT	.CYCLES / 2
     40  10000 ????				       nop
     41  10000 ????				       REPEND
     42  10000 ????				       ENDM		;usage: SLEEP n (n>1)
     43  10000 ????
     44  10000 ????
     45  10000 ????						;-------------------------------------------------------------------------------
     46  10000 ????						; FRACSLEEP duration
     47  10000 ????						; Based on Thomas Jentzsch's SLEEP macro, but takes cycles*2 to allow for
     48  10000 ????						; 7800 based 0.5 cycle sleep.
     49  10000 ????
     50  10000 ????				       MAC	fracsleep
     51  10000 ????			    .CYCLES    SET	{1}
     52  10000 ????
     53  10000 ????				       IF	.CYCLES < 4
     54  10000 ????				       ECHO	"MACRO ERROR: 'FRACSLEEP': Duration must be > 4"
     55  10000 ????				       ERR
     56  10000 ????				       ENDIF
     57  10000 ????				       IF	.CYCLES = 5
     58  10000 ????				       ECHO	"MACRO ERROR: 'FRACSLEEP': Duration = 5 is impossible"
     59  10000 ????				       ERR
     60  10000 ????				       ENDIF
     61  10000 ????
     62  10000 ????				       IF	.CYCLES & 1
     63  10000 ????				       IFNCONST	NO_ILLEGAL_OPCODES
     64  10000 ????				       nop	$0	; TIA access is 3.5 cycles
     65  10000 ????				       ELSE
     66  10000 ????				       bit	$0	; TIA access is 3.5 cycles
     67  10000 ????				       ENDIF
     68  10000 ????			    .CYCLES    SET	.CYCLES - 7
     69  10000 ????				       ENDIF
     70  10000 ????
     71  10000 ????				       IF	.CYCLES & 2
     72  10000 ????				       IFNCONST	NO_ILLEGAL_OPCODES
     73  10000 ????				       nop	$80
     74  10000 ????				       ELSE
     75  10000 ????				       bit	$80
     76  10000 ????				       ENDIF
     77  10000 ????			    .CYCLES    SET	.CYCLES - 6
     78  10000 ????				       ENDIF
     79  10000 ????
     80  10000 ????				       REPEAT	.CYCLES / 4
     81  10000 ????				       nop
     82  10000 ????				       REPEND
     83  10000 ????				       ENDM		;usage: FRACSLEEP n (n>1)
     84  10000 ????
     85  10000 ????
     86  10000 ????						;-------------------------------------------------------
     87  10000 ????						; SET_POINTER
     88  10000 ????						; Original author: Manuel Rotschkar
     89  10000 ????						;
     90  10000 ????						; Sets a 2 byte RAM pointer to an absolute address.
     91  10000 ????						;
     92  10000 ????						; Usage: SET_POINTER pointer, address
     93  10000 ????						; Example: SET_POINTER SpritePTR, SpriteData
     94  10000 ????						;
     95  10000 ????						; Note: Alters the accumulator, NZ flags
     96  10000 ????						; IN 1: 2 byte RAM location reserved for pointer
     97  10000 ????						; IN 2: absolute address
     98  10000 ????
     99  10000 ????				       MAC	set_pointer
    100  10000 ????			    .POINTER   SET	{1}
    101  10000 ????			    .ADDRESS   SET	{2}
    102  10000 ????
    103  10000 ????				       LDA	#<.ADDRESS	; Get Lowbyte of Address
    104  10000 ????				       STA	.POINTER	; Store in pointer
    105  10000 ????				       LDA	#>.ADDRESS	; Get Hibyte of Address
    106  10000 ????				       STA	.POINTER+1	; Store in pointer+1
    107  10000 ????
    108  10000 ????				       ENDM
    109  10000 ????
    110  10000 ????						; EOF
    111  10000 ????						; Provided under the CC0 license. See the included LICENSE.txt for details.
    112  10000 ????
    113  10000 ????						; 7800MACRO.H
    114  10000 ????
    115  10000 ????						;-------------------------------------------------------
    116  10000 ????						; BOXCOLLISIONCHECK
    117  10000 ????						; author: Mike Saarna
    118  10000 ????						;
    119  10000 ????						; A general bounding box collision check. compares 2 rectangles of differing size
    120  10000 ????						; and shape for overlap. Carry is set for collision detected, clear for none.
    121  10000 ????						;
    122  10000 ????						; Usage: BOXCOLLISIONCHECK x1var,y1var,w1var,h1var,x2var,y2var,w2var,h2var
    123  10000 ????						;
    124  10000 ????
    125  10000 ????				       MAC	boxcollisioncheck
    126  10000 ????			    .boxx1     SET	{1}
    127  10000 ????			    .boxy1     SET	{2}
    128  10000 ????			    .boxw1     SET	{3}
    129  10000 ????			    .boxh1     SET	{4}
    130  10000 ????			    .boxx2     SET	{5}
    131  10000 ????			    .boxy2     SET	{6}
    132  10000 ????			    .boxw2     SET	{7}
    133  10000 ????			    .boxh2     SET	{8}
    134  10000 ????
    135  10000 ????			    .DoXCollisionCheck
    136  10000 ????				       lda	.boxx1	;3
    137  10000 ????				       cmp	.boxx2	;2
    138  10000 ????				       bcs	.X1isbiggerthanX2	;2/3
    139  10000 ????			    .X2isbiggerthanX1
    140  10000 ????				       adc	#.boxw1	;2
    141  10000 ????				       cmp	.boxx2	;3
    142  10000 ????				       bcs	.DoYCollisionCheck	;3/2
    143  10000 ????				       bcc	.noboxcollision	;3
    144  10000 ????			    .X1isbiggerthanX2
    145  10000 ????				       clc		;2
    146  10000 ????				       sbc	#.boxw2	;2
    147  10000 ????				       cmp	.boxx2	;3
    148  10000 ????				       bcs	.noboxcollision	;3/2
    149  10000 ????			    .DoYCollisionCheck
    150  10000 ????				       lda	.boxy1	;3
    151  10000 ????				       cmp	.boxy2	;3
    152  10000 ????				       bcs	.Y1isbiggerthanY2	;3/2
    153  10000 ????			    .Y2isbiggerthanY1
    154  10000 ????				       adc	#.boxh1	;2
    155  10000 ????				       cmp	.boxy2	;3
    156  10000 ????				       jmp	.checkdone	;6
    157  10000 ????			    .Y1isbiggerthanY2
    158  10000 ????				       clc		;2
    159  10000 ????				       sbc	#.boxh2	;2
    160  10000 ????				       cmp	.boxy2	;3
    161  10000 ????				       bcs	.noboxcollision	;3/2
    162  10000 ????			    .boxcollision
    163  10000 ????				       sec		;2
    164  10000 ????				       .byte	$24	; hardcoded "BIT [clc opcode]", used to skip over the following clc
    165  10000 ????			    .noboxcollision
    166  10000 ????				       clc		;2
    167  10000 ????			    .checkdone
    168  10000 ????
    169  10000 ????				       ENDM
    170  10000 ????
    171  10000 ????						; QBOXCOLLISIONCHECK
    172  10000 ????						; author: unknown
    173  10000 ????						;
    174  10000 ????						; A general bounding box collision check. compares 2 rectangles of differing size
    175  10000 ????						; and shape for overlap. Carry is CLEAR for collision detected, SET for none.
    176  10000 ????						;
    177  10000 ????						; Usage: QBOXCOLLISIONCHECK x1var,y1var,w1var,h1var,x2var,y2var,w2var,h2var
    178  10000 ????						;
    179  10000 ????				       MAC	qboxcollisioncheck
    180  10000 ????			    .boxx1     SET	{1}
    181  10000 ????			    .boxy1     SET	{2}
    182  10000 ????			    .boxw1     SET	{3}
    183  10000 ????			    .boxh1     SET	{4}
    184  10000 ????			    .boxx2     SET	{5}
    185  10000 ????			    .boxy2     SET	{6}
    186  10000 ????			    .boxw2     SET	{7}
    187  10000 ????			    .boxh2     SET	{8}
    188  10000 ????
    189  10000 ????				       lda	.boxx2
    190  10000 ????				       clc
    191  10000 ????				       adc	#.boxw2
    192  10000 ????				       sbc	.boxx1
    193  10000 ????				       cmp	#.boxw1+.boxw2-1
    194  10000 ????				       bcs	.qboxcollisiondone
    195  10000 ????						;if we're here, carry is clear
    196  10000 ????				       lda	.boxy2
    197  10000 ????				       adc	#.boxh2
    198  10000 ????				       sbc	.boxy1
    199  10000 ????				       cmp	#.boxh1+.boxh2-1
    200  10000 ????			    .qboxcollisiondone
    201  10000 ????				       rol		; temp for testing - invert carry...
    202  10000 ????				       eor	#1
    203  10000 ????				       ror
    204  10000 ????				       ENDM
    205  10000 ????
    206  10000 ????
    207  10000 ????				       MAC	median3
    208  10000 ????
    209  10000 ????						; A median filter (for smoothing paddle jitter)
    210  10000 ????						;   this macro takes the current paddle value, compares it to historic
    211  10000 ????						;   values, and replaces the current paddle value with the median.
    212  10000 ????						;
    213  10000 ????						; called as:  MEDIAN3 STORAGE CURRENT
    214  10000 ????						;    where STORAGE points to 3 consecutive bytes of memory. The first 2
    215  10000 ????						;	  must be dedicated to this MEDIAN filter. The last 1 is a temp.
    216  10000 ????						;    where CURRENT is memory holding the new value you wish to compare to
    217  10000 ????						;	  the previous values, and update with the median value.
    218  10000 ????						;
    219  10000 ????						; returns: CURRENT (modified to contain median value)
    220  10000 ????						;
    221  10000 ????						; author: Mike Saarna (aka RevEng)
    222  10000 ????
    223  10000 ????			    .MedianBytes SET	{1}
    224  10000 ????			    .NewValue  SET	{2}
    225  10000 ????
    226  10000 ????				       lda	#0
    227  10000 ????				       ldy	.NewValue
    228  10000 ????				       sty	.MedianBytes+2	; put the new value in the most "recent" slot
    229  10000 ????
    230  10000 ????						; build an index from relative size comparisons between our 3 values.
    231  10000 ????				       cpy	.MedianBytes
    232  10000 ????				       rol
    233  10000 ????				       cpy	.MedianBytes+1
    234  10000 ????				       rol
    235  10000 ????				       ldy	.MedianBytes
    236  10000 ????				       cpy	.MedianBytes+1
    237  10000 ????				       rol
    238  10000 ????				       tay
    239  10000 ????
    240  10000 ????				       ldx	MedianOrderLUT,y	; convert the size-comparison index to an index to the median value
    241  10000 ????				       lda	.MedianBytes,x
    242  10000 ????				       sta	.NewValue	; we replace the new value memory with the median value
    243  10000 ????
    244  10000 ????						; then shift values from "newer" bytes to "older" bytes, leaving the
    245  10000 ????						; newest byte (.MedianBytes+2) empty for next time.
    246  10000 ????				       lda	.MedianBytes+1
    247  10000 ????				       sta	.MedianBytes
    248  10000 ????				       lda	.MedianBytes+2
    249  10000 ????				       sta	.MedianBytes+1
    250  10000 ????				       ifnconst	MedianOrderLUT
    251  10000 ????				       jmp	MedianOrderLUTend
    252  10000 ????			    MedianOrderLUT		; converts our "comparison index" to an index to the median value
    253  10000 ????				       .byte	0	; 0  B2 < B0 < B1
    254  10000 ????				       .byte	1	; 1  B2 < B1 < B0
    255  10000 ????				       .byte	2	; 2   impossible
    256  10000 ????				       .byte	2	; 3  B1 < B2 < B0
    257  10000 ????				       .byte	2	; 4  B0 < B2 < B1
    258  10000 ????				       .byte	2	; 5   impossible
    259  10000 ????				       .byte	1	; 6  B0 < B1 < B2
    260  10000 ????				       .byte	0	; 7  B1 < B0 < B2
    261  10000 ????			    MedianOrderLUTend
    262  10000 ????				       endif
    263  10000 ????				       ENDM
    264  10000 ????
    265  10000 ????				       MAC	plotsprite
    266  10000 ????
    267  10000 ????						; A macro version of the plotsprite command.
    268  10000 ????						; This trades off rom space for speed.
    269  10000 ????						; It also doesn't check if the visible screen is displayed or not.
    270  10000 ????						; It has no training wheels. It is all rusty sharp edges.
    271  10000 ????
    272  10000 ????			    .GFXLabel  SET	{1}	; constant
    273  10000 ????			    .Palette   SET	{2}	; constant/variable MACARG2CONST
    274  10000 ????			    .SpriteX   SET	{3}	; constant/variable MACARG3CONST
    275  10000 ????			    .SpriteY   SET	{4}	; constant/variable MACARG4CONST
    276  10000 ????			    .ByteOffset SET	{5}	; constant/variable MACARG5CONST
    277  10000 ????
    278  10000 ????				       if	MACARG4CONST = 0
    279  10000 ????				       lda	.SpriteY
    280  10000 ????				       else
    281  10000 ????				       lda	#.SpriteY
    282  10000 ????				       endif
    283  10000 ????
    284  10000 ????				       lsr
    285  10000 ????				       lsr
    286  10000 ????				       asr	#%11111110	; ensure carry is clear
    287  10000 ????				       if	WZONEHEIGHT = 16
    288  10000 ????				       asr	#%11111110	; ensure carry is clear
    289  10000 ????				       endif
    290  10000 ????
    291  10000 ????				       tax
    292  10000 ????
    293  10000 ????				       cpx	#WZONECOUNT
    294  10000 ????				       bcs	.PLOTSPRITEnext
    295  10000 ????						; carry is clear
    296  10000 ????
    297  10000 ????				       ifconst	VSCROLL
    298  10000 ????				       ldy	Xx3,x
    299  10000 ????				       lda	DLLMEM+11,y
    300  10000 ????				       else		; !VSCROLL
    301  10000 ????				       lda	DLPOINTL,x	; Get pointer to DL that this sprite starts in
    302  10000 ????				       endif
    303  10000 ????				       ifconst	DOUBLEBUFFER
    304  10000 ????				       adc	doublebufferdloffset
    305  10000 ????				       endif		; DOUBLEBUFFER
    306  10000 ????				       sta	dlpnt
    307  10000 ????				       ifconst	VSCROLL
    308  10000 ????				       lda	DLLMEM+10,y
    309  10000 ????				       else		; !VSCROLL
    310  10000 ????				       lda	DLPOINTH,x
    311  10000 ????				       endif		; !VSCROLL
    312  10000 ????				       ifconst	DOUBLEBUFFER
    313  10000 ????				       adc	#0
    314  10000 ????				       endif		; DOUBLEBUFFER
    315  10000 ????				       sta	dlpnt+1
    316  10000 ????
    317  10000 ????				       ldy	dlend,x	; find the next new object position in this zone
    318  10000 ????
    319  10000 ????				       ifconst	.ByteOffset
    320  10000 ????
    321  10000 ????				       if	MACARG5CONST = 1
    322  10000 ????				       lda	#.ByteOffset
    323  10000 ????				       else
    324  10000 ????				       lda	.ByteOffset
    325  10000 ????				       endif
    326  10000 ????				       ifconst	DOUBLEBUFFER
    327  10000 ????				       if	{1}_width = 1
    328  10000 ????				       clc
    329  10000 ????				       endif
    330  10000 ????				       endif
    331  10000 ????				       if	{1}_width = 2
    332  10000 ????				       asl
    333  10000 ????				       endif
    334  10000 ????				       if	{1}_width = 3
    335  10000 ????				       asl
    336  10000 ????				       if	MACARG5CONST = 1
    337  10000 ????				       adc	#.ByteOffset
    338  10000 ????				       else
    339  10000 ????				       adc	.ByteOffset
    340  10000 ????				       endif
    341  10000 ????				       endif
    342  10000 ????				       if	{1}_width = 4
    343  10000 ????				       asl
    344  10000 ????				       asl
    345  10000 ????				       endif
    346  10000 ????				       if	{1}_width = 5
    347  10000 ????				       asl
    348  10000 ????				       asl
    349  10000 ????				       if	MACARG5CONST = 1
    350  10000 ????				       adc	#.ByteOffset
    351  10000 ????				       else
    352  10000 ????				       adc	.ByteOffset
    353  10000 ????				       endif
    354  10000 ????				       endif
    355  10000 ????				       if	{1}_width = 6
    356  10000 ????				       asl
    357  10000 ????				       if	MACARG5CONST = 1
    358  10000 ????				       adc	#.ByteOffset
    359  10000 ????				       else
    360  10000 ????				       adc	.ByteOffset
    361  10000 ????				       endif
    362  10000 ????				       asl
    363  10000 ????				       endif
    364  10000 ????				       if	{1}_width = 7
    365  10000 ????				       asl
    366  10000 ????				       if	MACARG5CONST = 1
    367  10000 ????				       adc	#.ByteOffset
    368  10000 ????				       else
    369  10000 ????				       adc	.ByteOffset
    370  10000 ????				       endif
    371  10000 ????				       asl
    372  10000 ????				       if	MACARG5CONST = 1
    373  10000 ????				       adc	#.ByteOffset
    374  10000 ????				       else
    375  10000 ????				       adc	.ByteOffset
    376  10000 ????				       endif
    377  10000 ????				       endif
    378  10000 ????				       if	{1}_width = 8
    379  10000 ????				       asl
    380  10000 ????				       asl
    381  10000 ????				       asl
    382  10000 ????				       endif
    383  10000 ????				       if	{1}_width = 9
    384  10000 ????				       asl
    385  10000 ????				       asl
    386  10000 ????				       asl
    387  10000 ????				       if	MACARG5CONST = 1
    388  10000 ????				       adc	#.ByteOffset
    389  10000 ????				       else
    390  10000 ????				       adc	.ByteOffset
    391  10000 ????				       endif
    392  10000 ????				       endif
    393  10000 ????				       if	{1}_width = 10
    394  10000 ????				       asl
    395  10000 ????				       asl
    396  10000 ????				       if	MACARG5CONST = 1
    397  10000 ????				       adc	#.ByteOffset
    398  10000 ????				       else
    399  10000 ????				       adc	.ByteOffset
    400  10000 ????				       endif
    401  10000 ????				       asl
    402  10000 ????				       endif
    403  10000 ????				       if	{1}_width = 11
    404  10000 ????				       asl
    405  10000 ????				       asl
    406  10000 ????				       if	MACARG5CONST = 1
    407  10000 ????				       adc	#.ByteOffset
    408  10000 ????				       else
    409  10000 ????				       adc	.ByteOffset
    410  10000 ????				       endif
    411  10000 ????				       asl
    412  10000 ????				       if	MACARG5CONST = 1
    413  10000 ????				       adc	#.ByteOffset
    414  10000 ????				       else
    415  10000 ????				       adc	.ByteOffset
    416  10000 ????				       endif
    417  10000 ????				       endif
    418  10000 ????				       if	{1}_width = 12
    419  10000 ????				       asl
    420  10000 ????				       if	MACARG5CONST = 1
    421  10000 ????				       adc	#.ByteOffset
    422  10000 ????				       else
    423  10000 ????				       adc	.ByteOffset
    424  10000 ????				       endif
    425  10000 ????				       asl
    426  10000 ????				       asl
    427  10000 ????				       endif
    428  10000 ????				       if	{1}_width = 13
    429  10000 ????				       asl
    430  10000 ????				       if	MACARG5CONST = 1
    431  10000 ????				       adc	#.ByteOffset
    432  10000 ????				       else
    433  10000 ????				       adc	.ByteOffset
    434  10000 ????				       endif
    435  10000 ????				       asl
    436  10000 ????				       asl
    437  10000 ????				       if	MACARG5CONST = 1
    438  10000 ????				       adc	#.ByteOffset
    439  10000 ????				       else
    440  10000 ????				       adc	.ByteOffset
    441  10000 ????				       endif
    442  10000 ????
    443  10000 ????				       endif
    444  10000 ????				       if	{1}_width = 14
    445  10000 ????				       asl
    446  10000 ????				       if	MACARG5CONST = 1
    447  10000 ????				       adc	#.ByteOffset
    448  10000 ????				       else
    449  10000 ????				       adc	.ByteOffset
    450  10000 ????				       endif
    451  10000 ????				       asl
    452  10000 ????				       if	MACARG5CONST = 1
    453  10000 ????				       adc	#.ByteOffset
    454  10000 ????				       else
    455  10000 ????				       adc	.ByteOffset
    456  10000 ????				       endif
    457  10000 ????				       asl
    458  10000 ????				       endif
    459  10000 ????				       if	{1}_width = 15
    460  10000 ????				       asl
    461  10000 ????				       if	MACARG5CONST = 1
    462  10000 ????				       adc	#.ByteOffset
    463  10000 ????				       else
    464  10000 ????				       adc	.ByteOffset
    465  10000 ????				       endif
    466  10000 ????				       asl
    467  10000 ????				       if	MACARG5CONST = 1
    468  10000 ????				       adc	#.ByteOffset
    469  10000 ????				       else
    470  10000 ????				       adc	.ByteOffset
    471  10000 ????				       endif
    472  10000 ????				       asl
    473  10000 ????				       if	MACARG5CONST = 1
    474  10000 ????				       adc	#.ByteOffset
    475  10000 ????				       else
    476  10000 ????				       adc	.ByteOffset
    477  10000 ????				       endif
    478  10000 ????				       endif
    479  10000 ????				       if	{1}_width = 16
    480  10000 ????				       asl
    481  10000 ????				       asl
    482  10000 ????				       asl
    483  10000 ????				       asl
    484  10000 ????				       endif
    485  10000 ????				       adc	#<.GFXLabel	; carry is clear via previous asl or asr
    486  10000 ????				       else
    487  10000 ????				       lda	#<.GFXLabel	; carry is clear via previous asl or asr
    488  10000 ????				       endif		; .ByteOffset
    489  10000 ????				       sta	(dlpnt),y	; #1 - low byte object address
    490  10000 ????
    491  10000 ????				       iny
    492  10000 ????
    493  10000 ????				       lda	#({1}_mode | %01000000)
    494  10000 ????				       sta	(dlpnt),y	; #2 - graphics mode , indirect
    495  10000 ????
    496  10000 ????				       iny
    497  10000 ????
    498  10000 ????				       if	MACARG4CONST = 0
    499  10000 ????				       lda	.SpriteY
    500  10000 ????				       else
    501  10000 ????				       lda	#.SpriteY
    502  10000 ????				       endif
    503  10000 ????				       and	#(WZONEHEIGHT - 1)
    504  10000 ????				       cmp	#1	; clear carry if our sprite is just in this zone
    505  10000 ????				       ora	#>.GFXLabel
    506  10000 ????				       sta	(dlpnt),y	; #3 - hi byte object address
    507  10000 ????
    508  10000 ????				       iny
    509  10000 ????
    510  10000 ????				       if	MACARG2CONST = 1
    511  10000 ????				       lda	#({1}_width_twoscompliment | (.Palette * 32))
    512  10000 ????				       else
    513  10000 ????				       lda	#({1}_width_twoscompliment)
    514  10000 ????				       ora	.Palette
    515  10000 ????				       endif
    516  10000 ????				       sta	(dlpnt),y	; #4 - palette|width
    517  10000 ????
    518  10000 ????				       iny
    519  10000 ????
    520  10000 ????				       if	MACARG3CONST = 1
    521  10000 ????				       lda	#.SpriteX
    522  10000 ????				       else
    523  10000 ????				       lda	.SpriteX
    524  10000 ????				       endif
    525  10000 ????				       sta	(dlpnt),y	; #5 - x object position
    526  10000 ????
    527  10000 ????				       iny
    528  10000 ????				       sty	dlend,x
    529  10000 ????
    530  10000 ????				       ifconst	ALWAYSTERMINATE
    531  10000 ????				       iny
    532  10000 ????				       lda	#0
    533  10000 ????				       sta	(dlpnt),y
    534  10000 ????				       endif
    535  10000 ????
    536  10000 ????				       bcc	.PLOTSPRITEend
    537  10000 ????
    538  10000 ????			    .PLOTSPRITEnext
    539  10000 ????				       inx		; next zone
    540  10000 ????
    541  10000 ????				       cpx	#WZONECOUNT
    542  10000 ????				       bcs	.PLOTSPRITEend
    543  10000 ????						; carry is clear
    544  10000 ????
    545  10000 ????				       ifconst	VSCROLL
    546  10000 ????				       ldy	Xx3,x
    547  10000 ????				       lda	DLLMEM+11,y
    548  10000 ????				       else		; !VSCROLL
    549  10000 ????				       lda	DLPOINTL,x	;Get pointer to DL that this sprite starts in
    550  10000 ????				       endif		; !VSCROLL
    551  10000 ????				       ifconst	DOUBLEBUFFER
    552  10000 ????				       adc	doublebufferdloffset
    553  10000 ????				       endif		; DOUBLEBUFFER
    554  10000 ????				       sta	dlpnt
    555  10000 ????				       ifconst	VSCROLL
    556  10000 ????				       lda	DLLMEM+10,y
    557  10000 ????				       else		; !VSCROLL
    558  10000 ????				       lda	DLPOINTH,x
    559  10000 ????				       endif		; !VSCROLL
    560  10000 ????				       ifconst	DOUBLEBUFFER
    561  10000 ????				       adc	#0
    562  10000 ????				       endif		; DOUBLEBUFFER
    563  10000 ????				       sta	dlpnt+1
    564  10000 ????
    565  10000 ????				       ldy	dlend,x	; find the next new object position in this zone
    566  10000 ????
    567  10000 ????				       ifconst	.ByteOffset
    568  10000 ????
    569  10000 ????				       if	MACARG5CONST = 1
    570  10000 ????				       lda	#.ByteOffset
    571  10000 ????				       else
    572  10000 ????				       lda	.ByteOffset
    573  10000 ????				       endif
    574  10000 ????				       if	{1}_width = 1
    575  10000 ????				       clc
    576  10000 ????				       endif
    577  10000 ????				       if	{1}_width = 2
    578  10000 ????				       asl		; carry clear
    579  10000 ????				       endif
    580  10000 ????				       if	{1}_width = 3
    581  10000 ????				       asl		; carry clear
    582  10000 ????				       if	MACARG5CONST = 1
    583  10000 ????				       adc	#.ByteOffset
    584  10000 ????				       else
    585  10000 ????				       adc	.ByteOffset
    586  10000 ????				       endif
    587  10000 ????				       endif
    588  10000 ????				       if	{1}_width = 4
    589  10000 ????				       asl		; carry clear
    590  10000 ????				       asl
    591  10000 ????				       endif
    592  10000 ????				       if	{1}_width = 5
    593  10000 ????				       asl		; carry clear
    594  10000 ????				       asl
    595  10000 ????				       if	MACARG5CONST = 1
    596  10000 ????				       adc	#.ByteOffset
    597  10000 ????				       else
    598  10000 ????				       adc	.ByteOffset
    599  10000 ????				       endif
    600  10000 ????				       endif
    601  10000 ????				       if	{1}_width = 6
    602  10000 ????				       asl		; carry clear
    603  10000 ????				       if	MACARG5CONST = 1
    604  10000 ????				       adc	#.ByteOffset
    605  10000 ????				       else
    606  10000 ????				       adc	.ByteOffset
    607  10000 ????				       endif
    608  10000 ????				       asl
    609  10000 ????				       endif
    610  10000 ????				       if	{1}_width = 7
    611  10000 ????				       asl		; carry clear
    612  10000 ????				       if	MACARG5CONST = 1
    613  10000 ????				       adc	#.ByteOffset
    614  10000 ????				       else
    615  10000 ????				       adc	.ByteOffset
    616  10000 ????				       endif
    617  10000 ????				       asl
    618  10000 ????				       endif
    619  10000 ????				       if	{1}_width = 8
    620  10000 ????				       asl		; carry clear
    621  10000 ????				       asl
    622  10000 ????				       asl
    623  10000 ????				       endif
    624  10000 ????				       if	{1}_width = 9
    625  10000 ????				       asl		; carry clear
    626  10000 ????				       asl
    627  10000 ????				       asl
    628  10000 ????				       if	MACARG5CONST = 1
    629  10000 ????				       adc	#.ByteOffset
    630  10000 ????				       else
    631  10000 ????				       adc	.ByteOffset
    632  10000 ????				       endif
    633  10000 ????				       endif
    634  10000 ????				       if	{1}_width = 10
    635  10000 ????				       asl		; carry clear
    636  10000 ????				       asl
    637  10000 ????				       if	MACARG5CONST = 1
    638  10000 ????				       adc	#.ByteOffset
    639  10000 ????				       else
    640  10000 ????				       adc	.ByteOffset
    641  10000 ????				       endif
    642  10000 ????				       asl
    643  10000 ????				       endif
    644  10000 ????				       if	{1}_width = 11
    645  10000 ????				       asl		; carry clear
    646  10000 ????				       asl
    647  10000 ????				       if	MACARG5CONST = 1
    648  10000 ????				       adc	#.ByteOffset
    649  10000 ????				       else
    650  10000 ????				       adc	.ByteOffset
    651  10000 ????				       endif
    652  10000 ????				       asl
    653  10000 ????				       if	MACARG5CONST = 1
    654  10000 ????				       adc	#.ByteOffset
    655  10000 ????				       else
    656  10000 ????				       adc	.ByteOffset
    657  10000 ????				       endif
    658  10000 ????				       endif
    659  10000 ????				       if	{1}_width = 12
    660  10000 ????				       asl		; carry clear
    661  10000 ????				       if	MACARG5CONST = 1
    662  10000 ????				       adc	#.ByteOffset
    663  10000 ????				       else
    664  10000 ????				       adc	.ByteOffset
    665  10000 ????				       endif
    666  10000 ????				       asl
    667  10000 ????				       asl
    668  10000 ????				       endif
    669  10000 ????				       if	{1}_width = 13
    670  10000 ????				       asl		; carry clear
    671  10000 ????				       if	MACARG5CONST = 1
    672  10000 ????				       adc	#.ByteOffset
    673  10000 ????				       else
    674  10000 ????				       adc	.ByteOffset
    675  10000 ????				       endif
    676  10000 ????				       asl
    677  10000 ????				       asl
    678  10000 ????				       if	MACARG5CONST = 1
    679  10000 ????				       adc	#.ByteOffset
    680  10000 ????				       else
    681  10000 ????				       adc	.ByteOffset
    682  10000 ????				       endif
    683  10000 ????				       endif
    684  10000 ????				       if	{1}_width = 14
    685  10000 ????				       asl		; carry clear
    686  10000 ????				       if	MACARG5CONST = 1
    687  10000 ????				       adc	#.ByteOffset
    688  10000 ????				       else
    689  10000 ????				       adc	.ByteOffset
    690  10000 ????				       endif
    691  10000 ????				       asl
    692  10000 ????				       if	MACARG5CONST = 1
    693  10000 ????				       adc	#.ByteOffset
    694  10000 ????				       else
    695  10000 ????				       adc	.ByteOffset
    696  10000 ????				       endif
    697  10000 ????				       asl
    698  10000 ????				       endif
    699  10000 ????				       if	{1}_width = 15
    700  10000 ????				       asl
    701  10000 ????				       if	MACARG5CONST = 1
    702  10000 ????				       adc	#.ByteOffset
    703  10000 ????				       else
    704  10000 ????				       adc	.ByteOffset
    705  10000 ????				       endif
    706  10000 ????				       asl
    707  10000 ????				       if	MACARG5CONST = 1
    708  10000 ????				       adc	#.ByteOffset
    709  10000 ????				       else
    710  10000 ????				       adc	.ByteOffset
    711  10000 ????				       endif
    712  10000 ????				       asl
    713  10000 ????				       if	MACARG5CONST = 1
    714  10000 ????				       adc	#.ByteOffset
    715  10000 ????				       else
    716  10000 ????				       adc	.ByteOffset
    717  10000 ????				       endif
    718  10000 ????				       endif
    719  10000 ????				       if	{1}_width = 16
    720  10000 ????				       asl
    721  10000 ????				       asl
    722  10000 ????				       asl
    723  10000 ????				       asl
    724  10000 ????				       endif
    725  10000 ????				       adc	#<.GFXLabel
    726  10000 ????				       else
    727  10000 ????				       lda	#<.GFXLabel
    728  10000 ????				       endif		; .ByteOffset
    729  10000 ????
    730  10000 ????				       sta	(dlpnt),y	; #1 - low byte object address
    731  10000 ????
    732  10000 ????				       iny
    733  10000 ????
    734  10000 ????				       lda	#({1}_mode | %01000000)
    735  10000 ????				       sta	(dlpnt),y	; #2 - graphics mode , indirect
    736  10000 ????
    737  10000 ????				       iny
    738  10000 ????
    739  10000 ????				       if	MACARG4CONST = 0
    740  10000 ????				       lda	.SpriteY
    741  10000 ????				       else
    742  10000 ????				       lda	#.SpriteY
    743  10000 ????				       endif
    744  10000 ????				       and	#(WZONEHEIGHT - 1)
    745  10000 ????				       ora	#>(.GFXLabel - (WZONEHEIGHT * 256))	; start in the dma hole
    746  10000 ????				       sta	(dlpnt),y	; #3 - hi byte object address
    747  10000 ????
    748  10000 ????				       iny
    749  10000 ????
    750  10000 ????				       if	MACARG2CONST = 1
    751  10000 ????				       lda	#({1}_width_twoscompliment | (.Palette * 32))
    752  10000 ????				       else
    753  10000 ????				       lda	#({1}_width_twoscompliment)
    754  10000 ????				       ora	.Palette
    755  10000 ????				       endif
    756  10000 ????				       sta	(dlpnt),y	; #4 - palette|width
    757  10000 ????
    758  10000 ????				       iny
    759  10000 ????
    760  10000 ????				       if	MACARG3CONST = 1
    761  10000 ????				       lda	#.SpriteX
    762  10000 ????				       else
    763  10000 ????				       lda	.SpriteX
    764  10000 ????				       endif
    765  10000 ????				       sta	(dlpnt),y	; #5 - x object position
    766  10000 ????
    767  10000 ????				       iny
    768  10000 ????				       sty	dlend,x
    769  10000 ????
    770  10000 ????				       ifconst	ALWAYSTERMINATE
    771  10000 ????				       iny
    772  10000 ????				       lda	#0
    773  10000 ????				       sta	(dlpnt),y
    774  10000 ????				       endif
    775  10000 ????
    776  10000 ????			    .PLOTSPRITEend
    777  10000 ????				       ENDM
    778  10000 ????
    779  10000 ????				       MAC	plotsprite4
    780  10000 ????
    781  10000 ????						; A macro version of plotsprite. (with 4 byte objects)
    782  10000 ????						; This trades off rom space for speed.
    783  10000 ????						; It also doesn't check if the visible screen is displayed or not.
    784  10000 ????						; It has no training wheels. It is all rusty sharp edges.
    785  10000 ????
    786  10000 ????			    .GFXLabel  SET	{1}
    787  10000 ????			    .Palette   SET	{2}	; constant
    788  10000 ????			    .SpriteX   SET	{3}	; variable
    789  10000 ????			    .SpriteY   SET	{4}	; variable
    790  10000 ????			    .ByteOffset SET	{5}	; variable
    791  10000 ????
    792  10000 ????				       if	MACARG4CONST = 0
    793  10000 ????				       lda	.SpriteY
    794  10000 ????				       else
    795  10000 ????				       lda	#.SpriteY
    796  10000 ????				       endif
    797  10000 ????				       lsr
    798  10000 ????				       lsr
    799  10000 ????				       asr	#%11111110	; ensure carry is clear
    800  10000 ????				       if	WZONEHEIGHT = 16
    801  10000 ????				       asr	#%11111110	; ensure carry is clear
    802  10000 ????				       endif
    803  10000 ????
    804  10000 ????				       tax
    805  10000 ????
    806  10000 ????				       cpx	#WZONECOUNT
    807  10000 ????				       bcs	.PLOTSPRITEnext
    808  10000 ????						; carry is clear
    809  10000 ????				       ifconst	VSCROLL
    810  10000 ????				       ldy	Xx3,x
    811  10000 ????				       lda	DLLMEM+11,y
    812  10000 ????				       else		; !VSCROLL
    813  10000 ????				       lda	DLPOINTL,x	;Get pointer to DL that this sprite starts in
    814  10000 ????				       endif		; !VSCROLL
    815  10000 ????				       ifconst	DOUBLEBUFFER
    816  10000 ????				       adc	doublebufferdloffset
    817  10000 ????				       endif		; DOUBLEBUFFER
    818  10000 ????				       sta	dlpnt
    819  10000 ????				       ifconst	VSCROLL
    820  10000 ????				       lda	DLLMEM+10,y
    821  10000 ????				       else		; !VSCROLL
    822  10000 ????				       lda	DLPOINTH,x
    823  10000 ????				       endif		; !VSCROLL
    824  10000 ????				       ifconst	DOUBLEBUFFER
    825  10000 ????				       adc	#0
    826  10000 ????				       endif		; DOUBLEBUFFER
    827  10000 ????				       sta	dlpnt+1
    828  10000 ????
    829  10000 ????				       ldy	dlend,x	; find the next new object position in this zone
    830  10000 ????
    831  10000 ????				       ifconst	.ByteOffset
    832  10000 ????
    833  10000 ????				       if	MACARG5CONST = 1
    834  10000 ????				       lda	#.ByteOffset
    835  10000 ????				       else
    836  10000 ????				       lda	.ByteOffset
    837  10000 ????				       endif
    838  10000 ????				       ifconst	DOUBLEBUFFER
    839  10000 ????				       if	{1}_width = 1
    840  10000 ????				       clc
    841  10000 ????				       endif
    842  10000 ????				       endif
    843  10000 ????				       if	{1}_width = 2
    844  10000 ????				       asl
    845  10000 ????				       endif
    846  10000 ????				       if	{1}_width = 3
    847  10000 ????				       asl
    848  10000 ????				       if	MACARG5CONST = 1
    849  10000 ????				       adc	#.ByteOffset
    850  10000 ????				       else
    851  10000 ????				       adc	.ByteOffset
    852  10000 ????				       endif
    853  10000 ????				       endif
    854  10000 ????				       if	{1}_width = 4
    855  10000 ????				       asl
    856  10000 ????				       asl
    857  10000 ????				       endif
    858  10000 ????				       if	{1}_width = 5
    859  10000 ????				       asl
    860  10000 ????				       asl
    861  10000 ????				       if	MACARG5CONST = 1
    862  10000 ????				       adc	#.ByteOffset
    863  10000 ????				       else
    864  10000 ????				       adc	.ByteOffset
    865  10000 ????				       endif
    866  10000 ????				       endif
    867  10000 ????				       if	{1}_width = 6
    868  10000 ????				       asl
    869  10000 ????				       if	MACARG5CONST = 1
    870  10000 ????				       adc	#.ByteOffset
    871  10000 ????				       else
    872  10000 ????				       adc	.ByteOffset
    873  10000 ????				       endif
    874  10000 ????
    875  10000 ????				       asl
    876  10000 ????				       endif
    877  10000 ????				       if	{1}_width = 7
    878  10000 ????				       asl
    879  10000 ????				       if	MACARG5CONST = 1
    880  10000 ????				       adc	#.ByteOffset
    881  10000 ????				       else
    882  10000 ????				       adc	.ByteOffset
    883  10000 ????				       endif
    884  10000 ????				       asl
    885  10000 ????				       if	MACARG5CONST = 1
    886  10000 ????				       adc	#.ByteOffset
    887  10000 ????				       else
    888  10000 ????				       adc	.ByteOffset
    889  10000 ????				       endif
    890  10000 ????				       endif
    891  10000 ????				       if	{1}_width = 8
    892  10000 ????				       asl
    893  10000 ????				       asl
    894  10000 ????				       asl
    895  10000 ????				       endif
    896  10000 ????				       if	{1}_width = 9
    897  10000 ????				       asl
    898  10000 ????				       asl
    899  10000 ????				       asl
    900  10000 ????				       if	MACARG5CONST = 1
    901  10000 ????				       adc	#.ByteOffset
    902  10000 ????				       else
    903  10000 ????				       adc	.ByteOffset
    904  10000 ????				       endif
    905  10000 ????				       endif
    906  10000 ????				       if	{1}_width = 10
    907  10000 ????				       asl
    908  10000 ????				       asl
    909  10000 ????				       if	MACARG5CONST = 1
    910  10000 ????				       adc	#.ByteOffset
    911  10000 ????				       else
    912  10000 ????				       adc	.ByteOffset
    913  10000 ????				       endif
    914  10000 ????				       asl
    915  10000 ????				       endif
    916  10000 ????				       if	{1}_width = 11
    917  10000 ????				       asl
    918  10000 ????				       asl
    919  10000 ????				       if	MACARG5CONST = 1
    920  10000 ????				       adc	#.ByteOffset
    921  10000 ????				       else
    922  10000 ????				       adc	.ByteOffset
    923  10000 ????				       endif
    924  10000 ????				       asl
    925  10000 ????				       if	MACARG5CONST = 1
    926  10000 ????				       adc	#.ByteOffset
    927  10000 ????				       else
    928  10000 ????				       adc	.ByteOffset
    929  10000 ????				       endif
    930  10000 ????				       endif
    931  10000 ????				       if	{1}_width = 12
    932  10000 ????				       asl
    933  10000 ????				       if	MACARG5CONST = 1
    934  10000 ????				       adc	#.ByteOffset
    935  10000 ????				       else
    936  10000 ????				       adc	.ByteOffset
    937  10000 ????				       endif
    938  10000 ????				       asl
    939  10000 ????				       asl
    940  10000 ????				       endif
    941  10000 ????				       if	{1}_width = 13
    942  10000 ????				       asl
    943  10000 ????				       if	MACARG5CONST = 1
    944  10000 ????				       adc	#.ByteOffset
    945  10000 ????				       else
    946  10000 ????				       adc	.ByteOffset
    947  10000 ????				       endif
    948  10000 ????				       asl
    949  10000 ????				       asl
    950  10000 ????				       if	MACARG5CONST = 1
    951  10000 ????				       adc	#.ByteOffset
    952  10000 ????				       else
    953  10000 ????				       adc	.ByteOffset
    954  10000 ????				       endif
    955  10000 ????				       endif
    956  10000 ????				       if	{1}_width = 14
    957  10000 ????				       asl
    958  10000 ????				       if	MACARG5CONST = 1
    959  10000 ????				       adc	#.ByteOffset
    960  10000 ????				       else
    961  10000 ????				       adc	.ByteOffset
    962  10000 ????				       endif
    963  10000 ????				       asl
    964  10000 ????				       if	MACARG5CONST = 1
    965  10000 ????				       adc	#.ByteOffset
    966  10000 ????				       else
    967  10000 ????				       adc	.ByteOffset
    968  10000 ????				       endif
    969  10000 ????				       asl
    970  10000 ????				       endif
    971  10000 ????				       if	{1}_width = 15
    972  10000 ????				       asl
    973  10000 ????				       if	MACARG5CONST = 1
    974  10000 ????				       adc	#.ByteOffset
    975  10000 ????				       else
    976  10000 ????				       adc	.ByteOffset
    977  10000 ????				       endif
    978  10000 ????				       asl
    979  10000 ????				       if	MACARG5CONST = 1
    980  10000 ????				       adc	#.ByteOffset
    981  10000 ????				       else
    982  10000 ????				       adc	.ByteOffset
    983  10000 ????				       endif
    984  10000 ????				       asl
    985  10000 ????				       if	MACARG5CONST = 1
    986  10000 ????				       adc	#.ByteOffset
    987  10000 ????				       else
    988  10000 ????				       adc	.ByteOffset
    989  10000 ????				       endif
    990  10000 ????				       endif
    991  10000 ????				       if	{1}_width = 16
    992  10000 ????				       asl
    993  10000 ????				       asl
    994  10000 ????				       asl
    995  10000 ????				       asl
    996  10000 ????				       endif
    997  10000 ????				       adc	#<.GFXLabel	; carry is clear via previous asl or asr
    998  10000 ????				       else
    999  10000 ????				       lda	#<.GFXLabel	; carry is clear via previous asl or asr
   1000  10000 ????				       endif		; .ByteOffset
   1001  10000 ????				       sta	(dlpnt),y	; #1 - low byte object address
   1002  10000 ????
   1003  10000 ????				       iny
   1004  10000 ????
   1005  10000 ????				       if	MACARG2CONST = 1
   1006  10000 ????				       lda	#({1}_width_twoscompliment | (.Palette * 32))
   1007  10000 ????				       else
   1008  10000 ????				       lda	#({1}_width_twoscompliment)
   1009  10000 ????				       ora	.Palette
   1010  10000 ????				       endif
   1011  10000 ????				       sta	(dlpnt),y	; #2 - palette|width
   1012  10000 ????
   1013  10000 ????				       iny
   1014  10000 ????				       if	MACARG4CONST = 0
   1015  10000 ????				       lda	.SpriteY
   1016  10000 ????				       else
   1017  10000 ????				       lda	#.SpriteY
   1018  10000 ????				       endif
   1019  10000 ????				       and	#(WZONEHEIGHT - 1)
   1020  10000 ????				       cmp	#1	; clear carry if our sprite is just in this zone
   1021  10000 ????				       ora	#>.GFXLabel
   1022  10000 ????				       sta	(dlpnt),y	; #3 - hi byte object address
   1023  10000 ????
   1024  10000 ????				       iny
   1025  10000 ????				       if	MACARG3CONST = 1
   1026  10000 ????				       lda	#.SpriteX
   1027  10000 ????				       else
   1028  10000 ????				       lda	.SpriteX
   1029  10000 ????				       endif
   1030  10000 ????				       sta	(dlpnt),y	; #4 - x object position
   1031  10000 ????
   1032  10000 ????				       iny
   1033  10000 ????				       sty	dlend,x
   1034  10000 ????
   1035  10000 ????				       ifconst	ALWAYSTERMINATE
   1036  10000 ????				       iny
   1037  10000 ????				       lda	#0
   1038  10000 ????				       sta	(dlpnt),y
   1039  10000 ????				       endif
   1040  10000 ????
   1041  10000 ????				       bcc	.PLOTSPRITEend
   1042  10000 ????
   1043  10000 ????			    .PLOTSPRITEnext
   1044  10000 ????				       inx		; next zone
   1045  10000 ????
   1046  10000 ????				       cpx	#WZONECOUNT
   1047  10000 ????				       bcs	.PLOTSPRITEend
   1048  10000 ????						; carry is clear
   1049  10000 ????				       ifconst	VSCROLL
   1050  10000 ????				       ldy	Xx3,x
   1051  10000 ????				       lda	DLLMEM+11,y
   1052  10000 ????				       else		; !VSCROLL
   1053  10000 ????				       lda	DLPOINTL,x	;Get pointer to DL that this sprite starts in
   1054  10000 ????				       endif		; !VSCROLL
   1055  10000 ????				       ifconst	DOUBLEBUFFER
   1056  10000 ????				       adc	doublebufferdloffset
   1057  10000 ????				       endif		; DOUBLEBUFFER
   1058  10000 ????				       sta	dlpnt
   1059  10000 ????				       ifconst	VSCROLL
   1060  10000 ????				       lda	DLLMEM+10,y
   1061  10000 ????				       else		; !VSCROLL
   1062  10000 ????				       lda	DLPOINTH,x
   1063  10000 ????				       endif		; !VSCROLL
   1064  10000 ????				       ifconst	DOUBLEBUFFER
   1065  10000 ????				       adc	#0
   1066  10000 ????				       endif		; DOUBLEBUFFER
   1067  10000 ????				       sta	dlpnt+1
   1068  10000 ????
   1069  10000 ????				       ldy	dlend,x	; find the next new object position in this zone
   1070  10000 ????
   1071  10000 ????				       ifconst	.ByteOffset
   1072  10000 ????
   1073  10000 ????				       if	MACARG5CONST = 1
   1074  10000 ????				       lda	#.ByteOffset
   1075  10000 ????				       else
   1076  10000 ????				       lda	.ByteOffset
   1077  10000 ????				       endif
   1078  10000 ????				       if	{1}_width = 1
   1079  10000 ????				       clc
   1080  10000 ????				       endif
   1081  10000 ????				       if	{1}_width = 2
   1082  10000 ????				       asl		; carry clear
   1083  10000 ????				       endif
   1084  10000 ????				       if	{1}_width = 3
   1085  10000 ????				       asl		; carry clear
   1086  10000 ????				       if	MACARG5CONST = 1
   1087  10000 ????				       adc	#.ByteOffset
   1088  10000 ????				       else
   1089  10000 ????				       adc	.ByteOffset
   1090  10000 ????				       endif
   1091  10000 ????				       endif
   1092  10000 ????				       if	{1}_width = 4
   1093  10000 ????				       asl		; carry clear
   1094  10000 ????				       asl
   1095  10000 ????				       endif
   1096  10000 ????				       if	{1}_width = 5
   1097  10000 ????				       asl		; carry clear
   1098  10000 ????				       asl
   1099  10000 ????				       if	MACARG5CONST = 1
   1100  10000 ????				       adc	#.ByteOffset
   1101  10000 ????				       else
   1102  10000 ????				       adc	.ByteOffset
   1103  10000 ????				       endif
   1104  10000 ????				       endif
   1105  10000 ????				       if	{1}_width = 6
   1106  10000 ????				       asl		; carry clear
   1107  10000 ????				       if	MACARG5CONST = 1
   1108  10000 ????				       adc	#.ByteOffset
   1109  10000 ????				       else
   1110  10000 ????				       adc	.ByteOffset
   1111  10000 ????				       endif
   1112  10000 ????
   1113  10000 ????				       asl
   1114  10000 ????				       endif
   1115  10000 ????				       if	{1}_width = 7
   1116  10000 ????				       asl		; carry clear
   1117  10000 ????				       if	MACARG5CONST = 1
   1118  10000 ????				       adc	#.ByteOffset
   1119  10000 ????				       else
   1120  10000 ????				       adc	.ByteOffset
   1121  10000 ????				       endif
   1122  10000 ????				       asl
   1123  10000 ????				       endif
   1124  10000 ????				       if	{1}_width = 8
   1125  10000 ????				       asl		; carry clear
   1126  10000 ????				       asl
   1127  10000 ????				       asl
   1128  10000 ????				       endif
   1129  10000 ????				       if	{1}_width = 9
   1130  10000 ????				       asl		; carry clear
   1131  10000 ????				       asl
   1132  10000 ????				       asl
   1133  10000 ????				       if	MACARG5CONST = 1
   1134  10000 ????				       adc	#.ByteOffset
   1135  10000 ????				       else
   1136  10000 ????				       adc	.ByteOffset
   1137  10000 ????				       endif
   1138  10000 ????				       endif
   1139  10000 ????				       if	{1}_width = 10
   1140  10000 ????				       asl		; carry clear
   1141  10000 ????				       asl
   1142  10000 ????				       if	MACARG5CONST = 1
   1143  10000 ????				       adc	#.ByteOffset
   1144  10000 ????				       else
   1145  10000 ????				       adc	.ByteOffset
   1146  10000 ????				       endif
   1147  10000 ????				       asl
   1148  10000 ????				       endif
   1149  10000 ????				       if	{1}_width = 11
   1150  10000 ????				       asl		; carry clear
   1151  10000 ????				       asl
   1152  10000 ????				       if	MACARG5CONST = 1
   1153  10000 ????				       adc	#.ByteOffset
   1154  10000 ????				       else
   1155  10000 ????				       adc	.ByteOffset
   1156  10000 ????				       endif
   1157  10000 ????				       asl
   1158  10000 ????				       if	MACARG5CONST = 1
   1159  10000 ????				       adc	#.ByteOffset
   1160  10000 ????				       else
   1161  10000 ????				       adc	.ByteOffset
   1162  10000 ????				       endif
   1163  10000 ????				       endif
   1164  10000 ????				       if	{1}_width = 12
   1165  10000 ????				       asl		; carry clear
   1166  10000 ????				       if	MACARG5CONST = 1
   1167  10000 ????				       adc	#.ByteOffset
   1168  10000 ????				       else
   1169  10000 ????				       adc	.ByteOffset
   1170  10000 ????				       endif
   1171  10000 ????				       asl
   1172  10000 ????				       asl
   1173  10000 ????				       endif
   1174  10000 ????				       if	{1}_width = 13
   1175  10000 ????				       asl		; carry clear
   1176  10000 ????				       if	MACARG5CONST = 1
   1177  10000 ????				       adc	#.ByteOffset
   1178  10000 ????				       else
   1179  10000 ????				       adc	.ByteOffset
   1180  10000 ????				       endif
   1181  10000 ????				       asl
   1182  10000 ????				       asl
   1183  10000 ????				       if	MACARG5CONST = 1
   1184  10000 ????				       adc	#.ByteOffset
   1185  10000 ????				       else
   1186  10000 ????				       adc	.ByteOffset
   1187  10000 ????				       endif
   1188  10000 ????				       endif
   1189  10000 ????				       if	{1}_width = 14
   1190  10000 ????				       asl		; carry clear
   1191  10000 ????				       if	MACARG5CONST = 1
   1192  10000 ????				       adc	#.ByteOffset
   1193  10000 ????				       else
   1194  10000 ????				       adc	.ByteOffset
   1195  10000 ????				       endif
   1196  10000 ????				       asl
   1197  10000 ????				       if	MACARG5CONST = 1
   1198  10000 ????				       adc	#.ByteOffset
   1199  10000 ????				       else
   1200  10000 ????				       adc	.ByteOffset
   1201  10000 ????				       endif
   1202  10000 ????				       asl
   1203  10000 ????				       endif
   1204  10000 ????				       if	{1}_width = 15
   1205  10000 ????				       asl
   1206  10000 ????				       if	MACARG5CONST = 1
   1207  10000 ????				       adc	#.ByteOffset
   1208  10000 ????				       else
   1209  10000 ????				       adc	.ByteOffset
   1210  10000 ????				       endif
   1211  10000 ????				       asl
   1212  10000 ????				       if	MACARG5CONST = 1
   1213  10000 ????				       adc	#.ByteOffset
   1214  10000 ????				       else
   1215  10000 ????				       adc	.ByteOffset
   1216  10000 ????				       endif
   1217  10000 ????				       asl
   1218  10000 ????				       if	MACARG5CONST = 1
   1219  10000 ????				       adc	#.ByteOffset
   1220  10000 ????				       else
   1221  10000 ????				       adc	.ByteOffset
   1222  10000 ????				       endif
   1223  10000 ????				       endif
   1224  10000 ????				       if	{1}_width = 16
   1225  10000 ????				       asl
   1226  10000 ????				       asl
   1227  10000 ????				       asl
   1228  10000 ????				       asl
   1229  10000 ????				       endif
   1230  10000 ????				       adc	#<.GFXLabel
   1231  10000 ????				       else
   1232  10000 ????				       lda	#<.GFXLabel
   1233  10000 ????				       endif		; .ByteOffset
   1234  10000 ????				       sta	(dlpnt),y	; #1 - low byte object address
   1235  10000 ????
   1236  10000 ????				       iny
   1237  10000 ????				       if	MACARG2CONST = 1
   1238  10000 ????				       lda	#({1}_width_twoscompliment | (.Palette * 32))
   1239  10000 ????				       else
   1240  10000 ????				       lda	#({1}_width_twoscompliment)
   1241  10000 ????				       ora	.Palette
   1242  10000 ????				       endif
   1243  10000 ????
   1244  10000 ????				       sta	(dlpnt),y	; #2 - palette|width
   1245  10000 ????
   1246  10000 ????				       iny
   1247  10000 ????				       if	MACARG4CONST = 0
   1248  10000 ????				       lda	.SpriteY
   1249  10000 ????				       else
   1250  10000 ????				       lda	#.SpriteY
   1251  10000 ????				       endif
   1252  10000 ????				       and	#(WZONEHEIGHT - 1)
   1253  10000 ????				       ora	#>(.GFXLabel - (WZONEHEIGHT * 256))	; start in the dma hole
   1254  10000 ????				       sta	(dlpnt),y	; #3 - hi byte object address
   1255  10000 ????
   1256  10000 ????				       iny
   1257  10000 ????				       if	MACARG3CONST = 1
   1258  10000 ????				       lda	#.SpriteX
   1259  10000 ????				       else
   1260  10000 ????				       lda	.SpriteX
   1261  10000 ????				       endif
   1262  10000 ????				       sta	(dlpnt),y	; #4 - x object position
   1263  10000 ????
   1264  10000 ????				       iny
   1265  10000 ????				       sty	dlend,x
   1266  10000 ????
   1267  10000 ????				       ifconst	ALWAYSTERMINATE
   1268  10000 ????				       iny
   1269  10000 ????				       lda	#0
   1270  10000 ????				       sta	(dlpnt),y
   1271  10000 ????				       endif
   1272  10000 ????
   1273  10000 ????			    .PLOTSPRITEend
   1274  10000 ????				       ENDM
   1275  10000 ????
   1276  10000 ????				       MAC	scrollsetup
   1277  10000 ????
   1278  10000 ????						; If vertical scrolling is enabled...
   1279  10000 ????						;   * Fills the DLs with hidden masking sprites.
   1280  10000 ????						; Adds blank sprites to the DLs to fill the screen.
   1281  10000 ????						; If horizontal scrolling is enabled...
   1282  10000 ????						;   * Adds another blank DL off-screen
   1283  10000 ????
   1284  10000 ????						; {1} - constant - the first dl of the scrolling area
   1285  10000 ????						; {2} - symbol   - blank tile label
   1286  10000 ????
   1287  10000 ????						; *** clear the saved dl ending for scrolling zones...
   1288  10000 ????				       ldx	#{1}
   1289  10000 ????				       lda	#0
   1290  10000 ????			    .scrollcleardls
   1291  10000 ????				       sta	dlend,x
   1292  10000 ????				       inx
   1293  10000 ????				       cpx	#WZONECOUNT
   1294  10000 ????				       bne	.scrollcleardls
   1295  10000 ????
   1296  10000 ????				       ifconst	VSCROLL
   1297  10000 ????						; *** adjust the ending for our mask dl to allow for mask objects...
   1298  10000 ????				       dex
   1299  10000 ????				       lda	#(maskscrollspriteend-maskscrollsprite)
   1300  10000 ????				       sta	dlend,x
   1301  10000 ????
   1302  10000 ????						; *** Add 4x dma masking objects to last zone...
   1303  10000 ????				       ldx	#(maskscrollspriteend-maskscrollsprite-1)
   1304  10000 ????			    .scrollpopulateloop1
   1305  10000 ????				       lda	maskscrollsprite,x
   1306  10000 ????				       sta	LASTZONEADDRESS+0,x
   1307  10000 ????				       ifconst	DOUBLEBUFFER
   1308  10000 ????				       sta	LASTZONEADDRESS+0+DOUBLEBUFFEROFFSET,x
   1309  10000 ????				       endif		; DOUBLEBUFFER
   1310  10000 ????				       dex
   1311  10000 ????				       bpl	.scrollpopulateloop1
   1312  10000 ????				       inx		; x=0
   1313  10000 ????				       stx	finescrolly
   1314  10000 ????				       endif		; VSCROLL
   1315  10000 ????
   1316  10000 ????						; *** Add blank sprite-tile objects to the scrolling zones...
   1317  10000 ????			    PLOTSP4    =	1	; ensure we use 4 byte sprites
   1318  10000 ????
   1319  10000 ????						; convert byte width of the sprit to coordinate width...
   1320  10000 ????				       if	{2}_mode = 0	; ### 160A, 320A, 320D
   1321  10000 ????			    .scrollXWIDTH SET	({2}_width * 4)	; 4x 160-mode pixels per byte
   1322  10000 ????				       else		; ### 160B, 320B, 320C
   1323  10000 ????			    .scrollXWIDTH SET	({2}_width * 2)	; 2x 160-mode pixels per byte
   1324  10000 ????				       endif
   1325  10000 ????
   1326  10000 ????						; figure out how many sprites we need to fill a screen width...
   1327  10000 ????			    .scrollSPRITECOuNT SET	((160+.scrollXWIDTH-1)/.scrollXWIDTH)
   1328  10000 ????				       ifconst	HSCROLL
   1329  10000 ????			    .scrollSPRITECOuNT SET	(.scrollSPRITECOuNT+1)
   1330  10000 ????				       endif		; HSCROLL
   1331  10000 ????
   1332  10000 ????						; setup plotsprite4 parameters...
   1333  10000 ????				       lda	#<{2}
   1334  10000 ????				       sta	temp1
   1335  10000 ????				       lda	#>{2}
   1336  10000 ????				       sta	temp2
   1337  10000 ????				       lda	#{2}_width_twoscompliment
   1338  10000 ????				       sta	temp3	; width
   1339  10000 ????
   1340  10000 ????				       lda	#{1}
   1341  10000 ????				       asl
   1342  10000 ????				       asl
   1343  10000 ????				       asl
   1344  10000 ????				       if	WZONEHEIGHT
   1345  10000 ????				       asl
   1346  10000 ????				       endif
   1347  10000 ????				       sta	temp5	; Y
   1348  10000 ????			    .scrollpopulateloop2
   1349  10000 ????				       lda	#0
   1350  10000 ????				       sta	temp4	; X
   1351  10000 ????			    .scrollpopulateloop3
   1352  10000 ????				       jsr	skipplotsprite4wait
   1353  10000 ????				       lda	temp4	; X
   1354  10000 ????				       clc
   1355  10000 ????				       adc	#.scrollXWIDTH
   1356  10000 ????				       sta	temp4	; X
   1357  10000 ????				       cmp	#(.scrollSPRITECOuNT*.scrollXWIDTH)
   1358  10000 ????				       bne	.scrollpopulateloop3
   1359  10000 ????				       lda	temp5	; Y
   1360  10000 ????				       clc
   1361  10000 ????				       adc	#WZONEHEIGHT
   1362  10000 ????				       sta	temp5	; Y
   1363  10000 ????				       cmp	#((WZONECOUNT*WZONEHEIGHT)+WZONEHEIGHT)
   1364  10000 ????				       bne	.scrollpopulateloop2
   1365  10000 ????				       ENDM
   1366  10000 ????
   1367  10000 ????				       MAC	sizeof
   1368  10000 ????
   1369  10000 ????						; echoes the size difference between the current address and the
   1370  10000 ????						; a label that was passed as an argument. This is a quick way to
   1371  10000 ????						; determine the size of a structure.
   1372  10000 ????
   1373  10000 ????			    .NAME      SETSTR	{1}
   1374  10000 ????				       echo	" The Size of",.NAME,"is:",[* - {1}]d,[* - {2}]d,"bytes."
   1375  10000 ????				       ENDM
   1376  10000 ????
   1377  10000 ????						;
   1378  10000 ????						; speakjet.inc
   1379  10000 ????						;
   1380  10000 ????						;
   1381  10000 ????						; AtariVox Speech Synth Driver
   1382  10000 ????						;
   1383  10000 ????						; By Alex Herbert, 2004
   1384  10000 ????						;
   1385  10000 ????
   1386  10000 ????
   1387  10000 ????
   1388  10000 ????
   1389  10000 ????						; Constants
   1390  10000 ????
   1391  10000 ????
   1392  10000 ????		00 01	    SERIAL_OUTMASK equ	$01
   1393  10000 ????		00 02	    SERIAL_RDYMASK equ	$02
   1394  10000 ????
   1395  10000 ????
   1396  10000 ????
   1397  10000 ????						; Macros
   1398  10000 ????
   1399  10000 ????				       mac	spkout
   1400  10000 ????
   1401  10000 ????						; check buffer-full status
   1402  10000 ????				       lda	SWCHA
   1403  10000 ????				       and	#SERIAL_RDYMASK
   1404  10000 ????				       beq	.speech_done
   1405  10000 ????
   1406  10000 ????						; get next speech byte
   1407  10000 ????				       ldy	#$00
   1408  10000 ????				       lda	(speech_addr),y
   1409  10000 ????
   1410  10000 ????						; invert data and check for end of string
   1411  10000 ????				       eor	#$ff
   1412  10000 ????						;sta BACKGRND ; debug - uncomment to flash the background color with vox data
   1413  10000 ????				       beq	.speech_done
   1414  10000 ????				       sta	{1}
   1415  10000 ????
   1416  10000 ????						; increment speech pointer
   1417  10000 ????				       inc	speech_addr
   1418  10000 ????				       bne	.incaddr_skip
   1419  10000 ????				       inc	speech_addr+1
   1420  10000 ????			    .incaddr_skip
   1421  10000 ????
   1422  10000 ????						; output byte as serial data
   1423  10000 ????
   1424  10000 ????				       sec		; start bit
   1425  10000 ????			    .byteout_loop
   1426  10000 ????						; put carry flag into bit 0 of SWACNT, preserving other bits
   1427  10000 ????				       lda	SWACNT	; 4
   1428  10000 ????				       and	#$fe	; 2 6
   1429  10000 ????				       adc	#$00	; 2 8
   1430  10000 ????				       sta	SWACNT	; 4 12
   1431  10000 ????
   1432  10000 ????						; 10 bits sent? (1 start bit, 8 data bits, 1 stop bit)
   1433  10000 ????				       cpy	#$09	; 2 14
   1434  10000 ????				       beq	.speech_done	; 2 16
   1435  10000 ????				       iny		; 2 18
   1436  10000 ????
   1437  10000 ????						; the 7800 is 1.5x faster than the 2600. Waste more cycles here
   1438  10000 ????						; to match the original baud rate...
   1439  10000 ????						;ldx	  #$07 ; 2600
   1440  10000 ????				       ldx	#$0D
   1441  10000 ????
   1442  10000 ????			    .delay_loop
   1443  10000 ????				       dex		;
   1444  10000 ????				       bne	.delay_loop	; 36 54
   1445  10000 ????
   1446  10000 ????						; shift next data bit into carry
   1447  10000 ????				       lsr	{1}	; 5 59
   1448  10000 ????
   1449  10000 ????						; and loop (branch always taken)
   1450  10000 ????				       bpl	.byteout_loop	; 3 62 cycles for loop
   1451  10000 ????
   1452  10000 ????			    .speech_done
   1453  10000 ????
   1454  10000 ????				       endm
   1455  10000 ????
   1456  10000 ????
   1457  10000 ????				       mac	speak
   1458  10000 ????
   1459  10000 ????				       lda	#<{1}
   1460  10000 ????				       sta	speech_addr
   1461  10000 ????				       lda	#>{1}
   1462  10000 ????				       sta	speech_addr+1
   1463  10000 ????
   1464  10000 ????				       endm
   1465  10000 ????
   1466  10000 ????
   1467  10000 ????
   1468  10000 ????						; Provided under the CC0 license. See the included LICENSE.txt for details.
   1469  10000 ????
   1470  10000 ????				       processor	6502
   1471  10000 ????
------- FILE 7800basic.h LEVEL 2 PASS 3
      0  10000 ????				       include	"7800basic.h"
      1  10000 ????						; Provided under the CC0 license. See the included LICENSE.txt for details.
      2  10000 ????
      3  10000 ????				       processor	6502
------- FILE 7800.h LEVEL 3 PASS 3
      0  10000 ????				       include	"7800.h"
      1  10000 ????						; Provided under the CC0 license. See the included LICENSE.txt for details.
      2  10000 ????
      3  10000 ????						; 7800.h
      4  10000 ????						; Version 1.0, 2019/12/13
      5  10000 ????
      6  10000 ????						; This file defines hardware registers and memory mapping for the
      7  10000 ????						; Atari 7800. It is distributed as a companion machine-specific support package
      8  10000 ????						; for the DASM compiler. Updates to this file, DASM, and associated tools are
      9  10000 ????						; available at https://github.com/dasm-assembler/dasm
     10  10000 ????
     11  10000 ????
     12  10000 ????						; ******************** 7800 Hardware Addresses ***************************
     13  10000 ????						;
     14  10000 ????						;	 MEMORY MAP USAGE OF THE 7800
     15  10000 ????						;
     16  10000 ????						;	  00 -   1F	TIA REGISTERS
     17  10000 ????						;	  20 -   3F	MARIA REGISTERS
     18  10000 ????						;	  40 -   FF	RAM block 0 (zero page)
     19  10000 ????						;	 100 -  11F	TIA   (mirror of 0000-001f)
     20  10000 ????						;	 120 -  13F	MARIA (mirror of 0020-003f)
     21  10000 ????						;	 140 -  1FF	RAM block 1 (stack)
     22  10000 ????						;	 200 -  21F	TIA   (mirror of 0000-001f)
     23  10000 ????						;	 220 -  23F	MARIA (mirror of 0020-003f)
     24  10000 ????						;	 240 -  27F	???
     25  10000 ????						;	 280 -  2FF	RIOT I/O ports and timers
     26  10000 ????						;	 300 -  31F	TIA   (mirror of 0000-001f)
     27  10000 ????						;	 320 -  33F	MARIA (mirror of 0020-003f)
     28  10000 ????						;	 340 -  3FF	???
     29  10000 ????						;	 400 -  47F	unused address space
     30  10000 ????						;	 480 -  4FF	RIOT RAM
     31  10000 ????						;	 500 -  57F	unused address space
     32  10000 ????						;	 580 -  5FF	RIOT RAM (mirror of 0480-04ff)
     33  10000 ????						;	 600 - 17FF	unused address space
     34  10000 ????						;	1800 - 203F	RAM
     35  10000 ????						;	2040 - 20FF	RAM block 0 (mirror of 0000-001f)
     36  10000 ????						;	2100 - 213F	RAM
     37  10000 ????						;	2140 - 21FF	RAM block 1 (mirror of 0140-01ff)
     38  10000 ????						;	2200 - 27FF	RAM
     39  10000 ????						;	2800 - 2FFF	unavailable to external devices (bios bus-conflict)
     40  10000 ????						;	3000 - 3FFF	unused address space
     41  10000 ????						;	4000 - FF7F	potential cartridge address space
     42  10000 ????						;	FF80 - FFF9	RESERVED FOR ENCRYPTION
     43  10000 ????						;	FFFA - FFFF	6502 VECTORS
     44  10000 ????
     45  10000 ????
     46  10000 ????						;****** 00-1F ********* TIA REGISTERS ******************
     47  10000 ????
     48  10000 ????		00 01	    INPTCTRL   =	$01	;Input control. In same address space as TIA. write-only
     49  10000 ????		00 01	    VBLANK     =	$01	;VBLANK. D7=1:dump paddle caps to ground.     write-only
     50  10000 ????		00 02	    _WSYNC     =	$02	;Wait for HSync			       write-only
     51  10000 ????		00 03	    _RSYNC     =	$03	;Reset HSync				       write-only
     52  10000 ????		00 08	    INPT0      =	$08	;Paddle Control Input 0		       read-only
     53  10000 ????		00 09	    INPT1      =	$09	;Paddle Control Input 1		       read-only
     54  10000 ????		00 0a	    INPT2      =	$0A	;Paddle Control Input 2		       read-only
     55  10000 ????		00 0b	    INPT3      =	$0B	;Paddle Control Input 3		       read-only
     56  10000 ????
     57  10000 ????						; ** some common alternate names for INPT0/1/2/3
     58  10000 ????		00 08	    INPT4B     =	$08	;Joystick 0 Fire 1			       read-only
     59  10000 ????		00 09	    INPT4A     =	$09	;Joystick 0 Fire 1			       read-only
     60  10000 ????		00 0a	    INPT5B     =	$0A	;Joystick 1 Fire 0			       read-only
     61  10000 ????		00 0b	    INPT5A     =	$0B	;Joystick 1 Fire 1			       read-only
     62  10000 ????		00 08	    INPT4R     =	$08	;Joystick 0 Fire 1			       read-only
     63  10000 ????		00 09	    INPT4L     =	$09	;Joystick 0 Fire 1			       read-only
     64  10000 ????		00 0a	    INPT5R     =	$0A	;Joystick 1 Fire 0			       read-only
     65  10000 ????		00 0b	    INPT5L     =	$0B	;Joystick 1 Fire 1			       read-only
     66  10000 ????
     67  10000 ????		00 0c	    INPT4      =	$0C	;Player 0 Fire Button Input		       read-only
     68  10000 ????		00 0d	    INPT5      =	$0D	;Player 1 Fire Button Input		       read-only
     69  10000 ????
     70  10000 ????		00 15	    AUDC0      =	$15	;Audio Control Channel   0		       write-only
     71  10000 ????		00 16	    AUDC1      =	$16	;Audio Control Channel   1		       write-only
     72  10000 ????		00 17	    AUDF0      =	$17	;Audio Frequency Channel 0		       write-only
     73  10000 ????		00 18	    AUDF1      =	$18	;Audio Frequency Channel 1		       write-only
     74  10000 ????		00 19	    AUDV0      =	$19	;Audio Volume Channel	  0		       write-only
     75  10000 ????		00 1a	    AUDV1      =	$1A	;Audio Volume Channel	  1		       write-only
     76  10000 ????
     77  10000 ????						;****** 20-3F ********* MARIA REGISTERS ***************
     78  10000 ????
     79  10000 ????		00 20	    BACKGRND   =	$20	;Background Color			       write-only
     80  10000 ????		00 21	    P0C1       =	$21	;Palette 0 - Color 1			       write-only
     81  10000 ????		00 22	    P0C2       =	$22	;Palette 0 - Color 2			       write-only
     82  10000 ????		00 23	    P0C3       =	$23	;Palette 0 - Color 3			       write-only
     83  10000 ????		00 24	    WSYNC      =	$24	;Wait For Sync 			       write-only
     84  10000 ????		00 25	    P1C1       =	$25	;Palette 1 - Color 1			       write-only
     85  10000 ????		00 26	    P1C2       =	$26	;Palette 1 - Color 2			       write-only
     86  10000 ????		00 27	    P1C3       =	$27	;Palette 1 - Color 3			       write-only
     87  10000 ????		00 28	    MSTAT      =	$28	;Maria Status				       read-only
     88  10000 ????		00 29	    P2C1       =	$29	;Palette 2 - Color 1			       write-only
     89  10000 ????		00 2a	    P2C2       =	$2A	;Palette 2 - Color 2			       write-only
     90  10000 ????		00 2b	    P2C3       =	$2B	;Palette 2 - Color 3			       write-only
     91  10000 ????		00 2c	    DPPH       =	$2C	;Display List List Pointer High	       write-only
     92  10000 ????		00 2d	    P3C1       =	$2D	;Palette 3 - Color 1			       write-only
     93  10000 ????		00 2e	    P3C2       =	$2E	;Palette 3 - Color 2			       write-only
     94  10000 ????		00 2f	    P3C3       =	$2F	;Palette 3 - Color 3			       write-only
     95  10000 ????		00 30	    DPPL       =	$30	;Display List List Pointer Low 	       write-only
     96  10000 ????		00 31	    P4C1       =	$31	;Palette 4 - Color 1			       write-only
     97  10000 ????		00 32	    P4C2       =	$32	;Palette 4 - Color 2			       write-only
     98  10000 ????		00 33	    P4C3       =	$33	;Palette 4 - Color 3			       write-only
     99  10000 ????		00 34	    CHARBASE   =	$34	;Character Base Address		       write-only
    100  10000 ????		00 34	    CHBASE     =	$34	;Character Base Address		       write-only
    101  10000 ????		00 35	    P5C1       =	$35	;Palette 5 - Color 1			       write-only
    102  10000 ????		00 36	    P5C2       =	$36	;Palette 5 - Color 2			       write-only
    103  10000 ????		00 37	    P5C3       =	$37	;Palette 5 - Color 3			       write-only
    104  10000 ????		00 38	    OFFSET     =	$38	;Unused - Store zero here		       write-only
    105  10000 ????		00 39	    P6C1       =	$39	;Palette 6 - Color 1			       write-only
    106  10000 ????		00 3a	    P6C2       =	$3A	;Palette 6 - Color 2			       write-only
    107  10000 ????		00 3b	    P6C3       =	$3B	;Palette 6 - Color 3			       write-only
    108  10000 ????		00 3c	    CTRL       =	$3C	;Maria Control Register		       write-only
    109  10000 ????		00 3d	    P7C1       =	$3D	;Palette 7 - Color 1			       write-only
    110  10000 ????		00 3e	    P7C2       =	$3E	;Palette 7 - Color 2			       write-only
    111  10000 ????		00 3f	    P7C3       =	$3F	;Palette 7 - Color 3			       write-only
    112  10000 ????
    113  10000 ????
    114  10000 ????						;****** 280-2FF ******* PIA PORTS AND TIMERS ************
    115  10000 ????
    116  10000 ????		02 80	    SWCHA      =	$280	;P0+P1 Joystick Directional Input	       read-write
    117  10000 ????		02 81	    CTLSWA     =	$281	;I/O Control for SCHWA 		       read-write
    118  10000 ????		02 81	    SWACNT     =	$281	;VCS name for above			       read-write
    119  10000 ????		02 82	    SWCHB      =	$282	;Console Switches			       read-write
    120  10000 ????		02 83	    CTLSWB     =	$283	;I/O Control for SCHWB 		       read-write
    121  10000 ????		02 83	    SWBCNT     =	$283	;VCS name for above			       read-write
    122  10000 ????		02 84	    INTIM      =	$284	;Interval Timer Read			       read-only
    123  10000 ????		02 85	    TIMINT     =	$285	;Interval Timer Interrupt		       read-only
    124  10000 ????
    125  10000 ????		02 94	    TIM1T      =	$294	;Set 1    CLK Interval (838   nsec/interval)  write-only
    126  10000 ????		02 95	    TIM8T      =	$295	;Set 8    CLK Interval (6.7   usec/interval)  write-only
    127  10000 ????		02 96	    TIM64T     =	$296	;Set 64   CLK Interval (63.6  usec/interval)  write-only
    128  10000 ????		02 97	    T1024T     =	$297	;Set 1024 CLK Interval (858.2 usec/interval)  write-only
    129  10000 ????		02 9e	    TIM64TI    =	$29E	;Interrupt timer 64T			       write-only
    130  10000 ????
    131  10000 ????						;XM
    132  10000 ????		04 70	    XCTRL      =	$470	; 7=YM2151 6=RAM@6k 5=RAM@4k 4=pokey@450 3=hsc 2=cart 1=RoF_bank1 0=RoF_bank2
    133  10000 ????		04 70	    XCTRL1     =	$470
    134  10000 ????		04 78	    XCTRL2     =	$478
    135  10000 ????		04 7c	    XCTRL3     =	$47c
    136  10000 ????		04 71	    XCTRL4     =	$471
    137  10000 ????		04 72	    XCTRL5     =	$472
    138  10000 ????
    139  10000 ????						; Pokey register relative locations, since its base may be different
    140  10000 ????						; depending on the hardware.
    141  10000 ????		00 00	    PAUDF0     =	$0	; extra audio channels and frequencies
    142  10000 ????		00 01	    PAUDC0     =	$1
    143  10000 ????		00 02	    PAUDF1     =	$2
    144  10000 ????		00 03	    PAUDC1     =	$3
    145  10000 ????		00 04	    PAUDF2     =	$4
    146  10000 ????		00 05	    PAUDC2     =	$5
    147  10000 ????		00 06	    PAUDF3     =	$6
    148  10000 ????		00 07	    PAUDC3     =	$7
    149  10000 ????		00 08	    PAUDCTL    =	$8	; Audio Control
    150  10000 ????		00 09	    PSTIMER    =	$9
    151  10000 ????		00 0a	    PRANDOM    =	$A	; 17 bit polycounter pseudo random
    152  10000 ????		00 0f	    PSKCTL     =	$F	; Serial Port control
------- FILE 7800basic.h
------- FILE 7800basic_variable_redefs.h LEVEL 3 PASS 3
      0  10000 ????				       include	"7800basic_variable_redefs.h"
      1  10000 ????						; This file contains variable mapping and other information for the current project.
      2  10000 ????
      3  10000 ????		00 00	    alphabet_4_wide_mode =	$00
      4  10000 ????		00 1c	    alphabet_4_wide_width_twoscompliment =	$1c
      5  10000 ????		00 24	    alphabet_4_wide_width =	$24
      6  10000 ????		00 0c	    alphabet_4_wide_color3 =	$0c
      7  10000 ????		00 09	    alphabet_4_wide_color2 =	$09
      8  10000 ????		00 00	    alphabet_4_wide_color1 =	$00
      9  10000 ????		00 64	    alphabet_4_wide_color0 =	$64
     10  10000 ????		00 01	    ROM32K     =	1
     11  10000 ????		00 01	    collisionwrap =	1
------- FILE 7800basic.h
      6  10000 ????
      7  10000 ????						;************ 7800 overall RAM map **************
      8  10000 ????
      9  10000 ????						;	   40-FF	 zero page RAM
     10  10000 ????						;	  140-1FF	 RAM (stack)
     11  10000 ????						;	 1800-203F	 RAM
     12  10000 ????						;	 2100-213F	 RAM
     13  10000 ????						;	 2200-27FF	 RAM
     14  10000 ????
     15  10000 ????						;************ 7800basic RAM usage map **************
     16  10000 ????
     17  10000 ????						;	   40-FF	 numerous defines, listed below
     18  10000 ????						;	  140-1FF	 RAM (stack)
     19  10000 ????
     20  10000 ????						;	 1800-187F	 DLL  (1800-18DF with page flipping enabled)
     21  10000 ????						;	 1880-1FFF	 DLs  (18E0-1FFF with page flipping enabled)
     22  10000 ????
     23  10000 ????						;	 2000-203F	 Reserved
     24  10000 ????						;	 2100-213F	 Reserved
     25  10000 ????						;	 2200-27FF	 Free
     26  10000 ????
     27  10000 ????		1f e0	    eeprombuffer =	$1FE0
     28  10000 ????		18 00	    DLLMEM     =	$1800
     29  10000 ????		00 70	    DBOFFSET   =	$70	; $E0 length DL is /2 for double-buffering
     30  10000 ????
     31  10000 ????			   -	       ifconst	PLOTVALUEPAGE
     32  10000 ????			   -VALBUFFER  =	(PLOTVALUEPAGE*256)
     33  10000 ????				       else
     34  10000 ????		20 00	    VALBUFFER  =	$2000	; to $203F  ** never let VALBUFFER straddle pages
     35  10000 ????				       endif
     36  10000 ????
     37  10000 ????
     38  10000 ????		21 00	    pausestate =	$2100
     39  10000 ????		21 01	    dlzero     =	$2101	; zero to force end of $2100 DL, which we use in vblank and overscan
     40  10000 ????		21 02	    sINPT1     =	$2102	; save register for joy button joy0
     41  10000 ????		21 03	    sINPT3     =	$2103	; save register for joy button joy1
     42  10000 ????		21 04	    currentbank =	$2104
     43  10000 ????
     44  10000 ????		21 05	    currentrambank =	$2105
     45  10000 ????		21 06	    charactermode =	$2106
     46  10000 ????		21 07	    sCTRL      =	$2107
     47  10000 ????		21 08	    pokeydetected =	$2108
     48  10000 ????		21 09	    paldetected =	$2109
     49  10000 ????		21 0a	    avoxdetected =	$210A
     50  10000 ????		21 0b	    sCHARBASE  =	$210B	; save register for CHARBASE
     51  10000 ????
     52  10000 ????		21 0c	    hsdevice   =	$210C
     53  10000 ????		21 0d	    hsdifficulty =	$210D
     54  10000 ????		21 0e	    hserror    =	$210E
     55  10000 ????		21 0f	    hsgameslot =	$210F
     56  10000 ????		21 10	    hsnewscoreline =	$2110
     57  10000 ????		21 11	    hsnewscorerank =	$2111
     58  10000 ????		21 12	    HSRAMTable =	$2112	; to $212F (30 bytes) Format: III*5, SSS*5
     59  10000 ????		21 12	    HSRAMInitials =	$2112	; see above
     60  10000 ????		21 21	    HSRAMScores =	$2121	; see above
     61  10000 ????
     62  10000 ????		21 31	    sSWCHA     =	$2131
     63  10000 ????						; reserved	 = $2132
     64  10000 ????
     65  10000 ????		21 33	    hsdisplaymode =	$2133
     66  10000 ????		21 34	    gamedifficulty =	$2134
     67  10000 ????		21 35	    hsinitialpos =	$2135
     68  10000 ????		21 36	    hsinitialhold =	$2136
     69  10000 ????		21 37	    hscursorx  =	$2137
     70  10000 ????		21 38	    hsjoydebounce =	$2138
     71  10000 ????		21 39	    hsswcha    =	$2139
     72  10000 ????		21 3a	    hsinpt1    =	$213A
     73  10000 ????		21 3b	    hscolorchaseindex =	$213B
     74  10000 ????		21 3c	    visibleDLLstart =	$213C
     75  10000 ????		21 3d	    overscanDLLstart =	$213D
     76  10000 ????		21 3e	    frameslost =	$213E
     77  10000 ????		21 3f	    hsreturn   =	$213F
     78  10000 ????
     79  10000 ????
     80  10000 ????		00 40	    rand       =	$40
     81  10000 ????		00 41	    rand16     =	$41
     82  10000 ????		00 42	    temp1      =	$42
     83  10000 ????		00 43	    temp2      =	$43
     84  10000 ????		00 44	    temp3      =	$44
     85  10000 ????		00 45	    temp4      =	$45
     86  10000 ????		00 46	    temp5      =	$46
     87  10000 ????		00 47	    temp6      =	$47
     88  10000 ????		00 48	    temp7      =	$48
     89  10000 ????		00 49	    temp8      =	$49
     90  10000 ????		00 4a	    temp9      =	$4a
     91  10000 ????
     92  10000 ????		00 4b	    pokeybase  =	$4b
     93  10000 ????		00 4b	    pokeybaselo =	$4b
     94  10000 ????		00 4c	    pokeybasehi =	$4c
     95  10000 ????
     96  10000 ????		00 4d	    visibleover =	$4d
     97  10000 ????
     98  10000 ????		00 4e	    sfx1pointlo =	$4e
     99  10000 ????		00 4f	    sfx2pointlo =	$4f
    100  10000 ????		00 50	    sfx1pointhi =	$50
    101  10000 ????		00 51	    sfx2pointhi =	$51
    102  10000 ????
    103  10000 ????		00 52	    sfx1priority =	$52
    104  10000 ????		00 53	    sfx2priority =	$53
    105  10000 ????		00 54	    sfx1poffset =	$54
    106  10000 ????		00 55	    sfx2poffset =	$55
    107  10000 ????
    108  10000 ????		00 56	    sfx1frames =	$56
    109  10000 ????		00 57	    sfx2frames =	$57
    110  10000 ????		00 58	    sfx1tick   =	$58
    111  10000 ????		00 59	    sfx2tick   =	$59
    112  10000 ????
    113  10000 ????		00 5a	    tempmath   =	$5a
    114  10000 ????
    115  10000 ????		00 5b	    pokey1pointlo =	$5b
    116  10000 ????		00 5c	    pokey1pointhi =	$5c
    117  10000 ????		00 5d	    pokey2pointlo =	$5d
    118  10000 ????		00 5e	    pokey2pointhi =	$5e
    119  10000 ????		00 5f	    pokey3pointlo =	$5f
    120  10000 ????		00 60	    pokey3pointhi =	$60
    121  10000 ????		00 61	    pokey4pointlo =	$61
    122  10000 ????		00 62	    pokey4pointhi =	$62
    123  10000 ????
    124  10000 ????		00 63	    dlpnt      =	$63	; to $64
    125  10000 ????		00 65	    dlend      =	$65	; to $81 - for 29 possible visible dll entries
    126  10000 ????		00 82	    dlendsave  =	$82	; to $9e - for 29 possible visible dll entries
    127  10000 ????
    128  10000 ????		00 9f	    speech_addr =	$9f
    129  10000 ????		00 a0	    speech_addr_hi =	$a0
    130  10000 ????
    131  10000 ????		00 a1	    HSGameTableLo =	$a1
    132  10000 ????		00 a2	    HSGameTableHi =	$a2
    133  10000 ????		00 a3	    HSVoxHi    =	$a3
    134  10000 ????		00 a4	    HSVoxLo    =	$a4
    135  10000 ????
    136  10000 ????						;channel pointers
    137  10000 ????
    138  10000 ????		00 a5	    songchannel1layer1lo =	$a5
    139  10000 ????		00 a6	    songchannel2layer1lo =	$a6
    140  10000 ????		00 a7	    songchannel3layer1lo =	$a7
    141  10000 ????		00 a8	    songchannel4layer1lo =	$a8
    142  10000 ????
    143  10000 ????		00 a9	    songchannel1layer2lo =	$a9
    144  10000 ????		00 aa	    songchannel2layer2lo =	$aA
    145  10000 ????		00 ab	    songchannel3layer2lo =	$aB
    146  10000 ????		00 ac	    songchannel4layer2lo =	$aC
    147  10000 ????
    148  10000 ????		00 ad	    songchannel1layer3lo =	$aD
    149  10000 ????		00 ae	    songchannel2layer3lo =	$aE
    150  10000 ????		00 af	    songchannel3layer3lo =	$aF
    151  10000 ????		00 b0	    songchannel4layer3lo =	$b0
    152  10000 ????
    153  10000 ????		00 b1	    songchannel1layer1hi =	$b1
    154  10000 ????		00 b2	    songchannel2layer1hi =	$b2
    155  10000 ????		00 b3	    songchannel3layer1hi =	$b3
    156  10000 ????		00 b4	    songchannel4layer1hi =	$b4
    157  10000 ????
    158  10000 ????		00 b5	    songchannel1layer2hi =	$b5
    159  10000 ????		00 b6	    songchannel2layer2hi =	$b6
    160  10000 ????		00 b7	    songchannel3layer2hi =	$b7
    161  10000 ????		00 b8	    songchannel4layer2hi =	$b8
    162  10000 ????
    163  10000 ????		00 b9	    songchannel1layer3hi =	$b9
    164  10000 ????		00 ba	    songchannel2layer3hi =	$bA
    165  10000 ????		00 bb	    songchannel3layer3hi =	$bB
    166  10000 ????		00 bc	    songchannel4layer3hi =	$bC
    167  10000 ????
    168  10000 ????		00 bd	    songdatalo =	$bd
    169  10000 ????		00 be	    songdatahi =	$be
    170  10000 ????
    171  10000 ????		00 bf	    inactivechannelcount =	$bf
    172  10000 ????
    173  10000 ????		00 c0	    songchannel1transpose =	$c0
    174  10000 ????		00 c1	    songchannel2transpose =	$c1
    175  10000 ????		00 c2	    songchannel3transpose =	$c2
    176  10000 ????		00 c3	    songchannel4transpose =	$c3
    177  10000 ????
    178  10000 ????		00 c4	    songstackindex =	$c4
    179  10000 ????
    180  10000 ????		00 c5	    songchannel1instrumentlo =	$c5
    181  10000 ????		00 c6	    songchannel2instrumentlo =	$c6
    182  10000 ????		00 c7	    songchannel3instrumentlo =	$c7
    183  10000 ????		00 c8	    songchannel4instrumentlo =	$c8
    184  10000 ????
    185  10000 ????		00 c9	    songchannel1instrumenthi =	$c9
    186  10000 ????		00 ca	    songchannel2instrumenthi =	$ca
    187  10000 ????		00 cb	    songchannel3instrumenthi =	$cb
    188  10000 ????		00 cc	    songchannel4instrumenthi =	$cc
    189  10000 ????
    190  10000 ????		00 cd	    sfx1notedata =	$cd
    191  10000 ????		00 ce	    sfx2notedata =	$ce
    192  10000 ????
    193  10000 ????		00 cf	    songloops  =	$cf
    194  10000 ????
    195  10000 ????		00 d0	    songpointerlo =	$D0
    196  10000 ????		00 d1	    songpointerhi =	$D1
    197  10000 ????
    198  10000 ????		00 d2	    voxlock    =	$D2
    199  10000 ????		00 d3	    voxqueuesize =	$D3
    200  10000 ????
    201  10000 ????		00 d4	    vblankroutines =	$D4
    202  10000 ????
    203  10000 ????		00 d5	    doublebufferstate =	$D5
    204  10000 ????		00 d6	    doublebufferdloffset =	$D6
    205  10000 ????		00 d7	    doublebufferbufferdirty =	$D7
    206  10000 ????
    207  10000 ????		00 d8	    inttemp1   =	$D8
    208  10000 ????		00 d9	    inttemp2   =	$D9
    209  10000 ????		00 da	    inttemp3   =	$DA
    210  10000 ????		00 db	    inttemp4   =	$DB
    211  10000 ????		00 dc	    inttemp5   =	$DC
    212  10000 ????		00 dd	    inttemp6   =	$DD
    213  10000 ????
    214  10000 ????		00 de	    sfxschedulelock =	$DE
    215  10000 ????		00 df	    sfxschedulemissed =	$DF
    216  10000 ????		00 e0	    sfxinstrumentlo =	$E0
    217  10000 ????		00 e1	    sfxinstrumenthi =	$E1
    218  10000 ????		00 e2	    sfxpitchoffset =	$E2
    219  10000 ????		00 e3	    sfxnoteindex =	$E3
    220  10000 ????
    221  10000 ????						; reserved = $E4
    222  10000 ????						; reserved = $E5
    223  10000 ????
    224  10000 ????		00 e6	    A	       =	$e6
    225  10000 ????		00 e6	    a	       =	$e6
    226  10000 ????		00 e7	    B	       =	$e7
    227  10000 ????		00 e7	    b	       =	$e7
    228  10000 ????		00 e8	    C	       =	$e8
    229  10000 ????		00 e8	    c	       =	$e8
    230  10000 ????		00 e9	    D	       =	$e9
    231  10000 ????		00 e9	    d	       =	$e9
    232  10000 ????		00 ea	    E	       =	$ea
    233  10000 ????		00 ea	    e	       =	$ea
    234  10000 ????		00 eb	    F	       =	$eb
    235  10000 ????		00 eb	    f	       =	$eb
    236  10000 ????		00 ec	    G	       =	$ec
    237  10000 ????		00 ec	    g	       =	$ec
    238  10000 ????		00 ed	    H	       =	$ed
    239  10000 ????		00 ed	    h	       =	$ed
    240  10000 ????		00 ee	    I	       =	$ee
    241  10000 ????		00 ee	    i	       =	$ee
    242  10000 ????		00 ef	    J	       =	$ef
    243  10000 ????		00 ef	    j	       =	$ef
    244  10000 ????		00 f0	    K	       =	$f0
    245  10000 ????		00 f0	    k	       =	$f0
    246  10000 ????		00 f1	    L	       =	$f1
    247  10000 ????		00 f1	    l	       =	$f1
    248  10000 ????		00 f2	    M	       =	$f2
    249  10000 ????		00 f2	    m	       =	$f2
    250  10000 ????		00 f3	    N	       =	$f3
    251  10000 ????		00 f3	    n	       =	$f3
    252  10000 ????		00 f4	    O	       =	$f4
    253  10000 ????		00 f4	    o	       =	$f4
    254  10000 ????		00 f5	    P	       =	$f5
    255  10000 ????		00 f5	    p	       =	$f5
    256  10000 ????		00 f6	    Q	       =	$f6
    257  10000 ????		00 f6	    q	       =	$f6
    258  10000 ????		00 f7	    R	       =	$f7
    259  10000 ????		00 f7	    r	       =	$f7
    260  10000 ????		00 f8	    S	       =	$f8
    261  10000 ????		00 f8	    s	       =	$f8
    262  10000 ????		00 f9	    T	       =	$f9
    263  10000 ????		00 f9	    t	       =	$f9
    264  10000 ????		00 fa	    U	       =	$fa
    265  10000 ????		00 fa	    u	       =	$fa
    266  10000 ????		00 fb	    V	       =	$fb
    267  10000 ????		00 fb	    v	       =	$fb
    268  10000 ????		00 fc	    W	       =	$fc
    269  10000 ????		00 fc	    w	       =	$fc
    270  10000 ????		00 fd	    X	       =	$fd
    271  10000 ????		00 fd	    x	       =	$fd
    272  10000 ????		00 fe	    Y	       =	$fe
    273  10000 ????		00 fe	    y	       =	$fe
    274  10000 ????		00 ff	    Z	       =	$ff
    275  10000 ????		00 ff	    z	       =	$ff
    276  10000 ????
    277  10000 ????						; var0-var99 variables use the top of the stack
    278  10000 ????		01 40	    var0       =	$140
    279  10000 ????		01 41	    var1       =	$141
    280  10000 ????		01 42	    var2       =	$142
    281  10000 ????		01 43	    var3       =	$143
    282  10000 ????		01 44	    var4       =	$144
    283  10000 ????		01 45	    var5       =	$145
    284  10000 ????		01 46	    var6       =	$146
    285  10000 ????		01 47	    var7       =	$147
    286  10000 ????		01 48	    var8       =	$148
    287  10000 ????		01 49	    var9       =	$149
    288  10000 ????		01 4a	    var10      =	$14a
    289  10000 ????		01 4b	    var11      =	$14b
    290  10000 ????		01 4c	    var12      =	$14c
    291  10000 ????		01 4d	    var13      =	$14d
    292  10000 ????		01 4e	    var14      =	$14e
    293  10000 ????		01 4f	    var15      =	$14f
    294  10000 ????		01 50	    var16      =	$150
    295  10000 ????		01 51	    var17      =	$151
    296  10000 ????		01 52	    var18      =	$152
    297  10000 ????		01 53	    var19      =	$153
    298  10000 ????		01 54	    var20      =	$154
    299  10000 ????		01 55	    var21      =	$155
    300  10000 ????		01 56	    var22      =	$156
    301  10000 ????		01 57	    var23      =	$157
    302  10000 ????		01 58	    var24      =	$158
    303  10000 ????		01 59	    var25      =	$159
    304  10000 ????		01 5a	    var26      =	$15a
    305  10000 ????		01 5b	    var27      =	$15b
    306  10000 ????		01 5c	    var28      =	$15c
    307  10000 ????		01 5d	    var29      =	$15d
    308  10000 ????		01 5e	    var30      =	$15e
    309  10000 ????		01 5f	    var31      =	$15f
    310  10000 ????		01 60	    var32      =	$160
    311  10000 ????		01 61	    var33      =	$161
    312  10000 ????		01 62	    var34      =	$162
    313  10000 ????		01 63	    var35      =	$163
    314  10000 ????		01 64	    var36      =	$164
    315  10000 ????		01 65	    var37      =	$165
    316  10000 ????		01 66	    var38      =	$166
    317  10000 ????		01 67	    var39      =	$167
    318  10000 ????		01 68	    var40      =	$168
    319  10000 ????		01 69	    var41      =	$169
    320  10000 ????		01 6a	    var42      =	$16a
    321  10000 ????		01 6b	    var43      =	$16b
    322  10000 ????		01 6c	    var44      =	$16c
    323  10000 ????		01 6d	    var45      =	$16d
    324  10000 ????		01 6e	    var46      =	$16e
    325  10000 ????		01 6f	    var47      =	$16f
    326  10000 ????		01 70	    var48      =	$170
    327  10000 ????		01 71	    var49      =	$171
    328  10000 ????		01 72	    var50      =	$172
    329  10000 ????		01 73	    var51      =	$173
    330  10000 ????		01 74	    var52      =	$174
    331  10000 ????		01 75	    var53      =	$175
    332  10000 ????		01 76	    var54      =	$176
    333  10000 ????		01 77	    var55      =	$177
    334  10000 ????		01 78	    var56      =	$178
    335  10000 ????		01 79	    var57      =	$179
    336  10000 ????		01 7a	    var58      =	$17a
    337  10000 ????		01 7b	    var59      =	$17b
    338  10000 ????		01 7c	    var60      =	$17c
    339  10000 ????		01 7d	    var61      =	$17d
    340  10000 ????		01 7e	    var62      =	$17e
    341  10000 ????		01 7f	    var63      =	$17f
    342  10000 ????		01 80	    var64      =	$180
    343  10000 ????		01 81	    var65      =	$181
    344  10000 ????		01 82	    var66      =	$182
    345  10000 ????		01 83	    var67      =	$183
    346  10000 ????		01 84	    var68      =	$184
    347  10000 ????		01 85	    var69      =	$185
    348  10000 ????		01 86	    var70      =	$186
    349  10000 ????		01 87	    var71      =	$187
    350  10000 ????		01 88	    var72      =	$188
    351  10000 ????		01 89	    var73      =	$189
    352  10000 ????		01 8a	    var74      =	$18a
    353  10000 ????		01 8b	    var75      =	$18b
    354  10000 ????		01 8c	    var76      =	$18c
    355  10000 ????		01 8d	    var77      =	$18d
    356  10000 ????		01 8e	    var78      =	$18e
    357  10000 ????		01 8f	    var79      =	$18f
    358  10000 ????		01 90	    var80      =	$190
    359  10000 ????		01 91	    var81      =	$191
    360  10000 ????		01 92	    var82      =	$192
    361  10000 ????		01 93	    var83      =	$193
    362  10000 ????		01 94	    var84      =	$194
    363  10000 ????		01 95	    var85      =	$195
    364  10000 ????		01 96	    var86      =	$196
    365  10000 ????		01 97	    var87      =	$197
    366  10000 ????		01 98	    var88      =	$198
    367  10000 ????		01 99	    var89      =	$199
    368  10000 ????		01 9a	    var90      =	$19a
    369  10000 ????		01 9b	    var91      =	$19b
    370  10000 ????		01 9c	    var92      =	$19c
    371  10000 ????		01 9d	    var93      =	$19d
    372  10000 ????		01 9e	    var94      =	$19e
    373  10000 ????		01 9f	    var95      =	$19f
    374  10000 ????		01 a0	    var96      =	$1a0
    375  10000 ????		01 a1	    var97      =	$1a1
    376  10000 ????		01 a2	    var98      =	$1a2
    377  10000 ????		01 a3	    var99      =	$1a3
    378  10000 ????
    379 U01c3 ????				      SEG.U	"7800basicRAM"
    380 U01a4					      ORG	$1A4
    381 U01a4
    382 U01a4							; MAX allocation locations are in comments...
    383 U01a4		       00	   framecounter DS	1	; $1A4
    384 U01a5		       00	   countdownseconds DS	1	; $1A5
    385 U01a6		       00 00 00    score0     DS	3	; $1A6 $1A7 $1A8
    386 U01a9		       00 00 00    score1     DS	3	; $1A9 $1AA $1AB
    387 U01ac		       00	   pausebuttonflag DS	1	; $1AC
    388 U01ad		       00	   valbufend  DS	1	; $1AD
    389 U01ae		       00	   valbufendsave DS	1	; $1AE
    390 U01af		       00	   finescrollx DS	1	; $1AF
    391 U01b0		       00	   finescrolly DS	1	; $1B0
    392 U01b1		       00	   joybuttonmode DS	1	; $1B1 ; track joysticks that were changed to one-button mode
    393 U01b2		       00	   interruptindex DS	1	; $1B2
    394 U01b3
    395 U01b3				  -	      ifconst	DOUBLEBUFFER
    396 U01b3				  -doublebufferminimumframetarget DS	1	; $1B3
    397 U01b3				  -doublebufferminimumframeindex DS	1	; $1B4
    398 U01b3					      endif
    399 U01b3
    400 U01b3		       00	   pausedisable DS	1	; $1B5
    401 U01b4		       00	   XCTRL1s    DS	1	; $1B6
    402 U01b5
    403 U01b5				  -	      ifconst	AVOXVOICE
    404 U01b5				  -avoxenable DS	1	; $1B7
    405 U01b5				  -tempavox   DS	1	; $1B8
    406 U01b5					      endif
    407 U01b5
    408 U01b5				  -	      ifconst	MUSICTRACKER
    409 U01b5				  -songtempo  DS	1	; $1B9
    410 U01b5				  -songtick   DS	1	; $1BA
    411 U01b5				  -
    412 U01b5				  -songchannel1layer1loops DS	1	; $1BB
    413 U01b5				  -songchannel2layer1loops DS	1	; $1BC
    414 U01b5				  -songchannel3layer1loops DS	1	; $1BD
    415 U01b5				  -songchannel4layer1loops DS	1	; $1BE
    416 U01b5				  -
    417 U01b5				  -songchannel1layer2loops DS	1	; $1BF
    418 U01b5				  -songchannel2layer2loops DS	1	; $1C0
    419 U01b5				  -songchannel3layer2loops DS	1	; $1C1
    420 U01b5				  -songchannel4layer2loops DS	1	; $1C2
    421 U01b5				  -
    422 U01b5				  -songchannel1layer3loops DS	1	; $1C3
    423 U01b5				  -songchannel2layer3loops DS	1	; $1C4
    424 U01b5				  -songchannel3layer3loops DS	1	; $1C5
    425 U01b5				  -songchannel4layer3loops DS	1	; $1C6
    426 U01b5				  -
    427 U01b5				  -songchannel1busywait DS	1	; $1C7
    428 U01b5				  -songchannel2busywait DS	1	; $1C8
    429 U01b5				  -songchannel3busywait DS	1	; $1C9
    430 U01b5				  -songchannel4busywait DS	1	; $1CA
    431 U01b5				  -
    432 U01b5				  -songchannel1stackdepth DS	1	; $1CB
    433 U01b5				  -songchannel2stackdepth DS	1	; $1CC
    434 U01b5				  -songchannel3stackdepth DS	1	; $1CD
    435 U01b5				  -songchannel4stackdepth DS	1	; $1CE
    436 U01b5					      endif
    437 U01b5
    438 U01b5		       00	   palframes  DS	1
    439 U01b6		       00	   ntscslowframe DS	1
    440 U01b7		       00	   palfastframe DS	1
    441 U01b8
    442 U01b8				  -	      ifconst	MOUSESUPPORT
    443 U01b8				  -port0resolution DS	1
    444 U01b8				  -port1resolution DS	1
    445 U01b8					      else
    446 U01b8				  -	      ifconst	TRAKBALLSUPPORT
    447 U01b8				  -port0resolution DS	1
    448 U01b8				  -port1resolution DS	1
    449 U01b8					      endif
    450 U01b8					      endif
    451 U01b8
    452 U01b8		       00	   port0control DS	1
    453 U01b9		       00	   port1control DS	1
    454 U01ba
    455 U01ba							; port#control values...
    456 U01ba							;	1 = proline
    457 U01ba							;	2 = lightgun
    458 U01ba							;	3 = paddle
    459 U01ba							;	4 = trakball
    460 U01ba							;	5 = vcs joystick
    461 U01ba							;	6 = driving
    462 U01ba							;	7 = keypad
    463 U01ba							;	8 = st mouse/cx80
    464 U01ba							;	9 = amiga mouse
    465 U01ba							;     10 = atarivox
    466 U01ba
    467 U01ba							; controller 0 data...
    468 U01ba		       00	   paddleposition0 DS	1
    469 U01ba		       01 ba	   keypadmatrix0a =	paddleposition0
    470 U01ba		       01 ba	   drivingposition0 =	paddleposition0
    471 U01ba		       01 ba	   trakballx0 =	paddleposition0
    472 U01ba		       01 ba	   mousex0    =	paddleposition0
    473 U01ba		       01 ba	   lighttgunx0 =	paddleposition0
    474 U01ba		       01 ba	   snes2atari0lo =	paddleposition0
    475 U01ba		       01 ba	   mega7800data0 =	paddleposition0
    476 U01bb
    477 U01bb							; controller 1 data...
    478 U01bb		       00	   paddleposition2 DS	1
    479 U01bb		       01 bb	   keypadmatrix1a =	paddleposition2
    480 U01bb		       01 bb	   drivingposition1 =	paddleposition2
    481 U01bb		       01 bb	   trakballx1 =	paddleposition2
    482 U01bb		       01 bb	   mousex1    =	paddleposition2
    483 U01bb		       01 bb	   lightgunx1 =	paddleposition2
    484 U01bb		       01 bb	   snes2atari1lo =	paddleposition2
    485 U01bb		       01 bb	   mega7800data1 =	paddleposition2
    486 U01bc
    487 U01bc							; controller 0 altdata...
    488 U01bc		       00	   paddleposition1 DS	1
    489 U01bc		       01 bc	   keypadmatrix0b =	paddleposition1
    490 U01bc		       01 bc	   trakbally0 =	paddleposition1
    491 U01bc		       01 bc	   mousey0    =	paddleposition1
    492 U01bc		       01 bc	   lightguny0 =	paddleposition1
    493 U01bc		       01 bc	   snes2atari0hi =	paddleposition1
    494 U01bc		       01 bc	   mega7800state0 =	paddleposition1
    495 U01bd
    496 U01bd							; controller 1 altdata...
    497 U01bd		       00	   paddleposition3 DS	1
    498 U01bd		       01 bd	   keypadmatrix1b =	paddleposition3
    499 U01bd		       01 bd	   trakbally1 =	paddleposition3
    500 U01bd		       01 bd	   mousey1    =	paddleposition3
    501 U01bd		       01 bd	   lightguny1 =	paddleposition3
    502 U01bd		       01 bd	   snes2atari1hi =	paddleposition3
    503 U01bd		       01 bd	   mega7800state1 =	paddleposition3
    504 U01be
    505 U01be							; controller state save. for trakball state+dir codes, rotary position codes
    506 U01be		       00	   controller0statesave DS	1
    507 U01be		       01 be	   paddleprevious0 =	controller0statesave
    508 U01be		       01 be	   mousecodex0 =	controller0statesave
    509 U01be		       01 be	   trakballcodex0 =	controller0statesave
    510 U01be		       01 be	   keypadmatrix0c =	controller0statesave
    511 U01be		       01 be	   snesdetected0 =	controller0statesave
    512 U01bf
    513 U01bf		       00	   controller1statesave DS	1
    514 U01bf		       01 bf	   paddleprevious2 =	controller1statesave
    515 U01bf		       01 bf	   mousecodex1 =	controller1statesave
    516 U01bf		       01 bf	   trakballcodex1 =	controller1statesave
    517 U01bf		       01 bf	   keypadmatrix1c =	controller1statesave
    518 U01bf		       01 bf	   snesdetected1 =	controller1statesave
    519 U01c0
    520 U01c0		       00	   paddleprevious1 DS	1
    521 U01c0		       01 c0	   keypadmatrix0d =	paddleprevious1
    522 U01c0		       01 c0	   mousecodey0 =	paddleprevious1
    523 U01c0		       01 c0	   trakballcodey0 =	paddleprevious1
    524 U01c1
    525 U01c1		       00	   paddleprevious3 DS	1
    526 U01c1		       01 c1	   keypadmatrix1d =	paddleprevious3
    527 U01c1		       01 c1	   mousecodey1 =	paddleprevious3
    528 U01c1		       01 c1	   trakballcodey1 =	paddleprevious3
    529 U01c2
    530 U01c2				  -	      ifconst	pokeysupport
    531 U01c2				  -pokey1frames DS	1
    532 U01c2				  -pokey1tick DS	1
    533 U01c2				  -pokey2frames DS	1
    534 U01c2				  -pokey2tick DS	1
    535 U01c2				  -pokey3frames DS	1
    536 U01c2				  -pokey3tick DS	1
    537 U01c2				  -pokey4frames DS	1
    538 U01c2				  -pokey4tick DS	1
    539 U01c2				  -pokey1priority DS	1
    540 U01c2				  -pokey1offset DS	1
    541 U01c2				  -pokey2priority DS	1
    542 U01c2				  -pokey2offset DS	1
    543 U01c2				  -pokey3priority DS	1
    544 U01c2				  -pokey3offset DS	1
    545 U01c2				  -pokey4priority DS	1
    546 U01c2				  -pokey4offset DS	1
    547 U01c2					      endif
    548 U01c2
    549 U01c2				  -	      ifconst	pokeykeysupport
    550 U01c2				  -pokeylastkeycode DS	1
    551 U01c2				  -pokeykeycode DS	1
    552 U01c2				  -pokeykeydebounce DS	1
    553 U01c2					      endif
    554 U01c2
    555 U01c2				  -	      ifconst	RMT
    556 U01c2				  -rasterpause DS	1
    557 U01c2					      endif		; RMT
    558 U01c2				  -	      ifconst	RMTVOLUME
    559 U01c2				  -rmtvolume  DS	1
    560 U01c2					      endif		; RMTVOLUME
    561 U01c2				  -	      ifconst	TIAVOLUME
    562 U01c2				  -tiavolume  DS	1
    563 U01c2					      endif		; TIAVOLUME
    564 U01c2
    565 U01c2				  -	      ifconst	FOURBITFADE
    566 U01c2				  -fourbittemp1 DS	1
    567 U01c2				  -fourbitfadevalue DS	1
    568 U01c2				  -fourbittemp1int DS	1
    569 U01c2				  -fourbitfadevalueint DS	1
    570 U01c2					      endif		; FOURBITFADE
    571 U01c2
    572 U01c2				  -	      ifconst	SNES2ATARISUPPORT
    573 U01c2				  -snesport   DS	1
    574 U01c2					      endif		; SNES2ATARISUPPORT
    575 U01c2
    576 U01c2				  -	      ifconst	KEYPADSUPPORT
    577 U01c2				  -keypadcounter DS	1
    578 U01c2					      endif
    579 U01c2
    580 U01c2				  -	      ifconst	MULTIBUTTON
    581 U01c2				  -multibuttoncount0 DS	1
    582 U01c2				  -multibuttoncount1 DS	1
    583 U01c2					      endif
    584 U01c2
    585 U01c2							; see if we need an interrupthold byte...
    586 U01c2				   INTERRUPTNEEDED SET	0
    587 U01c2				  -	      ifconst	.topscreenroutine
    588 U01c2				  -INTERRUPTNEEDED SET	1
    589 U01c2					      endif
    590 U01c2				  -	      ifconst	.bottomscreenroutine
    591 U01c2				  -INTERRUPTNEEDED SET	1
    592 U01c2					      endif
    593 U01c2				  -	      ifconst	.userinterrupt
    594 U01c2				  -INTERRUPTNEEDED SET	1
    595 U01c2					      endif
    596 U01c2				  -	      if	INTERRUPTNEEDED = 1
    597 U01c2				  -interrupthold DS	1
    598 U01c2					      endif
    599 U01c2
    600 U01c2					      ifnconst	CANARYOFF
    601 U01c2		       00	   canary     DS	1
    602 U01c3					      endif
    603 U01c3
    604 U01c3					      ifnconst	bankswitchmode
   stack allowance: 30 nested subroutines.
    605 U01c3					      echo	"  stack allowance:",[($1FF - .)/2]d,"nested subroutines."
    606 U01c3				  -	      else
    607 U01c3				  -	      echo	"  stack allowance:",[($1FF - .)/3]d,"nested subroutines."
    608 U01c3					      endif
    609 U01c3					      ifnconst	CANARYOFF
   the canary is situated at: $1c2
    610 U01c3					      echo	"  the canary is situated at:",[canary]
    611 U01c3				  -	      else
    612 U01c3				  -	      echo	"  the canary is disabled."
    613 U01c3					      endif
    614 U01c3
    615 U01c3							; $1EE - $1FF reserved for stack
    616 U01c3
    617  10000 ????				       SEG	"GAME"
    618  10000 ????
------- FILE simple.bas.asm
------- FILE 7800_extravars.h LEVEL 2 PASS 3
      0  10000 ????				       include	"7800_extravars.h"
      1  10000 ????		22 00	    var100     =	$2200
      2  10000 ????		22 01	    var101     =	$2201
      3  10000 ????		22 02	    var102     =	$2202
      4  10000 ????		22 03	    var103     =	$2203
      5  10000 ????		22 04	    var104     =	$2204
      6  10000 ????		22 05	    var105     =	$2205
      7  10000 ????		22 06	    var106     =	$2206
      8  10000 ????		22 07	    var107     =	$2207
      9  10000 ????		22 08	    var108     =	$2208
     10  10000 ????		22 09	    var109     =	$2209
     11  10000 ????		22 0a	    var110     =	$220A
     12  10000 ????		22 0b	    var111     =	$220B
     13  10000 ????		22 0c	    var112     =	$220C
     14  10000 ????		22 0d	    var113     =	$220D
     15  10000 ????		22 0e	    var114     =	$220E
     16  10000 ????		22 0f	    var115     =	$220F
     17  10000 ????		22 10	    var116     =	$2210
     18  10000 ????		22 11	    var117     =	$2211
     19  10000 ????		22 12	    var118     =	$2212
     20  10000 ????		22 13	    var119     =	$2213
     21  10000 ????		22 14	    var120     =	$2214
     22  10000 ????		22 15	    var121     =	$2215
     23  10000 ????		22 16	    var122     =	$2216
     24  10000 ????		22 17	    var123     =	$2217
     25  10000 ????		22 18	    var124     =	$2218
     26  10000 ????		22 19	    var125     =	$2219
     27  10000 ????		22 1a	    var126     =	$221A
     28  10000 ????		22 1b	    var127     =	$221B
     29  10000 ????		22 1c	    var128     =	$221C
     30  10000 ????		22 1d	    var129     =	$221D
     31  10000 ????		22 1e	    var130     =	$221E
     32  10000 ????		22 1f	    var131     =	$221F
     33  10000 ????		22 20	    var132     =	$2220
     34  10000 ????		22 21	    var133     =	$2221
     35  10000 ????		22 22	    var134     =	$2222
     36  10000 ????		22 23	    var135     =	$2223
     37  10000 ????		22 24	    var136     =	$2224
     38  10000 ????		22 25	    var137     =	$2225
     39  10000 ????		22 26	    var138     =	$2226
     40  10000 ????		22 27	    var139     =	$2227
     41  10000 ????		22 28	    var140     =	$2228
     42  10000 ????		22 29	    var141     =	$2229
     43  10000 ????		22 2a	    var142     =	$222A
     44  10000 ????		22 2b	    var143     =	$222B
     45  10000 ????		22 2c	    var144     =	$222C
     46  10000 ????		22 2d	    var145     =	$222D
     47  10000 ????		22 2e	    var146     =	$222E
     48  10000 ????		22 2f	    var147     =	$222F
     49  10000 ????		22 30	    var148     =	$2230
     50  10000 ????		22 31	    var149     =	$2231
     51  10000 ????		22 32	    var150     =	$2232
     52  10000 ????		22 33	    var151     =	$2233
     53  10000 ????		22 34	    var152     =	$2234
     54  10000 ????		22 35	    var153     =	$2235
     55  10000 ????		22 36	    var154     =	$2236
     56  10000 ????		22 37	    var155     =	$2237
     57  10000 ????		22 38	    var156     =	$2238
     58  10000 ????		22 39	    var157     =	$2239
     59  10000 ????		22 3a	    var158     =	$223A
     60  10000 ????		22 3b	    var159     =	$223B
     61  10000 ????		22 3c	    var160     =	$223C
     62  10000 ????		22 3d	    var161     =	$223D
     63  10000 ????		22 3e	    var162     =	$223E
     64  10000 ????		22 3f	    var163     =	$223F
     65  10000 ????		22 40	    var164     =	$2240
     66  10000 ????		22 41	    var165     =	$2241
     67  10000 ????		22 42	    var166     =	$2242
     68  10000 ????		22 43	    var167     =	$2243
     69  10000 ????		22 44	    var168     =	$2244
     70  10000 ????		22 45	    var169     =	$2245
     71  10000 ????		22 46	    var170     =	$2246
     72  10000 ????		22 47	    var171     =	$2247
     73  10000 ????		22 48	    var172     =	$2248
     74  10000 ????		22 49	    var173     =	$2249
     75  10000 ????		22 4a	    var174     =	$224A
     76  10000 ????		22 4b	    var175     =	$224B
     77  10000 ????		22 4c	    var176     =	$224C
     78  10000 ????		22 4d	    var177     =	$224D
     79  10000 ????		22 4e	    var178     =	$224E
     80  10000 ????		22 4f	    var179     =	$224F
     81  10000 ????		22 50	    var180     =	$2250
     82  10000 ????		22 51	    var181     =	$2251
     83  10000 ????		22 52	    var182     =	$2252
     84  10000 ????		22 53	    var183     =	$2253
     85  10000 ????		22 54	    var184     =	$2254
     86  10000 ????		22 55	    var185     =	$2255
     87  10000 ????		22 56	    var186     =	$2256
     88  10000 ????		22 57	    var187     =	$2257
     89  10000 ????		22 58	    var188     =	$2258
     90  10000 ????		22 59	    var189     =	$2259
     91  10000 ????		22 5a	    var190     =	$225A
     92  10000 ????		22 5b	    var191     =	$225B
     93  10000 ????		22 5c	    var192     =	$225C
     94  10000 ????		22 5d	    var193     =	$225D
     95  10000 ????		22 5e	    var194     =	$225E
     96  10000 ????		22 5f	    var195     =	$225F
     97  10000 ????		22 60	    var196     =	$2260
     98  10000 ????		22 61	    var197     =	$2261
     99  10000 ????		22 62	    var198     =	$2262
    100  10000 ????		22 63	    var199     =	$2263
    101  10000 ????		22 64	    var200     =	$2264
    102  10000 ????		22 65	    var201     =	$2265
    103  10000 ????		22 66	    var202     =	$2266
    104  10000 ????		22 67	    var203     =	$2267
    105  10000 ????		22 68	    var204     =	$2268
    106  10000 ????		22 69	    var205     =	$2269
    107  10000 ????		22 6a	    var206     =	$226A
    108  10000 ????		22 6b	    var207     =	$226B
    109  10000 ????		22 6c	    var208     =	$226C
    110  10000 ????		22 6d	    var209     =	$226D
    111  10000 ????		22 6e	    var210     =	$226E
    112  10000 ????		22 6f	    var211     =	$226F
    113  10000 ????		22 70	    var212     =	$2270
    114  10000 ????		22 71	    var213     =	$2271
    115  10000 ????		22 72	    var214     =	$2272
    116  10000 ????		22 73	    var215     =	$2273
    117  10000 ????		22 74	    var216     =	$2274
    118  10000 ????		22 75	    var217     =	$2275
    119  10000 ????		22 76	    var218     =	$2276
    120  10000 ????		22 77	    var219     =	$2277
    121  10000 ????		22 78	    var220     =	$2278
    122  10000 ????		22 79	    var221     =	$2279
    123  10000 ????		22 7a	    var222     =	$227A
    124  10000 ????		22 7b	    var223     =	$227B
    125  10000 ????		22 7c	    var224     =	$227C
    126  10000 ????		22 7d	    var225     =	$227D
    127  10000 ????		22 7e	    var226     =	$227E
    128  10000 ????		22 7f	    var227     =	$227F
    129  10000 ????		22 80	    var228     =	$2280
    130  10000 ????		22 81	    var229     =	$2281
    131  10000 ????		22 82	    var230     =	$2282
    132  10000 ????		22 83	    var231     =	$2283
    133  10000 ????		22 84	    var232     =	$2284
    134  10000 ????		22 85	    var233     =	$2285
    135  10000 ????		22 86	    var234     =	$2286
    136  10000 ????		22 87	    var235     =	$2287
    137  10000 ????		22 88	    var236     =	$2288
    138  10000 ????		22 89	    var237     =	$2289
    139  10000 ????		22 8a	    var238     =	$228A
    140  10000 ????		22 8b	    var239     =	$228B
    141  10000 ????		22 8c	    var240     =	$228C
    142  10000 ????		22 8d	    var241     =	$228D
    143  10000 ????		22 8e	    var242     =	$228E
    144  10000 ????		22 8f	    var243     =	$228F
    145  10000 ????		22 90	    var244     =	$2290
    146  10000 ????		22 91	    var245     =	$2291
    147  10000 ????		22 92	    var246     =	$2292
    148  10000 ????		22 93	    var247     =	$2293
    149  10000 ????		22 94	    var248     =	$2294
    150  10000 ????		22 95	    var249     =	$2295
    151  10000 ????		22 96	    var250     =	$2296
    152  10000 ????		22 97	    var251     =	$2297
    153  10000 ????		22 98	    var252     =	$2298
    154  10000 ????		22 99	    var253     =	$2299
    155  10000 ????		22 9a	    var254     =	$229A
    156  10000 ????		22 9b	    var255     =	$229B
    157  10000 ????		22 9c	    var256     =	$229C
    158  10000 ????		22 9d	    var257     =	$229D
    159  10000 ????		22 9e	    var258     =	$229E
    160  10000 ????		22 9f	    var259     =	$229F
    161  10000 ????		22 a0	    var260     =	$22A0
    162  10000 ????		22 a1	    var261     =	$22A1
    163  10000 ????		22 a2	    var262     =	$22A2
    164  10000 ????		22 a3	    var263     =	$22A3
    165  10000 ????		22 a4	    var264     =	$22A4
    166  10000 ????		22 a5	    var265     =	$22A5
    167  10000 ????		22 a6	    var266     =	$22A6
    168  10000 ????		22 a7	    var267     =	$22A7
    169  10000 ????		22 a8	    var268     =	$22A8
    170  10000 ????		22 a9	    var269     =	$22A9
    171  10000 ????		22 aa	    var270     =	$22AA
    172  10000 ????		22 ab	    var271     =	$22AB
    173  10000 ????		22 ac	    var272     =	$22AC
    174  10000 ????		22 ad	    var273     =	$22AD
    175  10000 ????		22 ae	    var274     =	$22AE
    176  10000 ????		22 af	    var275     =	$22AF
    177  10000 ????		22 b0	    var276     =	$22B0
    178  10000 ????		22 b1	    var277     =	$22B1
    179  10000 ????		22 b2	    var278     =	$22B2
    180  10000 ????		22 b3	    var279     =	$22B3
    181  10000 ????		22 b4	    var280     =	$22B4
    182  10000 ????		22 b5	    var281     =	$22B5
    183  10000 ????		22 b6	    var282     =	$22B6
    184  10000 ????		22 b7	    var283     =	$22B7
    185  10000 ????		22 b8	    var284     =	$22B8
    186  10000 ????		22 b9	    var285     =	$22B9
    187  10000 ????		22 ba	    var286     =	$22BA
    188  10000 ????		22 bb	    var287     =	$22BB
    189  10000 ????		22 bc	    var288     =	$22BC
    190  10000 ????		22 bd	    var289     =	$22BD
    191  10000 ????		22 be	    var290     =	$22BE
    192  10000 ????		22 bf	    var291     =	$22BF
    193  10000 ????		22 c0	    var292     =	$22C0
    194  10000 ????		22 c1	    var293     =	$22C1
    195  10000 ????		22 c2	    var294     =	$22C2
    196  10000 ????		22 c3	    var295     =	$22C3
    197  10000 ????		22 c4	    var296     =	$22C4
    198  10000 ????		22 c5	    var297     =	$22C5
    199  10000 ????		22 c6	    var298     =	$22C6
    200  10000 ????		22 c7	    var299     =	$22C7
    201  10000 ????		22 c8	    var300     =	$22C8
    202  10000 ????		22 c9	    var301     =	$22C9
    203  10000 ????		22 ca	    var302     =	$22CA
    204  10000 ????		22 cb	    var303     =	$22CB
    205  10000 ????		22 cc	    var304     =	$22CC
    206  10000 ????		22 cd	    var305     =	$22CD
    207  10000 ????		22 ce	    var306     =	$22CE
    208  10000 ????		22 cf	    var307     =	$22CF
    209  10000 ????		22 d0	    var308     =	$22D0
    210  10000 ????		22 d1	    var309     =	$22D1
    211  10000 ????		22 d2	    var310     =	$22D2
    212  10000 ????		22 d3	    var311     =	$22D3
    213  10000 ????		22 d4	    var312     =	$22D4
    214  10000 ????		22 d5	    var313     =	$22D5
    215  10000 ????		22 d6	    var314     =	$22D6
    216  10000 ????		22 d7	    var315     =	$22D7
    217  10000 ????		22 d8	    var316     =	$22D8
    218  10000 ????		22 d9	    var317     =	$22D9
    219  10000 ????		22 da	    var318     =	$22DA
    220  10000 ????		22 db	    var319     =	$22DB
    221  10000 ????		22 dc	    var320     =	$22DC
    222  10000 ????		22 dd	    var321     =	$22DD
    223  10000 ????		22 de	    var322     =	$22DE
    224  10000 ????		22 df	    var323     =	$22DF
    225  10000 ????		22 e0	    var324     =	$22E0
    226  10000 ????		22 e1	    var325     =	$22E1
    227  10000 ????		22 e2	    var326     =	$22E2
    228  10000 ????		22 e3	    var327     =	$22E3
    229  10000 ????		22 e4	    var328     =	$22E4
    230  10000 ????		22 e5	    var329     =	$22E5
    231  10000 ????		22 e6	    var330     =	$22E6
    232  10000 ????		22 e7	    var331     =	$22E7
    233  10000 ????		22 e8	    var332     =	$22E8
    234  10000 ????		22 e9	    var333     =	$22E9
    235  10000 ????		22 ea	    var334     =	$22EA
    236  10000 ????		22 eb	    var335     =	$22EB
    237  10000 ????		22 ec	    var336     =	$22EC
    238  10000 ????		22 ed	    var337     =	$22ED
    239  10000 ????		22 ee	    var338     =	$22EE
    240  10000 ????		22 ef	    var339     =	$22EF
    241  10000 ????		22 f0	    var340     =	$22F0
    242  10000 ????		22 f1	    var341     =	$22F1
    243  10000 ????		22 f2	    var342     =	$22F2
    244  10000 ????		22 f3	    var343     =	$22F3
    245  10000 ????		22 f4	    var344     =	$22F4
    246  10000 ????		22 f5	    var345     =	$22F5
    247  10000 ????		22 f6	    var346     =	$22F6
    248  10000 ????		22 f7	    var347     =	$22F7
    249  10000 ????		22 f8	    var348     =	$22F8
    250  10000 ????		22 f9	    var349     =	$22F9
    251  10000 ????		22 fa	    var350     =	$22FA
    252  10000 ????		22 fb	    var351     =	$22FB
    253  10000 ????		22 fc	    var352     =	$22FC
    254  10000 ????		22 fd	    var353     =	$22FD
    255  10000 ????		22 fe	    var354     =	$22FE
    256  10000 ????		22 ff	    var355     =	$22FF
    257  10000 ????		23 00	    var356     =	$2300
    258  10000 ????		23 01	    var357     =	$2301
    259  10000 ????		23 02	    var358     =	$2302
    260  10000 ????		23 03	    var359     =	$2303
    261  10000 ????		23 04	    var360     =	$2304
    262  10000 ????		23 05	    var361     =	$2305
    263  10000 ????		23 06	    var362     =	$2306
    264  10000 ????		23 07	    var363     =	$2307
    265  10000 ????		23 08	    var364     =	$2308
    266  10000 ????		23 09	    var365     =	$2309
    267  10000 ????		23 0a	    var366     =	$230A
    268  10000 ????		23 0b	    var367     =	$230B
    269  10000 ????		23 0c	    var368     =	$230C
    270  10000 ????		23 0d	    var369     =	$230D
    271  10000 ????		23 0e	    var370     =	$230E
    272  10000 ????		23 0f	    var371     =	$230F
    273  10000 ????		23 10	    var372     =	$2310
    274  10000 ????		23 11	    var373     =	$2311
    275  10000 ????		23 12	    var374     =	$2312
    276  10000 ????		23 13	    var375     =	$2313
    277  10000 ????		23 14	    var376     =	$2314
    278  10000 ????		23 15	    var377     =	$2315
    279  10000 ????		23 16	    var378     =	$2316
    280  10000 ????		23 17	    var379     =	$2317
    281  10000 ????		23 18	    var380     =	$2318
    282  10000 ????		23 19	    var381     =	$2319
    283  10000 ????		23 1a	    var382     =	$231A
    284  10000 ????		23 1b	    var383     =	$231B
    285  10000 ????		23 1c	    var384     =	$231C
    286  10000 ????		23 1d	    var385     =	$231D
    287  10000 ????		23 1e	    var386     =	$231E
    288  10000 ????		23 1f	    var387     =	$231F
    289  10000 ????		23 20	    var388     =	$2320
    290  10000 ????		23 21	    var389     =	$2321
    291  10000 ????		23 22	    var390     =	$2322
    292  10000 ????		23 23	    var391     =	$2323
    293  10000 ????		23 24	    var392     =	$2324
    294  10000 ????		23 25	    var393     =	$2325
    295  10000 ????		23 26	    var394     =	$2326
    296  10000 ????		23 27	    var395     =	$2327
    297  10000 ????		23 28	    var396     =	$2328
    298  10000 ????		23 29	    var397     =	$2329
    299  10000 ????		23 2a	    var398     =	$232A
    300  10000 ????		23 2b	    var399     =	$232B
    301  10000 ????		23 2c	    var400     =	$232C
    302  10000 ????		23 2d	    var401     =	$232D
    303  10000 ????		23 2e	    var402     =	$232E
    304  10000 ????		23 2f	    var403     =	$232F
    305  10000 ????		23 30	    var404     =	$2330
    306  10000 ????		23 31	    var405     =	$2331
    307  10000 ????		23 32	    var406     =	$2332
    308  10000 ????		23 33	    var407     =	$2333
    309  10000 ????		23 34	    var408     =	$2334
    310  10000 ????		23 35	    var409     =	$2335
    311  10000 ????		23 36	    var410     =	$2336
    312  10000 ????		23 37	    var411     =	$2337
    313  10000 ????		23 38	    var412     =	$2338
    314  10000 ????		23 39	    var413     =	$2339
    315  10000 ????		23 3a	    var414     =	$233A
    316  10000 ????		23 3b	    var415     =	$233B
    317  10000 ????		23 3c	    var416     =	$233C
    318  10000 ????		23 3d	    var417     =	$233D
    319  10000 ????		23 3e	    var418     =	$233E
    320  10000 ????		23 3f	    var419     =	$233F
    321  10000 ????		23 40	    var420     =	$2340
    322  10000 ????		23 41	    var421     =	$2341
    323  10000 ????		23 42	    var422     =	$2342
    324  10000 ????		23 43	    var423     =	$2343
    325  10000 ????		23 44	    var424     =	$2344
    326  10000 ????		23 45	    var425     =	$2345
    327  10000 ????		23 46	    var426     =	$2346
    328  10000 ????		23 47	    var427     =	$2347
    329  10000 ????		23 48	    var428     =	$2348
    330  10000 ????		23 49	    var429     =	$2349
    331  10000 ????		23 4a	    var430     =	$234A
    332  10000 ????		23 4b	    var431     =	$234B
    333  10000 ????		23 4c	    var432     =	$234C
    334  10000 ????		23 4d	    var433     =	$234D
    335  10000 ????		23 4e	    var434     =	$234E
    336  10000 ????		23 4f	    var435     =	$234F
    337  10000 ????		23 50	    var436     =	$2350
    338  10000 ????		23 51	    var437     =	$2351
    339  10000 ????		23 52	    var438     =	$2352
    340  10000 ????		23 53	    var439     =	$2353
    341  10000 ????		23 54	    var440     =	$2354
    342  10000 ????		23 55	    var441     =	$2355
    343  10000 ????		23 56	    var442     =	$2356
    344  10000 ????		23 57	    var443     =	$2357
    345  10000 ????		23 58	    var444     =	$2358
    346  10000 ????		23 59	    var445     =	$2359
    347  10000 ????		23 5a	    var446     =	$235A
    348  10000 ????		23 5b	    var447     =	$235B
    349  10000 ????		23 5c	    var448     =	$235C
    350  10000 ????		23 5d	    var449     =	$235D
    351  10000 ????		23 5e	    var450     =	$235E
    352  10000 ????		23 5f	    var451     =	$235F
    353  10000 ????		23 60	    var452     =	$2360
    354  10000 ????		23 61	    var453     =	$2361
    355  10000 ????		23 62	    var454     =	$2362
    356  10000 ????		23 63	    var455     =	$2363
    357  10000 ????		23 64	    var456     =	$2364
    358  10000 ????		23 65	    var457     =	$2365
    359  10000 ????		23 66	    var458     =	$2366
    360  10000 ????		23 67	    var459     =	$2367
    361  10000 ????		23 68	    var460     =	$2368
    362  10000 ????		23 69	    var461     =	$2369
    363  10000 ????		23 6a	    var462     =	$236A
    364  10000 ????		23 6b	    var463     =	$236B
    365  10000 ????		23 6c	    var464     =	$236C
    366  10000 ????		23 6d	    var465     =	$236D
    367  10000 ????		23 6e	    var466     =	$236E
    368  10000 ????		23 6f	    var467     =	$236F
    369  10000 ????		23 70	    var468     =	$2370
    370  10000 ????		23 71	    var469     =	$2371
    371  10000 ????		23 72	    var470     =	$2372
    372  10000 ????		23 73	    var471     =	$2373
    373  10000 ????		23 74	    var472     =	$2374
    374  10000 ????		23 75	    var473     =	$2375
    375  10000 ????		23 76	    var474     =	$2376
    376  10000 ????		23 77	    var475     =	$2377
    377  10000 ????		23 78	    var476     =	$2378
    378  10000 ????		23 79	    var477     =	$2379
    379  10000 ????		23 7a	    var478     =	$237A
    380  10000 ????		23 7b	    var479     =	$237B
    381  10000 ????		23 7c	    var480     =	$237C
    382  10000 ????		23 7d	    var481     =	$237D
    383  10000 ????		23 7e	    var482     =	$237E
    384  10000 ????		23 7f	    var483     =	$237F
    385  10000 ????		23 80	    var484     =	$2380
    386  10000 ????		23 81	    var485     =	$2381
    387  10000 ????		23 82	    var486     =	$2382
    388  10000 ????		23 83	    var487     =	$2383
    389  10000 ????		23 84	    var488     =	$2384
    390  10000 ????		23 85	    var489     =	$2385
    391  10000 ????		23 86	    var490     =	$2386
    392  10000 ????		23 87	    var491     =	$2387
    393  10000 ????		23 88	    var492     =	$2388
    394  10000 ????		23 89	    var493     =	$2389
    395  10000 ????		23 8a	    var494     =	$238A
    396  10000 ????		23 8b	    var495     =	$238B
    397  10000 ????		23 8c	    var496     =	$238C
    398  10000 ????		23 8d	    var497     =	$238D
    399  10000 ????		23 8e	    var498     =	$238E
    400  10000 ????		23 8f	    var499     =	$238F
    401  10000 ????		23 90	    var500     =	$2390
    402  10000 ????		23 91	    var501     =	$2391
    403  10000 ????		23 92	    var502     =	$2392
    404  10000 ????		23 93	    var503     =	$2393
    405  10000 ????		23 94	    var504     =	$2394
    406  10000 ????		23 95	    var505     =	$2395
    407  10000 ????		23 96	    var506     =	$2396
    408  10000 ????		23 97	    var507     =	$2397
    409  10000 ????		23 98	    var508     =	$2398
    410  10000 ????		23 99	    var509     =	$2399
    411  10000 ????		23 9a	    var510     =	$239A
    412  10000 ????		23 9b	    var511     =	$239B
    413  10000 ????		23 9c	    var512     =	$239C
    414  10000 ????		23 9d	    var513     =	$239D
    415  10000 ????		23 9e	    var514     =	$239E
    416  10000 ????		23 9f	    var515     =	$239F
    417  10000 ????		23 a0	    var516     =	$23A0
    418  10000 ????		23 a1	    var517     =	$23A1
    419  10000 ????		23 a2	    var518     =	$23A2
    420  10000 ????		23 a3	    var519     =	$23A3
    421  10000 ????		23 a4	    var520     =	$23A4
    422  10000 ????		23 a5	    var521     =	$23A5
    423  10000 ????		23 a6	    var522     =	$23A6
    424  10000 ????		23 a7	    var523     =	$23A7
    425  10000 ????		23 a8	    var524     =	$23A8
    426  10000 ????		23 a9	    var525     =	$23A9
    427  10000 ????		23 aa	    var526     =	$23AA
    428  10000 ????		23 ab	    var527     =	$23AB
    429  10000 ????		23 ac	    var528     =	$23AC
    430  10000 ????		23 ad	    var529     =	$23AD
    431  10000 ????		23 ae	    var530     =	$23AE
    432  10000 ????		23 af	    var531     =	$23AF
    433  10000 ????		23 b0	    var532     =	$23B0
    434  10000 ????		23 b1	    var533     =	$23B1
    435  10000 ????		23 b2	    var534     =	$23B2
    436  10000 ????		23 b3	    var535     =	$23B3
    437  10000 ????		23 b4	    var536     =	$23B4
    438  10000 ????		23 b5	    var537     =	$23B5
    439  10000 ????		23 b6	    var538     =	$23B6
    440  10000 ????		23 b7	    var539     =	$23B7
    441  10000 ????		23 b8	    var540     =	$23B8
    442  10000 ????		23 b9	    var541     =	$23B9
    443  10000 ????		23 ba	    var542     =	$23BA
    444  10000 ????		23 bb	    var543     =	$23BB
    445  10000 ????		23 bc	    var544     =	$23BC
    446  10000 ????		23 bd	    var545     =	$23BD
    447  10000 ????		23 be	    var546     =	$23BE
    448  10000 ????		23 bf	    var547     =	$23BF
    449  10000 ????		23 c0	    var548     =	$23C0
    450  10000 ????		23 c1	    var549     =	$23C1
    451  10000 ????		23 c2	    var550     =	$23C2
    452  10000 ????		23 c3	    var551     =	$23C3
    453  10000 ????		23 c4	    var552     =	$23C4
    454  10000 ????		23 c5	    var553     =	$23C5
    455  10000 ????		23 c6	    var554     =	$23C6
    456  10000 ????		23 c7	    var555     =	$23C7
    457  10000 ????		23 c8	    var556     =	$23C8
    458  10000 ????		23 c9	    var557     =	$23C9
    459  10000 ????		23 ca	    var558     =	$23CA
    460  10000 ????		23 cb	    var559     =	$23CB
    461  10000 ????		23 cc	    var560     =	$23CC
    462  10000 ????		23 cd	    var561     =	$23CD
    463  10000 ????		23 ce	    var562     =	$23CE
    464  10000 ????		23 cf	    var563     =	$23CF
    465  10000 ????		23 d0	    var564     =	$23D0
    466  10000 ????		23 d1	    var565     =	$23D1
    467  10000 ????		23 d2	    var566     =	$23D2
    468  10000 ????		23 d3	    var567     =	$23D3
    469  10000 ????		23 d4	    var568     =	$23D4
    470  10000 ????		23 d5	    var569     =	$23D5
    471  10000 ????		23 d6	    var570     =	$23D6
    472  10000 ????		23 d7	    var571     =	$23D7
    473  10000 ????		23 d8	    var572     =	$23D8
    474  10000 ????		23 d9	    var573     =	$23D9
    475  10000 ????		23 da	    var574     =	$23DA
    476  10000 ????		23 db	    var575     =	$23DB
    477  10000 ????		23 dc	    var576     =	$23DC
    478  10000 ????		23 dd	    var577     =	$23DD
    479  10000 ????		23 de	    var578     =	$23DE
    480  10000 ????		23 df	    var579     =	$23DF
    481  10000 ????		23 e0	    var580     =	$23E0
    482  10000 ????		23 e1	    var581     =	$23E1
    483  10000 ????		23 e2	    var582     =	$23E2
    484  10000 ????		23 e3	    var583     =	$23E3
    485  10000 ????		23 e4	    var584     =	$23E4
    486  10000 ????		23 e5	    var585     =	$23E5
    487  10000 ????		23 e6	    var586     =	$23E6
    488  10000 ????		23 e7	    var587     =	$23E7
    489  10000 ????		23 e8	    var588     =	$23E8
    490  10000 ????		23 e9	    var589     =	$23E9
    491  10000 ????		23 ea	    var590     =	$23EA
    492  10000 ????		23 eb	    var591     =	$23EB
    493  10000 ????		23 ec	    var592     =	$23EC
    494  10000 ????		23 ed	    var593     =	$23ED
    495  10000 ????		23 ee	    var594     =	$23EE
    496  10000 ????		23 ef	    var595     =	$23EF
    497  10000 ????		23 f0	    var596     =	$23F0
    498  10000 ????		23 f1	    var597     =	$23F1
    499  10000 ????		23 f2	    var598     =	$23F2
    500  10000 ????		23 f3	    var599     =	$23F3
    501  10000 ????		23 f4	    var600     =	$23F4
    502  10000 ????		23 f5	    var601     =	$23F5
    503  10000 ????		23 f6	    var602     =	$23F6
    504  10000 ????		23 f7	    var603     =	$23F7
    505  10000 ????		23 f8	    var604     =	$23F8
    506  10000 ????		23 f9	    var605     =	$23F9
    507  10000 ????		23 fa	    var606     =	$23FA
    508  10000 ????		23 fb	    var607     =	$23FB
    509  10000 ????		23 fc	    var608     =	$23FC
    510  10000 ????		23 fd	    var609     =	$23FD
    511  10000 ????		23 fe	    var610     =	$23FE
    512  10000 ????		23 ff	    var611     =	$23FF
    513  10000 ????		24 00	    var612     =	$2400
    514  10000 ????		24 01	    var613     =	$2401
    515  10000 ????		24 02	    var614     =	$2402
    516  10000 ????		24 03	    var615     =	$2403
    517  10000 ????		24 04	    var616     =	$2404
    518  10000 ????		24 05	    var617     =	$2405
    519  10000 ????		24 06	    var618     =	$2406
    520  10000 ????		24 07	    var619     =	$2407
    521  10000 ????		24 08	    var620     =	$2408
    522  10000 ????		24 09	    var621     =	$2409
    523  10000 ????		24 0a	    var622     =	$240A
    524  10000 ????		24 0b	    var623     =	$240B
    525  10000 ????		24 0c	    var624     =	$240C
    526  10000 ????		24 0d	    var625     =	$240D
    527  10000 ????		24 0e	    var626     =	$240E
    528  10000 ????		24 0f	    var627     =	$240F
    529  10000 ????		24 10	    var628     =	$2410
    530  10000 ????		24 11	    var629     =	$2411
    531  10000 ????		24 12	    var630     =	$2412
    532  10000 ????		24 13	    var631     =	$2413
    533  10000 ????		24 14	    var632     =	$2414
    534  10000 ????		24 15	    var633     =	$2415
    535  10000 ????		24 16	    var634     =	$2416
    536  10000 ????		24 17	    var635     =	$2417
    537  10000 ????		24 18	    var636     =	$2418
    538  10000 ????		24 19	    var637     =	$2419
    539  10000 ????		24 1a	    var638     =	$241A
    540  10000 ????		24 1b	    var639     =	$241B
    541  10000 ????		24 1c	    var640     =	$241C
    542  10000 ????		24 1d	    var641     =	$241D
    543  10000 ????		24 1e	    var642     =	$241E
    544  10000 ????		24 1f	    var643     =	$241F
    545  10000 ????		24 20	    var644     =	$2420
    546  10000 ????		24 21	    var645     =	$2421
    547  10000 ????		24 22	    var646     =	$2422
    548  10000 ????		24 23	    var647     =	$2423
    549  10000 ????		24 24	    var648     =	$2424
    550  10000 ????		24 25	    var649     =	$2425
    551  10000 ????		24 26	    var650     =	$2426
    552  10000 ????		24 27	    var651     =	$2427
    553  10000 ????		24 28	    var652     =	$2428
    554  10000 ????		24 29	    var653     =	$2429
    555  10000 ????		24 2a	    var654     =	$242A
    556  10000 ????		24 2b	    var655     =	$242B
    557  10000 ????		24 2c	    var656     =	$242C
    558  10000 ????		24 2d	    var657     =	$242D
    559  10000 ????		24 2e	    var658     =	$242E
    560  10000 ????		24 2f	    var659     =	$242F
    561  10000 ????		24 30	    var660     =	$2430
    562  10000 ????		24 31	    var661     =	$2431
    563  10000 ????		24 32	    var662     =	$2432
    564  10000 ????		24 33	    var663     =	$2433
    565  10000 ????		24 34	    var664     =	$2434
    566  10000 ????		24 35	    var665     =	$2435
    567  10000 ????		24 36	    var666     =	$2436
    568  10000 ????		24 37	    var667     =	$2437
    569  10000 ????		24 38	    var668     =	$2438
    570  10000 ????		24 39	    var669     =	$2439
    571  10000 ????		24 3a	    var670     =	$243A
    572  10000 ????		24 3b	    var671     =	$243B
    573  10000 ????		24 3c	    var672     =	$243C
    574  10000 ????		24 3d	    var673     =	$243D
    575  10000 ????		24 3e	    var674     =	$243E
    576  10000 ????		24 3f	    var675     =	$243F
    577  10000 ????		24 40	    var676     =	$2440
    578  10000 ????		24 41	    var677     =	$2441
    579  10000 ????		24 42	    var678     =	$2442
    580  10000 ????		24 43	    var679     =	$2443
    581  10000 ????		24 44	    var680     =	$2444
    582  10000 ????		24 45	    var681     =	$2445
    583  10000 ????		24 46	    var682     =	$2446
    584  10000 ????		24 47	    var683     =	$2447
    585  10000 ????		24 48	    var684     =	$2448
    586  10000 ????		24 49	    var685     =	$2449
    587  10000 ????		24 4a	    var686     =	$244A
    588  10000 ????		24 4b	    var687     =	$244B
    589  10000 ????		24 4c	    var688     =	$244C
    590  10000 ????		24 4d	    var689     =	$244D
    591  10000 ????		24 4e	    var690     =	$244E
    592  10000 ????		24 4f	    var691     =	$244F
    593  10000 ????		24 50	    var692     =	$2450
    594  10000 ????		24 51	    var693     =	$2451
    595  10000 ????		24 52	    var694     =	$2452
    596  10000 ????		24 53	    var695     =	$2453
    597  10000 ????		24 54	    var696     =	$2454
    598  10000 ????		24 55	    var697     =	$2455
    599  10000 ????		24 56	    var698     =	$2456
    600  10000 ????		24 57	    var699     =	$2457
    601  10000 ????		24 58	    var700     =	$2458
    602  10000 ????		24 59	    var701     =	$2459
    603  10000 ????		24 5a	    var702     =	$245A
    604  10000 ????		24 5b	    var703     =	$245B
    605  10000 ????		24 5c	    var704     =	$245C
    606  10000 ????		24 5d	    var705     =	$245D
    607  10000 ????		24 5e	    var706     =	$245E
    608  10000 ????		24 5f	    var707     =	$245F
    609  10000 ????		24 60	    var708     =	$2460
    610  10000 ????		24 61	    var709     =	$2461
    611  10000 ????		24 62	    var710     =	$2462
    612  10000 ????		24 63	    var711     =	$2463
    613  10000 ????		24 64	    var712     =	$2464
    614  10000 ????		24 65	    var713     =	$2465
    615  10000 ????		24 66	    var714     =	$2466
    616  10000 ????		24 67	    var715     =	$2467
    617  10000 ????		24 68	    var716     =	$2468
    618  10000 ????		24 69	    var717     =	$2469
    619  10000 ????		24 6a	    var718     =	$246A
    620  10000 ????		24 6b	    var719     =	$246B
    621  10000 ????		24 6c	    var720     =	$246C
    622  10000 ????		24 6d	    var721     =	$246D
    623  10000 ????		24 6e	    var722     =	$246E
    624  10000 ????		24 6f	    var723     =	$246F
    625  10000 ????		24 70	    var724     =	$2470
    626  10000 ????		24 71	    var725     =	$2471
    627  10000 ????		24 72	    var726     =	$2472
    628  10000 ????		24 73	    var727     =	$2473
    629  10000 ????		24 74	    var728     =	$2474
    630  10000 ????		24 75	    var729     =	$2475
    631  10000 ????		24 76	    var730     =	$2476
    632  10000 ????		24 77	    var731     =	$2477
    633  10000 ????		24 78	    var732     =	$2478
    634  10000 ????		24 79	    var733     =	$2479
    635  10000 ????		24 7a	    var734     =	$247A
    636  10000 ????		24 7b	    var735     =	$247B
    637  10000 ????		24 7c	    var736     =	$247C
    638  10000 ????		24 7d	    var737     =	$247D
    639  10000 ????		24 7e	    var738     =	$247E
    640  10000 ????		24 7f	    var739     =	$247F
    641  10000 ????		24 80	    var740     =	$2480
    642  10000 ????		24 81	    var741     =	$2481
    643  10000 ????		24 82	    var742     =	$2482
    644  10000 ????		24 83	    var743     =	$2483
    645  10000 ????		24 84	    var744     =	$2484
    646  10000 ????		24 85	    var745     =	$2485
    647  10000 ????		24 86	    var746     =	$2486
    648  10000 ????		24 87	    var747     =	$2487
    649  10000 ????		24 88	    var748     =	$2488
    650  10000 ????		24 89	    var749     =	$2489
    651  10000 ????		24 8a	    var750     =	$248A
    652  10000 ????		24 8b	    var751     =	$248B
    653  10000 ????		24 8c	    var752     =	$248C
    654  10000 ????		24 8d	    var753     =	$248D
    655  10000 ????		24 8e	    var754     =	$248E
    656  10000 ????		24 8f	    var755     =	$248F
    657  10000 ????		24 90	    var756     =	$2490
    658  10000 ????		24 91	    var757     =	$2491
    659  10000 ????		24 92	    var758     =	$2492
    660  10000 ????		24 93	    var759     =	$2493
    661  10000 ????		24 94	    var760     =	$2494
    662  10000 ????		24 95	    var761     =	$2495
    663  10000 ????		24 96	    var762     =	$2496
    664  10000 ????		24 97	    var763     =	$2497
    665  10000 ????		24 98	    var764     =	$2498
    666  10000 ????		24 99	    var765     =	$2499
    667  10000 ????		24 9a	    var766     =	$249A
    668  10000 ????		24 9b	    var767     =	$249B
    669  10000 ????		24 9c	    var768     =	$249C
    670  10000 ????		24 9d	    var769     =	$249D
    671  10000 ????		24 9e	    var770     =	$249E
    672  10000 ????		24 9f	    var771     =	$249F
    673  10000 ????		24 a0	    var772     =	$24A0
    674  10000 ????		24 a1	    var773     =	$24A1
    675  10000 ????		24 a2	    var774     =	$24A2
    676  10000 ????		24 a3	    var775     =	$24A3
    677  10000 ????		24 a4	    var776     =	$24A4
    678  10000 ????		24 a5	    var777     =	$24A5
    679  10000 ????		24 a6	    var778     =	$24A6
    680  10000 ????		24 a7	    var779     =	$24A7
    681  10000 ????		24 a8	    var780     =	$24A8
    682  10000 ????		24 a9	    var781     =	$24A9
    683  10000 ????		24 aa	    var782     =	$24AA
    684  10000 ????		24 ab	    var783     =	$24AB
    685  10000 ????		24 ac	    var784     =	$24AC
    686  10000 ????		24 ad	    var785     =	$24AD
    687  10000 ????		24 ae	    var786     =	$24AE
    688  10000 ????		24 af	    var787     =	$24AF
    689  10000 ????		24 b0	    var788     =	$24B0
    690  10000 ????		24 b1	    var789     =	$24B1
    691  10000 ????		24 b2	    var790     =	$24B2
    692  10000 ????		24 b3	    var791     =	$24B3
    693  10000 ????		24 b4	    var792     =	$24B4
    694  10000 ????		24 b5	    var793     =	$24B5
    695  10000 ????		24 b6	    var794     =	$24B6
    696  10000 ????		24 b7	    var795     =	$24B7
    697  10000 ????		24 b8	    var796     =	$24B8
    698  10000 ????		24 b9	    var797     =	$24B9
    699  10000 ????		24 ba	    var798     =	$24BA
    700  10000 ????		24 bb	    var799     =	$24BB
    701  10000 ????		24 bc	    var800     =	$24BC
    702  10000 ????		24 bd	    var801     =	$24BD
    703  10000 ????		24 be	    var802     =	$24BE
    704  10000 ????		24 bf	    var803     =	$24BF
    705  10000 ????		24 c0	    var804     =	$24C0
    706  10000 ????		24 c1	    var805     =	$24C1
    707  10000 ????		24 c2	    var806     =	$24C2
    708  10000 ????		24 c3	    var807     =	$24C3
    709  10000 ????		24 c4	    var808     =	$24C4
    710  10000 ????		24 c5	    var809     =	$24C5
    711  10000 ????		24 c6	    var810     =	$24C6
    712  10000 ????		24 c7	    var811     =	$24C7
    713  10000 ????		24 c8	    var812     =	$24C8
    714  10000 ????		24 c9	    var813     =	$24C9
    715  10000 ????		24 ca	    var814     =	$24CA
    716  10000 ????		24 cb	    var815     =	$24CB
    717  10000 ????		24 cc	    var816     =	$24CC
    718  10000 ????		24 cd	    var817     =	$24CD
    719  10000 ????		24 ce	    var818     =	$24CE
    720  10000 ????		24 cf	    var819     =	$24CF
    721  10000 ????		24 d0	    var820     =	$24D0
    722  10000 ????		24 d1	    var821     =	$24D1
    723  10000 ????		24 d2	    var822     =	$24D2
    724  10000 ????		24 d3	    var823     =	$24D3
    725  10000 ????		24 d4	    var824     =	$24D4
    726  10000 ????		24 d5	    var825     =	$24D5
    727  10000 ????		24 d6	    var826     =	$24D6
    728  10000 ????		24 d7	    var827     =	$24D7
    729  10000 ????		24 d8	    var828     =	$24D8
    730  10000 ????		24 d9	    var829     =	$24D9
    731  10000 ????		24 da	    var830     =	$24DA
    732  10000 ????		24 db	    var831     =	$24DB
    733  10000 ????		24 dc	    var832     =	$24DC
    734  10000 ????		24 dd	    var833     =	$24DD
    735  10000 ????		24 de	    var834     =	$24DE
    736  10000 ????		24 df	    var835     =	$24DF
    737  10000 ????		24 e0	    var836     =	$24E0
    738  10000 ????		24 e1	    var837     =	$24E1
    739  10000 ????		24 e2	    var838     =	$24E2
    740  10000 ????		24 e3	    var839     =	$24E3
    741  10000 ????		24 e4	    var840     =	$24E4
    742  10000 ????		24 e5	    var841     =	$24E5
    743  10000 ????		24 e6	    var842     =	$24E6
    744  10000 ????		24 e7	    var843     =	$24E7
    745  10000 ????		24 e8	    var844     =	$24E8
    746  10000 ????		24 e9	    var845     =	$24E9
    747  10000 ????		24 ea	    var846     =	$24EA
    748  10000 ????		24 eb	    var847     =	$24EB
    749  10000 ????		24 ec	    var848     =	$24EC
    750  10000 ????		24 ed	    var849     =	$24ED
    751  10000 ????		24 ee	    var850     =	$24EE
    752  10000 ????		24 ef	    var851     =	$24EF
    753  10000 ????		24 f0	    var852     =	$24F0
    754  10000 ????		24 f1	    var853     =	$24F1
    755  10000 ????		24 f2	    var854     =	$24F2
    756  10000 ????		24 f3	    var855     =	$24F3
    757  10000 ????		24 f4	    var856     =	$24F4
    758  10000 ????		24 f5	    var857     =	$24F5
    759  10000 ????		24 f6	    var858     =	$24F6
    760  10000 ????		24 f7	    var859     =	$24F7
    761  10000 ????		24 f8	    var860     =	$24F8
    762  10000 ????		24 f9	    var861     =	$24F9
    763  10000 ????		24 fa	    var862     =	$24FA
    764  10000 ????		24 fb	    var863     =	$24FB
    765  10000 ????		24 fc	    var864     =	$24FC
    766  10000 ????		24 fd	    var865     =	$24FD
    767  10000 ????		24 fe	    var866     =	$24FE
    768  10000 ????		24 ff	    var867     =	$24FF
    769  10000 ????		25 00	    var868     =	$2500
    770  10000 ????		25 01	    var869     =	$2501
    771  10000 ????		25 02	    var870     =	$2502
    772  10000 ????		25 03	    var871     =	$2503
    773  10000 ????		25 04	    var872     =	$2504
    774  10000 ????		25 05	    var873     =	$2505
    775  10000 ????		25 06	    var874     =	$2506
    776  10000 ????		25 07	    var875     =	$2507
    777  10000 ????		25 08	    var876     =	$2508
    778  10000 ????		25 09	    var877     =	$2509
    779  10000 ????		25 0a	    var878     =	$250A
    780  10000 ????		25 0b	    var879     =	$250B
    781  10000 ????		25 0c	    var880     =	$250C
    782  10000 ????		25 0d	    var881     =	$250D
    783  10000 ????		25 0e	    var882     =	$250E
    784  10000 ????		25 0f	    var883     =	$250F
    785  10000 ????		25 10	    var884     =	$2510
    786  10000 ????		25 11	    var885     =	$2511
    787  10000 ????		25 12	    var886     =	$2512
    788  10000 ????		25 13	    var887     =	$2513
    789  10000 ????		25 14	    var888     =	$2514
    790  10000 ????		25 15	    var889     =	$2515
    791  10000 ????		25 16	    var890     =	$2516
    792  10000 ????		25 17	    var891     =	$2517
    793  10000 ????		25 18	    var892     =	$2518
    794  10000 ????		25 19	    var893     =	$2519
    795  10000 ????		25 1a	    var894     =	$251A
    796  10000 ????		25 1b	    var895     =	$251B
    797  10000 ????		25 1c	    var896     =	$251C
    798  10000 ????		25 1d	    var897     =	$251D
    799  10000 ????		25 1e	    var898     =	$251E
    800  10000 ????		25 1f	    var899     =	$251F
    801  10000 ????		25 20	    var900     =	$2520
    802  10000 ????		25 21	    var901     =	$2521
    803  10000 ????		25 22	    var902     =	$2522
    804  10000 ????		25 23	    var903     =	$2523
    805  10000 ????		25 24	    var904     =	$2524
    806  10000 ????		25 25	    var905     =	$2525
    807  10000 ????		25 26	    var906     =	$2526
    808  10000 ????		25 27	    var907     =	$2527
    809  10000 ????		25 28	    var908     =	$2528
    810  10000 ????		25 29	    var909     =	$2529
    811  10000 ????		25 2a	    var910     =	$252A
    812  10000 ????		25 2b	    var911     =	$252B
    813  10000 ????		25 2c	    var912     =	$252C
    814  10000 ????		25 2d	    var913     =	$252D
    815  10000 ????		25 2e	    var914     =	$252E
    816  10000 ????		25 2f	    var915     =	$252F
    817  10000 ????		25 30	    var916     =	$2530
    818  10000 ????		25 31	    var917     =	$2531
    819  10000 ????		25 32	    var918     =	$2532
    820  10000 ????		25 33	    var919     =	$2533
    821  10000 ????		25 34	    var920     =	$2534
    822  10000 ????		25 35	    var921     =	$2535
    823  10000 ????		25 36	    var922     =	$2536
    824  10000 ????		25 37	    var923     =	$2537
    825  10000 ????		25 38	    var924     =	$2538
    826  10000 ????		25 39	    var925     =	$2539
    827  10000 ????		25 3a	    var926     =	$253A
    828  10000 ????		25 3b	    var927     =	$253B
    829  10000 ????		25 3c	    var928     =	$253C
    830  10000 ????		25 3d	    var929     =	$253D
    831  10000 ????		25 3e	    var930     =	$253E
    832  10000 ????		25 3f	    var931     =	$253F
    833  10000 ????		25 40	    var932     =	$2540
    834  10000 ????		25 41	    var933     =	$2541
    835  10000 ????		25 42	    var934     =	$2542
    836  10000 ????		25 43	    var935     =	$2543
    837  10000 ????		25 44	    var936     =	$2544
    838  10000 ????		25 45	    var937     =	$2545
    839  10000 ????		25 46	    var938     =	$2546
    840  10000 ????		25 47	    var939     =	$2547
    841  10000 ????		25 48	    var940     =	$2548
    842  10000 ????		25 49	    var941     =	$2549
    843  10000 ????		25 4a	    var942     =	$254A
    844  10000 ????		25 4b	    var943     =	$254B
    845  10000 ????		25 4c	    var944     =	$254C
    846  10000 ????		25 4d	    var945     =	$254D
    847  10000 ????		25 4e	    var946     =	$254E
    848  10000 ????		25 4f	    var947     =	$254F
    849  10000 ????		25 50	    var948     =	$2550
    850  10000 ????		25 51	    var949     =	$2551
    851  10000 ????		25 52	    var950     =	$2552
    852  10000 ????		25 53	    var951     =	$2553
    853  10000 ????		25 54	    var952     =	$2554
    854  10000 ????		25 55	    var953     =	$2555
    855  10000 ????		25 56	    var954     =	$2556
    856  10000 ????		25 57	    var955     =	$2557
    857  10000 ????		25 58	    var956     =	$2558
    858  10000 ????		25 59	    var957     =	$2559
    859  10000 ????		25 5a	    var958     =	$255A
    860  10000 ????		25 5b	    var959     =	$255B
    861  10000 ????		25 5c	    var960     =	$255C
    862  10000 ????		25 5d	    var961     =	$255D
    863  10000 ????		25 5e	    var962     =	$255E
    864  10000 ????		25 5f	    var963     =	$255F
    865  10000 ????		25 60	    var964     =	$2560
    866  10000 ????		25 61	    var965     =	$2561
    867  10000 ????		25 62	    var966     =	$2562
    868  10000 ????		25 63	    var967     =	$2563
    869  10000 ????		25 64	    var968     =	$2564
    870  10000 ????		25 65	    var969     =	$2565
    871  10000 ????		25 66	    var970     =	$2566
    872  10000 ????		25 67	    var971     =	$2567
    873  10000 ????		25 68	    var972     =	$2568
    874  10000 ????		25 69	    var973     =	$2569
    875  10000 ????		25 6a	    var974     =	$256A
    876  10000 ????		25 6b	    var975     =	$256B
    877  10000 ????		25 6c	    var976     =	$256C
    878  10000 ????		25 6d	    var977     =	$256D
    879  10000 ????		25 6e	    var978     =	$256E
    880  10000 ????		25 6f	    var979     =	$256F
    881  10000 ????		25 70	    var980     =	$2570
    882  10000 ????		25 71	    var981     =	$2571
    883  10000 ????		25 72	    var982     =	$2572
    884  10000 ????		25 73	    var983     =	$2573
    885  10000 ????		25 74	    var984     =	$2574
    886  10000 ????		25 75	    var985     =	$2575
    887  10000 ????		25 76	    var986     =	$2576
    888  10000 ????		25 77	    var987     =	$2577
    889  10000 ????		25 78	    var988     =	$2578
    890  10000 ????		25 79	    var989     =	$2579
    891  10000 ????		25 7a	    var990     =	$257A
    892  10000 ????		25 7b	    var991     =	$257B
    893  10000 ????		25 7c	    var992     =	$257C
    894  10000 ????		25 7d	    var993     =	$257D
    895  10000 ????		25 7e	    var994     =	$257E
    896  10000 ????		25 7f	    var995     =	$257F
    897  10000 ????		25 80	    var996     =	$2580
    898  10000 ????		25 81	    var997     =	$2581
    899  10000 ????		25 82	    var998     =	$2582
    900  10000 ????		25 83	    var999     =	$2583
    901  10000 ????		25 84	    var1000    =	$2584
    902  10000 ????		25 85	    var1001    =	$2585
    903  10000 ????		25 86	    var1002    =	$2586
    904  10000 ????		25 87	    var1003    =	$2587
    905  10000 ????		25 88	    var1004    =	$2588
    906  10000 ????		25 89	    var1005    =	$2589
    907  10000 ????		25 8a	    var1006    =	$258A
    908  10000 ????		25 8b	    var1007    =	$258B
    909  10000 ????		25 8c	    var1008    =	$258C
    910  10000 ????		25 8d	    var1009    =	$258D
    911  10000 ????		25 8e	    var1010    =	$258E
    912  10000 ????		25 8f	    var1011    =	$258F
    913  10000 ????		25 90	    var1012    =	$2590
    914  10000 ????		25 91	    var1013    =	$2591
    915  10000 ????		25 92	    var1014    =	$2592
    916  10000 ????		25 93	    var1015    =	$2593
    917  10000 ????		25 94	    var1016    =	$2594
    918  10000 ????		25 95	    var1017    =	$2595
    919  10000 ????		25 96	    var1018    =	$2596
    920  10000 ????		25 97	    var1019    =	$2597
    921  10000 ????		25 98	    var1020    =	$2598
    922  10000 ????		25 99	    var1021    =	$2599
    923  10000 ????		25 9a	    var1022    =	$259A
    924  10000 ????		25 9b	    var1023    =	$259B
    925  10000 ????		25 9c	    var1024    =	$259C
    926  10000 ????		25 9d	    var1025    =	$259D
    927  10000 ????		25 9e	    var1026    =	$259E
    928  10000 ????		25 9f	    var1027    =	$259F
    929  10000 ????		25 a0	    var1028    =	$25A0
    930  10000 ????		25 a1	    var1029    =	$25A1
    931  10000 ????		25 a2	    var1030    =	$25A2
    932  10000 ????		25 a3	    var1031    =	$25A3
    933  10000 ????		25 a4	    var1032    =	$25A4
    934  10000 ????		25 a5	    var1033    =	$25A5
    935  10000 ????		25 a6	    var1034    =	$25A6
    936  10000 ????		25 a7	    var1035    =	$25A7
    937  10000 ????		25 a8	    var1036    =	$25A8
    938  10000 ????		25 a9	    var1037    =	$25A9
    939  10000 ????		25 aa	    var1038    =	$25AA
    940  10000 ????		25 ab	    var1039    =	$25AB
    941  10000 ????		25 ac	    var1040    =	$25AC
    942  10000 ????		25 ad	    var1041    =	$25AD
    943  10000 ????		25 ae	    var1042    =	$25AE
    944  10000 ????		25 af	    var1043    =	$25AF
    945  10000 ????		25 b0	    var1044    =	$25B0
    946  10000 ????		25 b1	    var1045    =	$25B1
    947  10000 ????		25 b2	    var1046    =	$25B2
    948  10000 ????		25 b3	    var1047    =	$25B3
    949  10000 ????		25 b4	    var1048    =	$25B4
    950  10000 ????		25 b5	    var1049    =	$25B5
    951  10000 ????		25 b6	    var1050    =	$25B6
    952  10000 ????		25 b7	    var1051    =	$25B7
    953  10000 ????		25 b8	    var1052    =	$25B8
    954  10000 ????		25 b9	    var1053    =	$25B9
    955  10000 ????		25 ba	    var1054    =	$25BA
    956  10000 ????		25 bb	    var1055    =	$25BB
    957  10000 ????		25 bc	    var1056    =	$25BC
    958  10000 ????		25 bd	    var1057    =	$25BD
    959  10000 ????		25 be	    var1058    =	$25BE
    960  10000 ????		25 bf	    var1059    =	$25BF
    961  10000 ????		25 c0	    var1060    =	$25C0
    962  10000 ????		25 c1	    var1061    =	$25C1
    963  10000 ????		25 c2	    var1062    =	$25C2
    964  10000 ????		25 c3	    var1063    =	$25C3
    965  10000 ????		25 c4	    var1064    =	$25C4
    966  10000 ????		25 c5	    var1065    =	$25C5
    967  10000 ????		25 c6	    var1066    =	$25C6
    968  10000 ????		25 c7	    var1067    =	$25C7
    969  10000 ????		25 c8	    var1068    =	$25C8
    970  10000 ????		25 c9	    var1069    =	$25C9
    971  10000 ????		25 ca	    var1070    =	$25CA
    972  10000 ????		25 cb	    var1071    =	$25CB
    973  10000 ????		25 cc	    var1072    =	$25CC
    974  10000 ????		25 cd	    var1073    =	$25CD
    975  10000 ????		25 ce	    var1074    =	$25CE
    976  10000 ????		25 cf	    var1075    =	$25CF
    977  10000 ????		25 d0	    var1076    =	$25D0
    978  10000 ????		25 d1	    var1077    =	$25D1
    979  10000 ????		25 d2	    var1078    =	$25D2
    980  10000 ????		25 d3	    var1079    =	$25D3
    981  10000 ????		25 d4	    var1080    =	$25D4
    982  10000 ????		25 d5	    var1081    =	$25D5
    983  10000 ????		25 d6	    var1082    =	$25D6
    984  10000 ????		25 d7	    var1083    =	$25D7
    985  10000 ????		25 d8	    var1084    =	$25D8
    986  10000 ????		25 d9	    var1085    =	$25D9
    987  10000 ????		25 da	    var1086    =	$25DA
    988  10000 ????		25 db	    var1087    =	$25DB
    989  10000 ????		25 dc	    var1088    =	$25DC
    990  10000 ????		25 dd	    var1089    =	$25DD
    991  10000 ????		25 de	    var1090    =	$25DE
    992  10000 ????		25 df	    var1091    =	$25DF
    993  10000 ????		25 e0	    var1092    =	$25E0
    994  10000 ????		25 e1	    var1093    =	$25E1
    995  10000 ????		25 e2	    var1094    =	$25E2
    996  10000 ????		25 e3	    var1095    =	$25E3
    997  10000 ????		25 e4	    var1096    =	$25E4
    998  10000 ????		25 e5	    var1097    =	$25E5
    999  10000 ????		25 e6	    var1098    =	$25E6
   1000  10000 ????		25 e7	    var1099    =	$25E7
   1001  10000 ????		25 e8	    var1100    =	$25E8
   1002  10000 ????		25 e9	    var1101    =	$25E9
   1003  10000 ????		25 ea	    var1102    =	$25EA
   1004  10000 ????		25 eb	    var1103    =	$25EB
   1005  10000 ????		25 ec	    var1104    =	$25EC
   1006  10000 ????		25 ed	    var1105    =	$25ED
   1007  10000 ????		25 ee	    var1106    =	$25EE
   1008  10000 ????		25 ef	    var1107    =	$25EF
   1009  10000 ????		25 f0	    var1108    =	$25F0
   1010  10000 ????		25 f1	    var1109    =	$25F1
   1011  10000 ????		25 f2	    var1110    =	$25F2
   1012  10000 ????		25 f3	    var1111    =	$25F3
   1013  10000 ????		25 f4	    var1112    =	$25F4
   1014  10000 ????		25 f5	    var1113    =	$25F5
   1015  10000 ????		25 f6	    var1114    =	$25F6
   1016  10000 ????		25 f7	    var1115    =	$25F7
   1017  10000 ????		25 f8	    var1116    =	$25F8
   1018  10000 ????		25 f9	    var1117    =	$25F9
   1019  10000 ????		25 fa	    var1118    =	$25FA
   1020  10000 ????		25 fb	    var1119    =	$25FB
   1021  10000 ????		25 fc	    var1120    =	$25FC
   1022  10000 ????		25 fd	    var1121    =	$25FD
   1023  10000 ????		25 fe	    var1122    =	$25FE
   1024  10000 ????		25 ff	    var1123    =	$25FF
   1025  10000 ????		26 00	    var1124    =	$2600
   1026  10000 ????		26 01	    var1125    =	$2601
   1027  10000 ????		26 02	    var1126    =	$2602
   1028  10000 ????		26 03	    var1127    =	$2603
   1029  10000 ????		26 04	    var1128    =	$2604
   1030  10000 ????		26 05	    var1129    =	$2605
   1031  10000 ????		26 06	    var1130    =	$2606
   1032  10000 ????		26 07	    var1131    =	$2607
   1033  10000 ????		26 08	    var1132    =	$2608
   1034  10000 ????		26 09	    var1133    =	$2609
   1035  10000 ????		26 0a	    var1134    =	$260A
   1036  10000 ????		26 0b	    var1135    =	$260B
   1037  10000 ????		26 0c	    var1136    =	$260C
   1038  10000 ????		26 0d	    var1137    =	$260D
   1039  10000 ????		26 0e	    var1138    =	$260E
   1040  10000 ????		26 0f	    var1139    =	$260F
   1041  10000 ????		26 10	    var1140    =	$2610
   1042  10000 ????		26 11	    var1141    =	$2611
   1043  10000 ????		26 12	    var1142    =	$2612
   1044  10000 ????		26 13	    var1143    =	$2613
   1045  10000 ????		26 14	    var1144    =	$2614
   1046  10000 ????		26 15	    var1145    =	$2615
   1047  10000 ????		26 16	    var1146    =	$2616
   1048  10000 ????		26 17	    var1147    =	$2617
   1049  10000 ????		26 18	    var1148    =	$2618
   1050  10000 ????		26 19	    var1149    =	$2619
   1051  10000 ????		26 1a	    var1150    =	$261A
   1052  10000 ????		26 1b	    var1151    =	$261B
   1053  10000 ????		26 1c	    var1152    =	$261C
   1054  10000 ????		26 1d	    var1153    =	$261D
   1055  10000 ????		26 1e	    var1154    =	$261E
   1056  10000 ????		26 1f	    var1155    =	$261F
   1057  10000 ????		26 20	    var1156    =	$2620
   1058  10000 ????		26 21	    var1157    =	$2621
   1059  10000 ????		26 22	    var1158    =	$2622
   1060  10000 ????		26 23	    var1159    =	$2623
   1061  10000 ????		26 24	    var1160    =	$2624
   1062  10000 ????		26 25	    var1161    =	$2625
   1063  10000 ????		26 26	    var1162    =	$2626
   1064  10000 ????		26 27	    var1163    =	$2627
   1065  10000 ????		26 28	    var1164    =	$2628
   1066  10000 ????		26 29	    var1165    =	$2629
   1067  10000 ????		26 2a	    var1166    =	$262A
   1068  10000 ????		26 2b	    var1167    =	$262B
   1069  10000 ????		26 2c	    var1168    =	$262C
   1070  10000 ????		26 2d	    var1169    =	$262D
   1071  10000 ????		26 2e	    var1170    =	$262E
   1072  10000 ????		26 2f	    var1171    =	$262F
   1073  10000 ????		26 30	    var1172    =	$2630
   1074  10000 ????		26 31	    var1173    =	$2631
   1075  10000 ????		26 32	    var1174    =	$2632
   1076  10000 ????		26 33	    var1175    =	$2633
   1077  10000 ????		26 34	    var1176    =	$2634
   1078  10000 ????		26 35	    var1177    =	$2635
   1079  10000 ????		26 36	    var1178    =	$2636
   1080  10000 ????		26 37	    var1179    =	$2637
   1081  10000 ????		26 38	    var1180    =	$2638
   1082  10000 ????		26 39	    var1181    =	$2639
   1083  10000 ????		26 3a	    var1182    =	$263A
   1084  10000 ????		26 3b	    var1183    =	$263B
   1085  10000 ????		26 3c	    var1184    =	$263C
   1086  10000 ????		26 3d	    var1185    =	$263D
   1087  10000 ????		26 3e	    var1186    =	$263E
   1088  10000 ????		26 3f	    var1187    =	$263F
   1089  10000 ????		26 40	    var1188    =	$2640
   1090  10000 ????		26 41	    var1189    =	$2641
   1091  10000 ????		26 42	    var1190    =	$2642
   1092  10000 ????		26 43	    var1191    =	$2643
   1093  10000 ????		26 44	    var1192    =	$2644
   1094  10000 ????		26 45	    var1193    =	$2645
   1095  10000 ????		26 46	    var1194    =	$2646
   1096  10000 ????		26 47	    var1195    =	$2647
   1097  10000 ????		26 48	    var1196    =	$2648
   1098  10000 ????		26 49	    var1197    =	$2649
   1099  10000 ????		26 4a	    var1198    =	$264A
   1100  10000 ????		26 4b	    var1199    =	$264B
   1101  10000 ????		26 4c	    var1200    =	$264C
   1102  10000 ????		26 4d	    var1201    =	$264D
   1103  10000 ????		26 4e	    var1202    =	$264E
   1104  10000 ????		26 4f	    var1203    =	$264F
   1105  10000 ????		26 50	    var1204    =	$2650
   1106  10000 ????		26 51	    var1205    =	$2651
   1107  10000 ????		26 52	    var1206    =	$2652
   1108  10000 ????		26 53	    var1207    =	$2653
   1109  10000 ????		26 54	    var1208    =	$2654
   1110  10000 ????		26 55	    var1209    =	$2655
   1111  10000 ????		26 56	    var1210    =	$2656
   1112  10000 ????		26 57	    var1211    =	$2657
   1113  10000 ????		26 58	    var1212    =	$2658
   1114  10000 ????		26 59	    var1213    =	$2659
   1115  10000 ????		26 5a	    var1214    =	$265A
   1116  10000 ????		26 5b	    var1215    =	$265B
   1117  10000 ????		26 5c	    var1216    =	$265C
   1118  10000 ????		26 5d	    var1217    =	$265D
   1119  10000 ????		26 5e	    var1218    =	$265E
   1120  10000 ????		26 5f	    var1219    =	$265F
   1121  10000 ????		26 60	    var1220    =	$2660
   1122  10000 ????		26 61	    var1221    =	$2661
   1123  10000 ????		26 62	    var1222    =	$2662
   1124  10000 ????		26 63	    var1223    =	$2663
   1125  10000 ????		26 64	    var1224    =	$2664
   1126  10000 ????		26 65	    var1225    =	$2665
   1127  10000 ????		26 66	    var1226    =	$2666
   1128  10000 ????		26 67	    var1227    =	$2667
   1129  10000 ????		26 68	    var1228    =	$2668
   1130  10000 ????		26 69	    var1229    =	$2669
   1131  10000 ????		26 6a	    var1230    =	$266A
   1132  10000 ????		26 6b	    var1231    =	$266B
   1133  10000 ????		26 6c	    var1232    =	$266C
   1134  10000 ????		26 6d	    var1233    =	$266D
   1135  10000 ????		26 6e	    var1234    =	$266E
   1136  10000 ????		26 6f	    var1235    =	$266F
   1137  10000 ????		26 70	    var1236    =	$2670
   1138  10000 ????		26 71	    var1237    =	$2671
   1139  10000 ????		26 72	    var1238    =	$2672
   1140  10000 ????		26 73	    var1239    =	$2673
   1141  10000 ????		26 74	    var1240    =	$2674
   1142  10000 ????		26 75	    var1241    =	$2675
   1143  10000 ????		26 76	    var1242    =	$2676
   1144  10000 ????		26 77	    var1243    =	$2677
   1145  10000 ????		26 78	    var1244    =	$2678
   1146  10000 ????		26 79	    var1245    =	$2679
   1147  10000 ????		26 7a	    var1246    =	$267A
   1148  10000 ????		26 7b	    var1247    =	$267B
   1149  10000 ????		26 7c	    var1248    =	$267C
   1150  10000 ????		26 7d	    var1249    =	$267D
   1151  10000 ????		26 7e	    var1250    =	$267E
   1152  10000 ????		26 7f	    var1251    =	$267F
   1153  10000 ????		26 80	    var1252    =	$2680
   1154  10000 ????		26 81	    var1253    =	$2681
   1155  10000 ????		26 82	    var1254    =	$2682
   1156  10000 ????		26 83	    var1255    =	$2683
   1157  10000 ????		26 84	    var1256    =	$2684
   1158  10000 ????		26 85	    var1257    =	$2685
   1159  10000 ????		26 86	    var1258    =	$2686
   1160  10000 ????		26 87	    var1259    =	$2687
   1161  10000 ????		26 88	    var1260    =	$2688
   1162  10000 ????		26 89	    var1261    =	$2689
   1163  10000 ????		26 8a	    var1262    =	$268A
   1164  10000 ????		26 8b	    var1263    =	$268B
   1165  10000 ????		26 8c	    var1264    =	$268C
   1166  10000 ????		26 8d	    var1265    =	$268D
   1167  10000 ????		26 8e	    var1266    =	$268E
   1168  10000 ????		26 8f	    var1267    =	$268F
   1169  10000 ????		26 90	    var1268    =	$2690
   1170  10000 ????		26 91	    var1269    =	$2691
   1171  10000 ????		26 92	    var1270    =	$2692
   1172  10000 ????		26 93	    var1271    =	$2693
   1173  10000 ????		26 94	    var1272    =	$2694
   1174  10000 ????		26 95	    var1273    =	$2695
   1175  10000 ????		26 96	    var1274    =	$2696
   1176  10000 ????		26 97	    var1275    =	$2697
   1177  10000 ????		26 98	    var1276    =	$2698
   1178  10000 ????		26 99	    var1277    =	$2699
   1179  10000 ????		26 9a	    var1278    =	$269A
   1180  10000 ????		26 9b	    var1279    =	$269B
   1181  10000 ????		26 9c	    var1280    =	$269C
   1182  10000 ????		26 9d	    var1281    =	$269D
   1183  10000 ????		26 9e	    var1282    =	$269E
   1184  10000 ????		26 9f	    var1283    =	$269F
   1185  10000 ????		26 a0	    var1284    =	$26A0
   1186  10000 ????		26 a1	    var1285    =	$26A1
   1187  10000 ????		26 a2	    var1286    =	$26A2
   1188  10000 ????		26 a3	    var1287    =	$26A3
   1189  10000 ????		26 a4	    var1288    =	$26A4
   1190  10000 ????		26 a5	    var1289    =	$26A5
   1191  10000 ????		26 a6	    var1290    =	$26A6
   1192  10000 ????		26 a7	    var1291    =	$26A7
   1193  10000 ????		26 a8	    var1292    =	$26A8
   1194  10000 ????		26 a9	    var1293    =	$26A9
   1195  10000 ????		26 aa	    var1294    =	$26AA
   1196  10000 ????		26 ab	    var1295    =	$26AB
   1197  10000 ????		26 ac	    var1296    =	$26AC
   1198  10000 ????		26 ad	    var1297    =	$26AD
   1199  10000 ????		26 ae	    var1298    =	$26AE
   1200  10000 ????		26 af	    var1299    =	$26AF
   1201  10000 ????		26 b0	    var1300    =	$26B0
   1202  10000 ????		26 b1	    var1301    =	$26B1
   1203  10000 ????		26 b2	    var1302    =	$26B2
   1204  10000 ????		26 b3	    var1303    =	$26B3
   1205  10000 ????		26 b4	    var1304    =	$26B4
   1206  10000 ????		26 b5	    var1305    =	$26B5
   1207  10000 ????		26 b6	    var1306    =	$26B6
   1208  10000 ????		26 b7	    var1307    =	$26B7
   1209  10000 ????		26 b8	    var1308    =	$26B8
   1210  10000 ????		26 b9	    var1309    =	$26B9
   1211  10000 ????		26 ba	    var1310    =	$26BA
   1212  10000 ????		26 bb	    var1311    =	$26BB
   1213  10000 ????		26 bc	    var1312    =	$26BC
   1214  10000 ????		26 bd	    var1313    =	$26BD
   1215  10000 ????		26 be	    var1314    =	$26BE
   1216  10000 ????		26 bf	    var1315    =	$26BF
   1217  10000 ????		26 c0	    var1316    =	$26C0
   1218  10000 ????		26 c1	    var1317    =	$26C1
   1219  10000 ????		26 c2	    var1318    =	$26C2
   1220  10000 ????		26 c3	    var1319    =	$26C3
   1221  10000 ????		26 c4	    var1320    =	$26C4
   1222  10000 ????		26 c5	    var1321    =	$26C5
   1223  10000 ????		26 c6	    var1322    =	$26C6
   1224  10000 ????		26 c7	    var1323    =	$26C7
   1225  10000 ????		26 c8	    var1324    =	$26C8
   1226  10000 ????		26 c9	    var1325    =	$26C9
   1227  10000 ????		26 ca	    var1326    =	$26CA
   1228  10000 ????		26 cb	    var1327    =	$26CB
   1229  10000 ????		26 cc	    var1328    =	$26CC
   1230  10000 ????		26 cd	    var1329    =	$26CD
   1231  10000 ????		26 ce	    var1330    =	$26CE
   1232  10000 ????		26 cf	    var1331    =	$26CF
   1233  10000 ????		26 d0	    var1332    =	$26D0
   1234  10000 ????		26 d1	    var1333    =	$26D1
   1235  10000 ????		26 d2	    var1334    =	$26D2
   1236  10000 ????		26 d3	    var1335    =	$26D3
   1237  10000 ????		26 d4	    var1336    =	$26D4
   1238  10000 ????		26 d5	    var1337    =	$26D5
   1239  10000 ????		26 d6	    var1338    =	$26D6
   1240  10000 ????		26 d7	    var1339    =	$26D7
   1241  10000 ????		26 d8	    var1340    =	$26D8
   1242  10000 ????		26 d9	    var1341    =	$26D9
   1243  10000 ????		26 da	    var1342    =	$26DA
   1244  10000 ????		26 db	    var1343    =	$26DB
   1245  10000 ????		26 dc	    var1344    =	$26DC
   1246  10000 ????		26 dd	    var1345    =	$26DD
   1247  10000 ????		26 de	    var1346    =	$26DE
   1248  10000 ????		26 df	    var1347    =	$26DF
   1249  10000 ????		26 e0	    var1348    =	$26E0
   1250  10000 ????		26 e1	    var1349    =	$26E1
   1251  10000 ????		26 e2	    var1350    =	$26E2
   1252  10000 ????		26 e3	    var1351    =	$26E3
   1253  10000 ????		26 e4	    var1352    =	$26E4
   1254  10000 ????		26 e5	    var1353    =	$26E5
   1255  10000 ????		26 e6	    var1354    =	$26E6
   1256  10000 ????		26 e7	    var1355    =	$26E7
   1257  10000 ????		26 e8	    var1356    =	$26E8
   1258  10000 ????		26 e9	    var1357    =	$26E9
   1259  10000 ????		26 ea	    var1358    =	$26EA
   1260  10000 ????		26 eb	    var1359    =	$26EB
   1261  10000 ????		26 ec	    var1360    =	$26EC
   1262  10000 ????		26 ed	    var1361    =	$26ED
   1263  10000 ????		26 ee	    var1362    =	$26EE
   1264  10000 ????		26 ef	    var1363    =	$26EF
   1265  10000 ????		26 f0	    var1364    =	$26F0
   1266  10000 ????		26 f1	    var1365    =	$26F1
   1267  10000 ????		26 f2	    var1366    =	$26F2
   1268  10000 ????		26 f3	    var1367    =	$26F3
   1269  10000 ????		26 f4	    var1368    =	$26F4
   1270  10000 ????		26 f5	    var1369    =	$26F5
   1271  10000 ????		26 f6	    var1370    =	$26F6
   1272  10000 ????		26 f7	    var1371    =	$26F7
   1273  10000 ????		26 f8	    var1372    =	$26F8
   1274  10000 ????		26 f9	    var1373    =	$26F9
   1275  10000 ????		26 fa	    var1374    =	$26FA
   1276  10000 ????		26 fb	    var1375    =	$26FB
   1277  10000 ????		26 fc	    var1376    =	$26FC
   1278  10000 ????		26 fd	    var1377    =	$26FD
   1279  10000 ????		26 fe	    var1378    =	$26FE
   1280  10000 ????		26 ff	    var1379    =	$26FF
   1281  10000 ????		27 00	    var1380    =	$2700
   1282  10000 ????		27 01	    var1381    =	$2701
   1283  10000 ????		27 02	    var1382    =	$2702
   1284  10000 ????		27 03	    var1383    =	$2703
   1285  10000 ????		27 04	    var1384    =	$2704
   1286  10000 ????		27 05	    var1385    =	$2705
   1287  10000 ????		27 06	    var1386    =	$2706
   1288  10000 ????		27 07	    var1387    =	$2707
   1289  10000 ????		27 08	    var1388    =	$2708
   1290  10000 ????		27 09	    var1389    =	$2709
   1291  10000 ????		27 0a	    var1390    =	$270A
   1292  10000 ????		27 0b	    var1391    =	$270B
   1293  10000 ????		27 0c	    var1392    =	$270C
   1294  10000 ????		27 0d	    var1393    =	$270D
   1295  10000 ????		27 0e	    var1394    =	$270E
   1296  10000 ????		27 0f	    var1395    =	$270F
   1297  10000 ????		27 10	    var1396    =	$2710
   1298  10000 ????		27 11	    var1397    =	$2711
   1299  10000 ????		27 12	    var1398    =	$2712
   1300  10000 ????		27 13	    var1399    =	$2713
   1301  10000 ????		27 14	    var1400    =	$2714
   1302  10000 ????		27 15	    var1401    =	$2715
   1303  10000 ????		27 16	    var1402    =	$2716
   1304  10000 ????		27 17	    var1403    =	$2717
   1305  10000 ????		27 18	    var1404    =	$2718
   1306  10000 ????		27 19	    var1405    =	$2719
   1307  10000 ????		27 1a	    var1406    =	$271A
   1308  10000 ????		27 1b	    var1407    =	$271B
   1309  10000 ????		27 1c	    var1408    =	$271C
   1310  10000 ????		27 1d	    var1409    =	$271D
   1311  10000 ????		27 1e	    var1410    =	$271E
   1312  10000 ????		27 1f	    var1411    =	$271F
   1313  10000 ????		27 20	    var1412    =	$2720
   1314  10000 ????		27 21	    var1413    =	$2721
   1315  10000 ????		27 22	    var1414    =	$2722
   1316  10000 ????		27 23	    var1415    =	$2723
   1317  10000 ????		27 24	    var1416    =	$2724
   1318  10000 ????		27 25	    var1417    =	$2725
   1319  10000 ????		27 26	    var1418    =	$2726
   1320  10000 ????		27 27	    var1419    =	$2727
   1321  10000 ????		27 28	    var1420    =	$2728
   1322  10000 ????		27 29	    var1421    =	$2729
   1323  10000 ????		27 2a	    var1422    =	$272A
   1324  10000 ????		27 2b	    var1423    =	$272B
   1325  10000 ????		27 2c	    var1424    =	$272C
   1326  10000 ????		27 2d	    var1425    =	$272D
   1327  10000 ????		27 2e	    var1426    =	$272E
   1328  10000 ????		27 2f	    var1427    =	$272F
   1329  10000 ????		27 30	    var1428    =	$2730
   1330  10000 ????		27 31	    var1429    =	$2731
   1331  10000 ????		27 32	    var1430    =	$2732
   1332  10000 ????		27 33	    var1431    =	$2733
   1333  10000 ????		27 34	    var1432    =	$2734
   1334  10000 ????		27 35	    var1433    =	$2735
   1335  10000 ????		27 36	    var1434    =	$2736
   1336  10000 ????		27 37	    var1435    =	$2737
   1337  10000 ????		27 38	    var1436    =	$2738
   1338  10000 ????		27 39	    var1437    =	$2739
   1339  10000 ????		27 3a	    var1438    =	$273A
   1340  10000 ????		27 3b	    var1439    =	$273B
   1341  10000 ????		27 3c	    var1440    =	$273C
   1342  10000 ????		27 3d	    var1441    =	$273D
   1343  10000 ????		27 3e	    var1442    =	$273E
   1344  10000 ????		27 3f	    var1443    =	$273F
   1345  10000 ????		27 40	    var1444    =	$2740
   1346  10000 ????		27 41	    var1445    =	$2741
   1347  10000 ????		27 42	    var1446    =	$2742
   1348  10000 ????		27 43	    var1447    =	$2743
   1349  10000 ????		27 44	    var1448    =	$2744
   1350  10000 ????		27 45	    var1449    =	$2745
   1351  10000 ????		27 46	    var1450    =	$2746
   1352  10000 ????		27 47	    var1451    =	$2747
   1353  10000 ????		27 48	    var1452    =	$2748
   1354  10000 ????		27 49	    var1453    =	$2749
   1355  10000 ????		27 4a	    var1454    =	$274A
   1356  10000 ????		27 4b	    var1455    =	$274B
   1357  10000 ????		27 4c	    var1456    =	$274C
   1358  10000 ????		27 4d	    var1457    =	$274D
   1359  10000 ????		27 4e	    var1458    =	$274E
   1360  10000 ????		27 4f	    var1459    =	$274F
   1361  10000 ????		27 50	    var1460    =	$2750
   1362  10000 ????		27 51	    var1461    =	$2751
   1363  10000 ????		27 52	    var1462    =	$2752
   1364  10000 ????		27 53	    var1463    =	$2753
   1365  10000 ????		27 54	    var1464    =	$2754
   1366  10000 ????		27 55	    var1465    =	$2755
   1367  10000 ????		27 56	    var1466    =	$2756
   1368  10000 ????		27 57	    var1467    =	$2757
   1369  10000 ????		27 58	    var1468    =	$2758
   1370  10000 ????		27 59	    var1469    =	$2759
   1371  10000 ????		27 5a	    var1470    =	$275A
   1372  10000 ????		27 5b	    var1471    =	$275B
   1373  10000 ????		27 5c	    var1472    =	$275C
   1374  10000 ????		27 5d	    var1473    =	$275D
   1375  10000 ????		27 5e	    var1474    =	$275E
   1376  10000 ????		27 5f	    var1475    =	$275F
   1377  10000 ????		27 60	    var1476    =	$2760
   1378  10000 ????		27 61	    var1477    =	$2761
   1379  10000 ????		27 62	    var1478    =	$2762
   1380  10000 ????		27 63	    var1479    =	$2763
   1381  10000 ????		27 64	    var1480    =	$2764
   1382  10000 ????		27 65	    var1481    =	$2765
   1383  10000 ????		27 66	    var1482    =	$2766
   1384  10000 ????		27 67	    var1483    =	$2767
   1385  10000 ????		27 68	    var1484    =	$2768
   1386  10000 ????		27 69	    var1485    =	$2769
   1387  10000 ????		27 6a	    var1486    =	$276A
   1388  10000 ????		27 6b	    var1487    =	$276B
   1389  10000 ????		27 6c	    var1488    =	$276C
   1390  10000 ????		27 6d	    var1489    =	$276D
   1391  10000 ????		27 6e	    var1490    =	$276E
   1392  10000 ????		27 6f	    var1491    =	$276F
   1393  10000 ????		27 70	    var1492    =	$2770
   1394  10000 ????		27 71	    var1493    =	$2771
   1395  10000 ????		27 72	    var1494    =	$2772
   1396  10000 ????		27 73	    var1495    =	$2773
   1397  10000 ????		27 74	    var1496    =	$2774
   1398  10000 ????		27 75	    var1497    =	$2775
   1399  10000 ????		27 76	    var1498    =	$2776
   1400  10000 ????		27 77	    var1499    =	$2777
   1401  10000 ????		27 78	    var1500    =	$2778
   1402  10000 ????		27 79	    var1501    =	$2779
   1403  10000 ????		27 7a	    var1502    =	$277A
   1404  10000 ????		27 7b	    var1503    =	$277B
   1405  10000 ????		27 7c	    var1504    =	$277C
   1406  10000 ????		27 7d	    var1505    =	$277D
   1407  10000 ????		27 7e	    var1506    =	$277E
   1408  10000 ????		27 7f	    var1507    =	$277F
   1409  10000 ????		27 80	    var1508    =	$2780
   1410  10000 ????		27 81	    var1509    =	$2781
   1411  10000 ????		27 82	    var1510    =	$2782
   1412  10000 ????		27 83	    var1511    =	$2783
   1413  10000 ????		27 84	    var1512    =	$2784
   1414  10000 ????		27 85	    var1513    =	$2785
   1415  10000 ????		27 86	    var1514    =	$2786
   1416  10000 ????		27 87	    var1515    =	$2787
   1417  10000 ????		27 88	    var1516    =	$2788
   1418  10000 ????		27 89	    var1517    =	$2789
   1419  10000 ????		27 8a	    var1518    =	$278A
   1420  10000 ????		27 8b	    var1519    =	$278B
   1421  10000 ????		27 8c	    var1520    =	$278C
   1422  10000 ????		27 8d	    var1521    =	$278D
   1423  10000 ????		27 8e	    var1522    =	$278E
   1424  10000 ????		27 8f	    var1523    =	$278F
   1425  10000 ????		27 90	    var1524    =	$2790
   1426  10000 ????		27 91	    var1525    =	$2791
   1427  10000 ????		27 92	    var1526    =	$2792
   1428  10000 ????		27 93	    var1527    =	$2793
   1429  10000 ????		27 94	    var1528    =	$2794
   1430  10000 ????		27 95	    var1529    =	$2795
   1431  10000 ????		27 96	    var1530    =	$2796
   1432  10000 ????		27 97	    var1531    =	$2797
   1433  10000 ????		27 98	    var1532    =	$2798
   1434  10000 ????		27 99	    var1533    =	$2799
   1435  10000 ????		27 9a	    var1534    =	$279A
   1436  10000 ????		27 9b	    var1535    =	$279B
   1437  10000 ????		27 9c	    var1536    =	$279C
   1438  10000 ????		27 9d	    var1537    =	$279D
   1439  10000 ????		27 9e	    var1538    =	$279E
   1440  10000 ????		27 9f	    var1539    =	$279F
   1441  10000 ????		27 a0	    var1540    =	$27A0
   1442  10000 ????		27 a1	    var1541    =	$27A1
   1443  10000 ????		27 a2	    var1542    =	$27A2
   1444  10000 ????		27 a3	    var1543    =	$27A3
   1445  10000 ????		27 a4	    var1544    =	$27A4
   1446  10000 ????		27 a5	    var1545    =	$27A5
   1447  10000 ????		27 a6	    var1546    =	$27A6
   1448  10000 ????		27 a7	    var1547    =	$27A7
   1449  10000 ????		27 a8	    var1548    =	$27A8
   1450  10000 ????		27 a9	    var1549    =	$27A9
   1451  10000 ????		27 aa	    var1550    =	$27AA
   1452  10000 ????		27 ab	    var1551    =	$27AB
   1453  10000 ????		27 ac	    var1552    =	$27AC
   1454  10000 ????		27 ad	    var1553    =	$27AD
   1455  10000 ????		27 ae	    var1554    =	$27AE
   1456  10000 ????		27 af	    var1555    =	$27AF
   1457  10000 ????		27 b0	    var1556    =	$27B0
   1458  10000 ????		27 b1	    var1557    =	$27B1
   1459  10000 ????		27 b2	    var1558    =	$27B2
   1460  10000 ????		27 b3	    var1559    =	$27B3
   1461  10000 ????		27 b4	    var1560    =	$27B4
   1462  10000 ????		27 b5	    var1561    =	$27B5
   1463  10000 ????		27 b6	    var1562    =	$27B6
   1464  10000 ????		27 b7	    var1563    =	$27B7
   1465  10000 ????		27 b8	    var1564    =	$27B8
   1466  10000 ????		27 b9	    var1565    =	$27B9
   1467  10000 ????		27 ba	    var1566    =	$27BA
   1468  10000 ????		27 bb	    var1567    =	$27BB
   1469  10000 ????		27 bc	    var1568    =	$27BC
   1470  10000 ????		27 bd	    var1569    =	$27BD
   1471  10000 ????		27 be	    var1570    =	$27BE
   1472  10000 ????		27 bf	    var1571    =	$27BF
   1473  10000 ????		27 c0	    var1572    =	$27C0
   1474  10000 ????		27 c1	    var1573    =	$27C1
   1475  10000 ????		27 c2	    var1574    =	$27C2
   1476  10000 ????		27 c3	    var1575    =	$27C3
   1477  10000 ????		27 c4	    var1576    =	$27C4
   1478  10000 ????		27 c5	    var1577    =	$27C5
   1479  10000 ????		27 c6	    var1578    =	$27C6
   1480  10000 ????		27 c7	    var1579    =	$27C7
   1481  10000 ????		27 c8	    var1580    =	$27C8
   1482  10000 ????		27 c9	    var1581    =	$27C9
   1483  10000 ????		27 ca	    var1582    =	$27CA
   1484  10000 ????		27 cb	    var1583    =	$27CB
   1485  10000 ????		27 cc	    var1584    =	$27CC
   1486  10000 ????		27 cd	    var1585    =	$27CD
   1487  10000 ????		27 ce	    var1586    =	$27CE
   1488  10000 ????		27 cf	    var1587    =	$27CF
   1489  10000 ????		27 d0	    var1588    =	$27D0
   1490  10000 ????		27 d1	    var1589    =	$27D1
   1491  10000 ????		27 d2	    var1590    =	$27D2
   1492  10000 ????		27 d3	    var1591    =	$27D3
   1493  10000 ????		27 d4	    var1592    =	$27D4
   1494  10000 ????		27 d5	    var1593    =	$27D5
   1495  10000 ????		27 d6	    var1594    =	$27D6
   1496  10000 ????		27 d7	    var1595    =	$27D7
   1497  10000 ????		27 d8	    var1596    =	$27D8
   1498  10000 ????		27 d9	    var1597    =	$27D9
   1499  10000 ????		27 da	    var1598    =	$27DA
   1500  10000 ????		27 db	    var1599    =	$27DB
   1501  10000 ????		27 dc	    var1600    =	$27DC
   1502  10000 ????		27 dd	    var1601    =	$27DD
   1503  10000 ????		27 de	    var1602    =	$27DE
   1504  10000 ????		27 df	    var1603    =	$27DF
   1505  10000 ????		27 e0	    var1604    =	$27E0
   1506  10000 ????		27 e1	    var1605    =	$27E1
   1507  10000 ????		27 e2	    var1606    =	$27E2
   1508  10000 ????		27 e3	    var1607    =	$27E3
   1509  10000 ????		27 e4	    var1608    =	$27E4
   1510  10000 ????		27 e5	    var1609    =	$27E5
   1511  10000 ????		27 e6	    var1610    =	$27E6
   1512  10000 ????		27 e7	    var1611    =	$27E7
   1513  10000 ????		27 e8	    var1612    =	$27E8
   1514  10000 ????		27 e9	    var1613    =	$27E9
   1515  10000 ????		27 ea	    var1614    =	$27EA
   1516  10000 ????		27 eb	    var1615    =	$27EB
   1517  10000 ????		27 ec	    var1616    =	$27EC
   1518  10000 ????		27 ed	    var1617    =	$27ED
   1519  10000 ????		27 ee	    var1618    =	$27EE
   1520  10000 ????		27 ef	    var1619    =	$27EF
   1521  10000 ????		27 f0	    var1620    =	$27F0
   1522  10000 ????		27 f1	    var1621    =	$27F1
   1523  10000 ????		27 f2	    var1622    =	$27F2
   1524  10000 ????		27 f3	    var1623    =	$27F3
   1525  10000 ????		27 f4	    var1624    =	$27F4
   1526  10000 ????		27 f5	    var1625    =	$27F5
   1527  10000 ????		27 f6	    var1626    =	$27F6
   1528  10000 ????		27 f7	    var1627    =	$27F7
   1529  10000 ????		27 f8	    var1628    =	$27F8
   1530  10000 ????		27 f9	    var1629    =	$27F9
   1531  10000 ????		27 fa	    var1630    =	$27FA
   1532  10000 ????		27 fb	    var1631    =	$27FB
   1533  10000 ????		27 fc	    var1632    =	$27FC
   1534  10000 ????		27 fd	    var1633    =	$27FD
   1535  10000 ????		27 fe	    var1634    =	$27FE
   1536  10000 ????		27 ff	    var1635    =	$27FF
------- FILE simple.bas.asm
   1474  10000 ????
   1475  10000 ????						; BEADHEADER... disabled for now
   1476  10000 ????						; A BEAD header gets automatically incorportated into the ROM header.
   1477  10000 ????						; For more BEAD executable info, check out the spec...
   1478  10000 ????						; http://7800.8bitdev.org/index.php/The_Atari_7800_BEAD_Execuable_Specification
   1479  10000 ????
   1480  10000 ????		00 01	    GAMEDESCRIPTIONSET =	1
   1481  10000 ????		4e 61 6d 65 GAMEDESCRIPTION =	"Test Name"
   1482  10000 ????
   1483  10000 ????
   1484  10000 ????		00 40	    BDHSC      =	%01000000
   1485  10000 ????		00 20	    BDYM       =	%00100000
   1486  10000 ????		00 10	    BDPOKEY    =	%00010000
   1487  10000 ????		00 08	    BDROF      =	%00001000
   1488  10000 ????		00 00	    BD16K      =	%00000000
   1489  10000 ????		00 01	    BD32K      =	%00000001
   1490  10000 ????		00 02	    BD48K      =	%00000010
   1491  10000 ????		00 05	    BD1800     =	%00000101
   1492  10000 ????		00 06	    BD4000     =	%00000110
   1493  10000 ????
   1494  10000 ????			   -	       ifconst	BEADHEADER
   1495  10000 ????			   -BEADHARDWARE SET	0
   1496  10000 ????			   -	       ifconst	ROM16K
   1497  10000 ????			   -BEADHARDWARE SET	(BEADHARDWARE|BD16K)
   1498  10000 ????			   -	       endif
   1499  10000 ????			   -	       ifconst	ROM32K
   1500  10000 ????			   -BEADHARDWARE SET	(BEADHARDWARE|BD32K)
   1501  10000 ????			   -	       endif
   1502  10000 ????			   -	       ifconst	ROM48K
   1503  10000 ????			   -BEADHARDWARE SET	(BEADHARDWARE|BD48K)
   1504  10000 ????			   -	       endif
   1505  10000 ????			   -	       ifconst	pokeysupport
   1506  10000 ????			   -BEADHARDWARE SET	(BEADHARDWARE|BDPOKEY)
   1507  10000 ????			   -	       endif
   1508  10000 ????			   -	       ifconst	HSSUPPORT
   1509  10000 ????			   -BEADHARDWARE SET	(BEADHARDWARE|BDHSC)
   1510  10000 ????			   -	       endif
   1511  10000 ????				       endif
   1512  10000 ????
   1513  10000 ????						;start address of cart...
   1514  10000 ????
   1515  10000 ????			    BANK_WAS_SET SET	0
   1516  10000 ????
   1517  10000 ????			   -	       ifconst	ROM8K
   1518  10000 ????			   -	       ORG	$E000,0
   1519  10000 ????			   -BANK_WAS_SET SET	1
   1520  10000 ????				       endif		; ROM8K
   1521  10000 ????
   1522  10000 ????			   -	       ifconst	ROM16K
   1523  10000 ????			   -	       ORG	$C000,0
   1524  10000 ????			   -BANK_WAS_SET SET	1
   1525  10000 ????			   -	       ifconst	BEADHEADER
   1526  10000 ????			   -	       .byte	$BE,$AD,BEADHARDWARE
   1527  10000 ????			   -	       ifconst	GAMEDESCRIPTION
   1528  10000 ????			   -	       CLC
   1529  10000 ????			   -	       BCC	_SKIPDESCRIPTION
   1530  10000 ????			   -	       .byte	GAMEDESCRIPTION,0
   1531  10000 ????			   -_SKIPDESCRIPTION
   1532  10000 ????			   -	       endif		; GAMEDESCRIPTION
   1533  10000 ????			   -	       jmp	($FFFC)
   1534  10000 ????			   -	       endif		; BEADHEADER
   1535  10000 ????				       endif		; ROM16K
   1536  10000 ????
   1537  10000 ????				       ifconst	ROM32K
   1538  8000					      ORG	$8000,0
   1539  8000				   BANK_WAS_SET SET	1
   1540  8000				  -	      ifconst	BEADHEADER
   1541  8000				  -	      .byte	$BE,$AD,BEADHARDWARE
   1542  8000				  -	      ifconst	GAMEDESCRIPTION
   1543  8000				  -	      CLC
   1544  8000				  -	      BCC	_SKIPDESCRIPTION
   1545  8000				  -	      .byte	GAMEDESCRIPTION,0
   1546  8000				  -_SKIPDESCRIPTION
   1547  8000				  -	      endif		; GAMEDESCRIPTION
   1548  8000				  -	      jmp	($FFFC)
   1549  8000					      endif		; BEADHEADER
   1550  8000					      endif		; ROM32K
   1551  8000
   1552  8000				  -	      ifconst	ROM48K
   1553  8000				  -	      ORG	$4000,0
   1554  8000				  -BANK_WAS_SET SET	1
   1555  8000				  -	      ifconst	BEADHEADER
   1556  8000				  -	      .byte	$BE,$AD,BEADHARDWARE
   1557  8000				  -	      ifconst	GAMEDESCRIPTIONSET
   1558  8000				  -	      CLC
   1559  8000				  -	      BCC	_SKIPDESCRIPTION
   1560  8000				  -	      .byte	GAMEDESCRIPTION,0
   1561  8000				  -_SKIPDESCRIPTION
   1562  8000				  -	      endif		; GAMEDESCRIPTIONSET
   1563  8000				  -	      jmp	($FFFC)
   1564  8000				  -	      endif		; BEADHEADER
   1565  8000					      endif		; ROM48K
   1566  8000
   1567  8000				  -	      ifconst	ROM52K
   1568  8000				  -BANK_WAS_SET SET	1
   1569  8000				  -	      ORG	$3000,0
   1570  8000					      endif		; ROM52K
   1571  8000
   1572  8000				  -	      ifconst	bankswitchmode
   1573  8000				  -	      ifconst	ROMAT4K
   1574  8000				  -BANK_WAS_SET SET	1
   1575  8000				  -	      ORG	$4000,0
   1576  8000				  -	      RORG	$4000
   1577  8000				  -	      else		; ROMAT4K
   1578  8000				  -BANK_WAS_SET SET	1
   1579  8000				  -	      ORG	$8000,0
   1580  8000				  -	      RORG	$8000
   1581  8000				  -	      endif
   1582  8000					      endif
   1583  8000
   1584  8000				  -	      if	BANK_WAS_SET = 0
   1585  8000				  -	      ORG	$8000,0	; default is 32K
   1586  8000					      endif
   1587  8000
   1588  8000				   START_OF_ROM SET	.
   1589  8000				   SPACEOVERFLOW SET	0
   1590  8000				  -	      ifnconst	SPACEOVERFLOWPASS
   1591  8000				  -SPACEOVERFLOWPASS SET	0
   1592  8000					      endif	SPACEOVERFLOWPASS
   1593  8000				   game
   1594  8000				   .
   1595  8000							;;line 1;;
   1596  8000
   1597  8000				   .
   1598  8000							;;line 2;;
   1599  8000
   1600  8000				   .
   1601  8000							;;line 3;;
   1602  8000
   1603  8000				   .
   1604  8000							;;line 4;;
   1605  8000
   1606  8000				   .
   1607  8000							;;line 5;;
   1608  8000
   1609  8000				   .
   1610  8000							;;line 6;;
   1611  8000
   1612  8000				   .L00 		;;line 7;;  set romsize 32k
   1613  8000
   1614  8000				   .L01 		;;line 8;;  displaymode 160A
   1615  8000
   1616  8000		       a9 40		      lda	#%01000000	;Enable DMA, mode=160x2/160x4
   1617  8002		       85 3c		      sta	CTRL
   1618  8004
   1619  8004		       8d 07 21 	      sta	sCTRL
   1620  8007
   1621  8007				   .
   1622  8007							;;line 9;;
   1623  8007
   1624  8007				   .
   1625  8007							;;line 10;;
   1626  8007
   1627  8007				   .L02 		;;line 11;;  incgraphic graphics/alphabet_4_wide.png 160A
   1628  8007
   1629  8007				   .
   1630  8007							;;line 12;;
   1631  8007
   1632  8007				   .
   1633  8007							;;line 13;;
   1634  8007
   1635  8007				   .L03 		;;line 14;;  P0C1 = $34
   1636  8007
   1637  8007		       a9 34		      lda	#$34
   1638  8009		       85 21		      sta	P0C1
   1639  800b				   .L04 		;;line 15;;  P0C2 = $64
   1640  800b
   1641  800b		       a9 64		      lda	#$64
   1642  800d		       85 22		      sta	P0C2
   1643  800f				   .L05 		;;line 16;;  P0C3 = $0F
   1644  800f
   1645  800f		       a9 0f		      lda	#$0F
   1646  8011		       85 23		      sta	P0C3
   1647  8013				   .
   1648  8013							;;line 17;;
   1649  8013
   1650  8013				   .
   1651  8013							;;line 18;;
   1652  8013
   1653  8013				   .__Loop
   1654  8013							;;line 19;; __Loop
   1655  8013
   1656  8013				   .L06 		;;line 20;;  clearscreen
   1657  8013
   1658  8013		       20 7f f0 	      jsr	clearscreen
   1659  8016				   .L07 		;;line 21;;  characterset alphabet_4_wide
   1660  8016
   1661  8016		       a9 e0		      lda	#>alphabet_4_wide
   1662  8018		       8d 0b 21 	      sta	sCHARBASE
   1663  801b
   1664  801b		       85 34		      sta	CHARBASE
   1665  801d		       a9 60		      lda	#(alphabet_4_wide_mode | %01100000)
   1666  801f		       8d 06 21 	      sta	charactermode
   1667  8022
   1668  8022				   .L08 		;;line 22;;  plotchars 'hello^world' 0 56 88
   1669  8022
   1670  8022		       4c 30 80 	      JMP	skipalphadata0
   1671  8025				   alphadata0
   1672  8025		       08		      .byte.b	(<alphabet_4_wide + $08)
   1673  8026		       05		      .byte.b	(<alphabet_4_wide + $05)
   1674  8027		       0c		      .byte.b	(<alphabet_4_wide + $0c)
   1675  8028		       0c		      .byte.b	(<alphabet_4_wide + $0c)
   1676  8029		       0f		      .byte.b	(<alphabet_4_wide + $0f)
   1677  802a		       00		      .byte.b	(<alphabet_4_wide + $00)
   1678  802b		       17		      .byte.b	(<alphabet_4_wide + $17)
   1679  802c		       0f		      .byte.b	(<alphabet_4_wide + $0f)
   1680  802d		       12		      .byte.b	(<alphabet_4_wide + $12)
   1681  802e		       0c		      .byte.b	(<alphabet_4_wide + $0c)
   1682  802f		       04		      .byte.b	(<alphabet_4_wide + $04)
   1683  8030				   skipalphadata0
   1684  8030		       a9 15		      lda	#21	; width in two's complement
   1685  8032		       09 00		      ora	#0	; palette left shifted 5 bits
   1686  8034		       85 44		      sta	temp3
   1687  8036		       a9 25		      lda	#<alphadata0
   1688  8038		       85 42		      sta	temp1
   1689  803a
   1690  803a		       a9 80		      lda	#>alphadata0
   1691  803c		       85 43		      sta	temp2
   1692  803e
   1693  803e		       a9 38		      lda	#56
   1694  8040		       85 45		      sta	temp4
   1695  8042
   1696  8042		       a9 58		      lda	#88
   1697  8044
   1698  8044		       85 46		      sta	temp5
   1699  8046
   1700  8046		       20 94 f3 	      jsr	plotcharacters
   1701  8049				   .L09 		;;line 23;;  drawscreen
   1702  8049
   1703  8049		       20 b3 f0 	      jsr	drawscreen
   1704  804c				   .L010		;;line 24;;  goto __Loop
   1705  804c
   1706  804c		       4c 13 80 	      jmp	.__Loop
   1707  804c				   DMAHOLEEND0 SET	.
   1708  804f				   gameend
   1709  804f				   DMAHOLEEND0 SET	.
   24497 bytes of ROM space left in the main area.
   1710  804f					      echo	" ",[($E000 - gameend)]d , "bytes of ROM space left in the main area."
   1711  804f				  -	      if	($E000 - gameend) < 0
   1712  804f				  -SPACEOVERFLOW SET	(SPACEOVERFLOW+1)
   1713  804f					      endif
   1714  804f				  -	      if	START_OF_ROM = .	; avoid dasm empty start-rom truncation.
   1715  804f				  -	      .byte	0
   1716  804f					      endif
   1717  804f				   START_OF_ROM SET	0	; scuttle so we always fail subsequent banks
   1718  804f
   1719  e000					      ORG	$E000,0	; *************
   1720  e000
   1721  e000		       e0 00	   alphabet_4_wide =	$E000
   1722  e000
   1723  e000				   alphabet_4_wide
   1724  e000		       00 00 00 00*	      HEX	0000000000000000000000000000000000000000000000000000000000000000
   1725  e020		       00 00 00 00	      HEX	00000000
   1726  e024
   1727  e100					      ORG	$E100,0	; *************
   1728  e100
   1729  e100							;alphabet_4_wide
   1730  e100		       00 00 00 00*	      HEX	0000000000000000000000000000000000000000000000000000000000000000
   1731  e120		       00 00 00 00	      HEX	00000000
   1732  e124
   1733  e200					      ORG	$E200,0	; *************
   1734  e200
   1735  e200							;alphabet_4_wide
   1736  e200		       00 00 00 00*	      HEX	0000000000000000000000000000000000000000000000000000000000000000
   1737  e220		       00 00 00 00	      HEX	00000000
   1738  e224
   1739  e300					      ORG	$E300,0	; *************
   1740  e300
   1741  e300							;alphabet_4_wide
   1742  e300		       00 00 00 00*	      HEX	0000000000000000000000000000000000000000000000000000000000000000
   1743  e320		       00 00 00 00	      HEX	00000000
   1744  e324
   1745  e400					      ORG	$E400,0	; *************
   1746  e400
   1747  e400							;alphabet_4_wide
   1748  e400		       00 00 00 00*	      HEX	0000000000000000000000000000000000040000000000000000000000004000
   1749  e420		       00 00 00 00	      HEX	00000000
   1750  e424
   1751  e500					      ORG	$E500,0	; *************
   1752  e500
   1753  e500							;alphabet_4_wide
   1754  e500		       00 44 50 10*	      HEX	0044501050544014445410445444441040104410101410444410541010101000
   1755  e520		       10 10 40 00	      HEX	10104000
   1756  e524
   1757  e600					      ORG	$E600,0	; *************
   1758  e600
   1759  e600							;alphabet_4_wide
   1760  e600		       00 44 44 44*	      HEX	0044444444404044441044444044444440444444104410544410400000000000
   1761  e620		       50 40 10 10	      HEX	50401010
   1762  e624
   1763  e700					      ORG	$E700,0	; *************
   1764  e700
   1765  e700							;alphabet_4_wide
   1766  e700		       00 44 44 40*	      HEX	0044444044404044441044444044444440444404104444544410400010100000
   1767  e720		       04 40 10 00	      HEX	04401000
   1768  e724
   1769  e800					      ORG	$E800,0	; *************
   1770  e800
   1771  e800							;alphabet_4_wide
   1772  e800		       00 54 50 40*	      HEX	0054504044505054541004504044444450445010104444441010100010100000
   1773  e820		       10 40 10 00	      HEX	10401000
   1774  e824
   1775  e900					      ORG	$E900,0	; *************
   1776  e900
   1777  e900							;alphabet_4_wide
   1778  e900		       00 44 44 40*	      HEX	0044444044404040441004444054444444444440104444444444040010040044
   1779  e920		       40 40 10 00	      HEX	40401000
   1780  e924
   1781  ea00					      ORG	$EA00,0	; *************
   1782  ea00
   1783  ea00							;alphabet_4_wide
   1784  ea00		       00 44 44 44*	      HEX	0044444444404044441004444054444444444444104444444444040010440044
   1785  ea20		       14 40 10 10	      HEX	14401010
   1786  ea24
   1787  eb00					      ORG	$EB00,0	; *************
   1788  eb00
   1789  eb00							;alphabet_4_wide
   1790  eb00		       00 10 50 10*	      HEX	0010501050545410445404444044501050105010544444444444540010100044
   1791  eb20		       10 10 40 00	      HEX	10104000
   1792  eb24
   1793  ec00					      ORG	$EC00,0	; *************
   1794  ec00
   1795  ec00							;alphabet_4_wide
   1796  ec00		       00 00 00 00*	      HEX	0000000000000000000000000000000000000000000000000000000000000000
   1797  ec20		       00 00 00 00	      HEX	00000000
   1798  ec24
   1799  ed00					      ORG	$ED00,0	; *************
   1800  ed00
   1801  ed00							;alphabet_4_wide
   1802  ed00		       00 00 00 00*	      HEX	0000000000000000000000000000000000000000000000000000000000000000
   1803  ed20		       00 00 00 00	      HEX	00000000
   1804  ed24
   1805  ee00					      ORG	$EE00,0	; *************
   1806  ee00
   1807  ee00							;alphabet_4_wide
   1808  ee00		       00 00 00 00*	      HEX	0000000000000000000000000000000000000000000000000000000000000000
   1809  ee20		       00 00 00 00	      HEX	00000000
   1810  ee24
   1811  ef00					      ORG	$EF00,0	; *************
   1812  ef00
   1813  ef00							;alphabet_4_wide
   1814  ef00		       00 00 00 00*	      HEX	0000000000000000000000000000000000000000000000000000000000000000
   1815  ef20		       00 00 00 00	      HEX	00000000
   1816  ef24				  -	      if	SPACEOVERFLOW > 0
   1817  ef24				  -	      echo	""
   1818  ef24				  -	      echo	"######## ERROR: space overflow detected in",[SPACEOVERFLOW]d,"areas."
   1819  ef24				  -	      echo	"######## look above for areas with negative ROM space left."
   1820  ef24					      endif
   1821  ef24
   1822  ef24
   1823  ef24							; Provided under the CC0 license. See the included LICENSE.txt for details.
   1824  ef24
   1825  ef24					      ifnconst	bankswitchmode
   1826  ef24					      if	( * < $f000 )
   1827  f000					      ORG	$F000
   1828  f000					      endif
   1829  f000				  -	      else
   1830  f000				  -	      ifconst	ROM128K
   1831  f000				  -	      if	( * < $f000 )
   1832  f000				  -	      ORG	$27000
   1833  f000				  -	      RORG	$F000
   1834  f000				  -	      endif
   1835  f000				  -	      endif
   1836  f000				  -	      ifconst	ROM144K
   1837  f000				  -	      if	( * < $f000 )
   1838  f000				  -	      ORG	$27000
   1839  f000				  -	      RORG	$F000
   1840  f000				  -	      endif
   1841  f000				  -	      endif
   1842  f000				  -	      ifconst	ROM256K
   1843  f000				  -	      if	( * < $f000 )
   1844  f000				  -	      ORG	$47000
   1845  f000				  -	      RORG	$F000
   1846  f000				  -	      endif
   1847  f000				  -	      endif
   1848  f000				  -	      ifconst	ROM272K
   1849  f000				  -	      if	( * < $f000 )
   1850  f000				  -	      ORG	$47000
   1851  f000				  -	      RORG	$F000
   1852  f000				  -	      endif
   1853  f000				  -	      endif
   1854  f000				  -	      ifconst	ROM512K
   1855  f000				  -	      if	( * < $f000 )
   1856  f000				  -	      ORG	$87000
   1857  f000				  -	      RORG	$F000
   1858  f000				  -	      endif
   1859  f000				  -	      endif
   1860  f000				  -	      ifconst	ROM528K
   1861  f000				  -	      if	( * < $f000 )
   1862  f000				  -	      ORG	$87000
   1863  f000				  -	      RORG	$F000
   1864  f000				  -	      endif
   1865  f000				  -	      endif
   1866  f000					      endif
   1867  f000
   1868  f000							; all of these "modules" have conditional clauses in them, so even though
   1869  f000							; they're always included here, they don't take up rom unless the user
   1870  f000							; explicitly enables support for the feature.
   1871  f000
   1872  f000					      ifnconst	included.rmtplayer.asm
------- FILE rmtplayer.asm LEVEL 2 PASS 3
      0  f000					      include	rmtplayer.asm	; requires page alignment, so go first
      1  f000				  -	      ifconst	RMT
      2  f000				  -
      3  f000				  -rmtmodulestart
      4  f000				  -
      5  f000				  -			;*
      6  f000				  -			;* Raster Music Tracker, RMT Atari routine version 1.20030223
      7  f000				  -			;* (c) Radek Sterba, Raster/C.P.U., 2002 - 2003
      8  f000				  -			;* http://raster.atari.org
      9  f000				  -			;*
     10  f000				  -			;* Some small changes to allow using this code with DASM cross assembler and
     11  f000				  -			;* to compile for cartridge based systems, like the Atari 5200 or 7800,
     12  f000				  -			;* by Eckhard Stolberg ( http://home.arcor.de/estolberg/ ).
     13  f000				  -			;*
     14  f000				  -			;* More small changes were made to use this code with 7800basic, and
     15  f000				  -			;* comments by VinsCool on more recent versions were back-ported.
     16  f000				  -			;* --Mike Saarna.
     17  f000				  -			;*
     18  f000				  -			;* Warnings:
     19  f000				  -			;*
     20  f000				  -			;* 1. RMT player routine needs 19 dedicated zero page bytes, as well as cca
     21  f000				  -			;* 1KB of memory before the "PLAYER" address for frequency tables and
     22  f000				  -			;* functionary variables. It's:
     23  f000				  -			;* a) from PLAYER-$400 to PLAYER for stereo RMTplayer
     24  f000				  -			;* b) from PLAYER-$380 to PLAYER for mono RMTplayer
     25  f000				  -			;*
     26  f000				  -			;* note: This has been changed for 5200 & 7800 compatibility. Now PLAYER
     27  f000				  -			;* points to the start of the frequency tables. The player routines follows
     28  f000				  -			;* after that. The variables are now independent and can be located with
     29  f000				  -			;* PLAYER_VAR_RAM and PLAYER_ZP_RAM (see below):
     30  f000				  -			;*
     31  f000				  -			;* 2. RMT player routine MUST (!!!) be compiled aligned to a memory page.
     32  f000				  -			;* i.e. "PLAYER" address can be $..00 only!
     33  f000				  -			;*
     34  f000				  -			;* 3. Because of RMTplayer provides a lot of effects, it spent a lot of
     35  f000				  -			;* CPU time.
     36  f000				  -			;*
     37  f000				  -			;*
     38  f000				  -			;* Define the following equates here or in your main code file.
     39  f000				  -			;* Set the values according to the system you compile for.
     40  f000				  -			;*
     41  f000				  -
     42  f000				  -POKEY_BASE equ	pokeyaddress
     43  f000				  -PLAYER_ZP_RAM equ	songchannel1layer1lo	;* player routine needs 19 bytes
     44  f000				  -			;* of zero page RAM
     45  f000				  -PLAYER_VAR_RAM equ	RMTRAM	;* variables in main RAM - 173 bytes
     46  f000				  -			;* mono - 337 stereo
     47  f000				  -
     48  f000				  -ROM_BASED  equ	1	;* using a ROM based system - no self modifying code
     49  f000				  -STEREO8T   equ	0	;* 0 => compile RMTplayer for mono 4 tracks
     50  f000				  -			; ;1 => compile RMTplayer for stereo 8 tracks
     51  f000				  -
     52  f000				  -HARD_OF_HEARING equ	1	;* repeat output to pokey
     53  f000				  -
     54  f000				  -rmt_ispeed equ	PLAYER_ZP_RAM+19
     55  f000				  -rmt_intcount equ	PLAYER_ZP_RAM+20
     56  f000				  -
     57  f000				  -			;*
     58  f000				  -
     59  f000				  -	      IF	STEREO8T
     60  f000				  -TRACKS     equ	8
     61  f000				  -	      ELSE
     62  f000				  -TRACKS     equ	4
     63  f000				  -	      ENDIF
     64  f000				  -
     65  f000				  -			;*
     66  f000				  -			;* RMT FEATures definitions
     67  f000				  -			;* For optimizations of RMT player routine to concrete RMT modul only!
     68  f000				  -			;* --------BEGIN--------
     69  f000				  -FEAT_COMMAND1 equ	1	;* cca 8 bytes
     70  f000				  -FEAT_COMMAND2 equ	1	;* cca 20 bytes (+save 1 address in zero page)
     71  f000				  -			;* and quicker whole RMT routine
     72  f000				  -FEAT_COMMAND3 equ	1	;* cca 12 bytes
     73  f000				  -FEAT_COMMAND4 equ	1	;* cca 15 bytes
     74  f000				  -FEAT_COMMAND5 equ	1	;* cca 67 bytes
     75  f000				  -FEAT_COMMAND6 equ	1	;* cca 15 bytes
     76  f000				  -			;* COMMAND7 SETNOTE (i.e. command 7 with parameter != $80)
     77  f000				  -FEAT_COMMAND7SETNOTE equ	1	;* cca 12 bytes
     78  f000				  -			;* COMMAND7 VOLUMEONLY (i.e. command 7 with parameter == $80)
     79  f000				  -FEAT_COMMAND7VOLUMEONLY equ	1	;* cca 74 bytes
     80  f000				  -			;* PORTAMENTO
     81  f000				  -FEAT_PORTAMENTO equ	1	;* cca 138 bytes and quicker whole RMT routine
     82  f000				  -			;* FILTER
     83  f000				  -FEAT_FILTER equ	1	;* cca 179 bytes and quicker whole RMT routine
     84  f000				  -FEAT_FILTERG0L equ	1	;* (cca 38 bytes for each)
     85  f000				  -FEAT_FILTERG1L equ	1
     86  f000				  -FEAT_FILTERG0R equ	1
     87  f000				  -FEAT_FILTERG1R equ	1
     88  f000				  -			;* BASS16B (i.e. distortion value 6)
     89  f000				  -FEAT_BASS16 equ	1	;* cca 194 bytes +128bytes freq table and
     90  f000				  -			;* quicker whole RMT routine
     91  f000				  -FEAT_BASS16G1L equ	1	;* (cca 47 bytes for each)
     92  f000				  -FEAT_BASS16G3L equ	1
     93  f000				  -FEAT_BASS16G1R equ	1
     94  f000				  -FEAT_BASS16G3R equ	1
     95  f000				  -			;* VOLUME ONLY for particular generators
     96  f000				  -FEAT_VOLUMEONLYG0L equ	1	;* (cca 7 bytes for each)
     97  f000				  -FEAT_VOLUMEONLYG2L equ	1
     98  f000				  -FEAT_VOLUMEONLYG3L equ	1
     99  f000				  -FEAT_VOLUMEONLYG0R equ	1
    100  f000				  -FEAT_VOLUMEONLYG2R equ	1
    101  f000				  -FEAT_VOLUMEONLYG3R equ	1
    102  f000				  -			;* TABLE TYPE (i.e. TABLETYPE=1)
    103  f000				  -FEAT_TABLETYPE equ	1	;* cca 53 bytes and quicker whole RMT routine
    104  f000				  -			;* TABLE MODE (i.e. TABLEMODE=1)
    105  f000				  -FEAT_TABLEMODE equ	1	;* cca 16 bytes and quicker whole RMT routine
    106  f000				  -			;* AUDCTLMANUALSET (i.e. any MANUAL AUDCTL setting to nonzero value)
    107  f000				  -FEAT_AUDCTLMANUALSET equ	1	;* cca 27 bytes and quicker whole RMT routine
    108  f000				  -			;* --------END--------
    109  f000				  -			;*
    110  f000				  -			;*
    111  f000				  -			;* RMT ZeroPage addresses
    112  f000				  -
    113  f000				  -MEMLOC     SET	PLAYER_ZP_RAM
    114  f000				  -p_tis      =	MEMLOC
    115  f000				  -p_instrstable =	MEMLOC
    116  f000				  -MEMLOC     SET	(MEMLOC+2)
    117  f000				  -ptrTracksTblLo =	MEMLOC
    118  f000				  -MEMLOC     SET	(MEMLOC+2)
    119  f000				  -ptrTracksTblHi =	MEMLOC
    120  f000				  -MEMLOC     SET	(MEMLOC+2)
    121  f000				  -ptrSongLines =	MEMLOC
    122  f000				  -MEMLOC     SET	(MEMLOC+2)
    123  f000				  -
    124  f000				  -_ns	      =	MEMLOC
    125  f000				  -MEMLOC     SET	(MEMLOC+2)
    126  f000				  -_nr	      =	MEMLOC
    127  f000				  -MEMLOC     SET	(MEMLOC+2)
    128  f000				  -_nt	      =	MEMLOC
    129  f000				  -MEMLOC     SET	(MEMLOC+2)
    130  f000				  -
    131  f000				  -rmtreg1    =	MEMLOC
    132  f000				  -MEMLOC     SET	(MEMLOC+1)
    133  f000				  -rmtreg2    =	MEMLOC
    134  f000				  -MEMLOC     SET	(MEMLOC+1)
    135  f000				  -rmtreg3    =	MEMLOC
    136  f000				  -MEMLOC     SET	(MEMLOC+1)
    137  f000				  -_tmp       =	MEMLOC
    138  f000				  -MEMLOC     SET	(MEMLOC+1)
    139  f000				  -	      IF	FEAT_COMMAND2
    140  f000				  -frqaddcmd2 =	MEMLOC
    141  f000				  -MEMLOC     SET	(MEMLOC+1)
    142  f000				  -	      ENDIF
    143  f000				  -
    144  f000				  -			;*
    145  f000				  -			;* Variables in main RAM used by player routine.
    146  f000				  -			;* 337 bytes for stereo - 173 bytes for mono
    147  f000				  -			;*
    148  f000				  -
    149  f000				  -MEMLOC     SET	PLAYER_VAR_RAM
    150  f000				  -track_variables =	MEMLOC
    151  f000				  -
    152  f000				  -trackn_TblLo =	MEMLOC
    153  f000				  -MEMLOC     SET	(MEMLOC+TRACKS)
    154  f000				  -trackn_TblHi =	MEMLOC
    155  f000				  -MEMLOC     SET	(MEMLOC+TRACKS)
    156  f000				  -trackn_idx =	MEMLOC
    157  f000				  -MEMLOC     SET	(MEMLOC+TRACKS)
    158  f000				  -trackn_pause =	MEMLOC
    159  f000				  -MEMLOC     SET	(MEMLOC+TRACKS)
    160  f000				  -trackn_note =	MEMLOC
    161  f000				  -MEMLOC     SET	(MEMLOC+TRACKS)
    162  f000				  -trackn_volume =	MEMLOC
    163  f000				  -MEMLOC     SET	(MEMLOC+TRACKS)
    164  f000				  -trackn_distor =	MEMLOC
    165  f000				  -MEMLOC     SET	(MEMLOC+TRACKS)
    166  f000				  -trackn_shiftfrq =	MEMLOC
    167  f000				  -MEMLOC     SET	(MEMLOC+TRACKS)
    168  f000				  -
    169  f000				  -	      IF	FEAT_PORTAMENTO
    170  f000				  -trackn_portafrqc =	MEMLOC
    171  f000				  -MEMLOC     SET	(MEMLOC+TRACKS)
    172  f000				  -trackn_portafrqa =	MEMLOC
    173  f000				  -MEMLOC     SET	(MEMLOC+TRACKS)
    174  f000				  -trackn_portaspeed =	MEMLOC
    175  f000				  -MEMLOC     SET	(MEMLOC+TRACKS)
    176  f000				  -trackn_portaspeeda =	MEMLOC
    177  f000				  -MEMLOC     SET	(MEMLOC+TRACKS)
    178  f000				  -trackn_portadepth =	MEMLOC
    179  f000				  -MEMLOC     SET	(MEMLOC+TRACKS)
    180  f000				  -	      ENDIF
    181  f000				  -
    182  f000				  -trackn_instrx2 =	MEMLOC
    183  f000				  -MEMLOC     SET	(MEMLOC+TRACKS)
    184  f000				  -trackn_instrdb =	MEMLOC
    185  f000				  -MEMLOC     SET	(MEMLOC+TRACKS)
    186  f000				  -trackn_instrhb =	MEMLOC
    187  f000				  -MEMLOC     SET	(MEMLOC+TRACKS)
    188  f000				  -trackn_instridx =	MEMLOC
    189  f000				  -MEMLOC     SET	(MEMLOC+TRACKS)
    190  f000				  -trackn_instrlen =	MEMLOC
    191  f000				  -MEMLOC     SET	(MEMLOC+TRACKS)
    192  f000				  -trackn_instrlop =	MEMLOC
    193  f000				  -MEMLOC     SET	(MEMLOC+TRACKS)
    194  f000				  -trackn_instrreachend =	MEMLOC
    195  f000				  -MEMLOC     SET	(MEMLOC+TRACKS)
    196  f000				  -trackn_volumeslidedepth =	MEMLOC
    197  f000				  -MEMLOC     SET	(MEMLOC+TRACKS)
    198  f000				  -trackn_volumeslidevalue =	MEMLOC
    199  f000				  -MEMLOC     SET	(MEMLOC+TRACKS)
    200  f000				  -trackn_volumemin =	MEMLOC
    201  f000				  -MEMLOC     SET	(MEMLOC+TRACKS)
    202  f000				  -trackn_effdelay =	MEMLOC
    203  f000				  -MEMLOC     SET	(MEMLOC+TRACKS)
    204  f000				  -trackn_effvibratoa =	MEMLOC
    205  f000				  -MEMLOC     SET	(MEMLOC+TRACKS)
    206  f000				  -trackn_effvibratobeg =	MEMLOC
    207  f000				  -MEMLOC     SET	(MEMLOC+TRACKS)
    208  f000				  -trackn_effvibratoend =	MEMLOC
    209  f000				  -MEMLOC     SET	(MEMLOC+TRACKS)
    210  f000				  -trackn_effshift =	MEMLOC
    211  f000				  -MEMLOC     SET	(MEMLOC+TRACKS)
    212  f000				  -trackn_tabletypespeed =	MEMLOC
    213  f000				  -MEMLOC     SET	(MEMLOC+TRACKS)
    214  f000				  -
    215  f000				  -	      IF	FEAT_TABLEMODE
    216  f000				  -trackn_tablemode =	MEMLOC
    217  f000				  -MEMLOC     SET	(MEMLOC+TRACKS)
    218  f000				  -	      ENDIF
    219  f000				  -
    220  f000				  -trackn_tablenote =	MEMLOC
    221  f000				  -MEMLOC     SET	(MEMLOC+TRACKS)
    222  f000				  -
    223  f000				  -trackn_tablea =	MEMLOC
    224  f000				  -MEMLOC     SET	(MEMLOC+TRACKS)
    225  f000				  -trackn_tableend =	MEMLOC
    226  f000				  -MEMLOC     SET	(MEMLOC+TRACKS)
    227  f000				  -trackn_tablelop =	MEMLOC
    228  f000				  -MEMLOC     SET	(MEMLOC+TRACKS)
    229  f000				  -trackn_tablespeeda =	MEMLOC
    230  f000				  -MEMLOC     SET	(MEMLOC+TRACKS)
    231  f000				  -trackn_command =	MEMLOC
    232  f000				  -MEMLOC     SET	(MEMLOC+TRACKS)
    233  f000				  -
    234  f000				  -	      IF	FEAT_BASS16
    235  f000				  -trackn_outnote =	MEMLOC
    236  f000				  -MEMLOC     SET	(MEMLOC+TRACKS)
    237  f000				  -	      ENDIF
    238  f000				  -	      IF	FEAT_FILTER
    239  f000				  -trackn_filter =	MEMLOC
    240  f000				  -MEMLOC     SET	(MEMLOC+TRACKS)
    241  f000				  -	      ENDIF
    242  f000				  -
    243  f000				  -trackn_audf =	MEMLOC
    244  f000				  -MEMLOC     SET	(MEMLOC+TRACKS)
    245  f000				  -trackn_audc =	MEMLOC
    246  f000				  -MEMLOC     SET	(MEMLOC+TRACKS)
    247  f000				  -
    248  f000				  -	      IF	FEAT_AUDCTLMANUALSET
    249  f000				  -trackn_audctl =	MEMLOC
    250  f000				  -MEMLOC     SET	(MEMLOC+TRACKS)
    251  f000				  -	      ENDIF
    252  f000				  -
    253  f000				  -v_audctl   =	MEMLOC
    254  f000				  -MEMLOC     SET	(MEMLOC+1)
    255  f000				  -v_audctl2  =	MEMLOC
    256  f000				  -MEMLOC     SET	(MEMLOC+1)
    257  f000				  -v_speed    =	MEMLOC
    258  f000				  -MEMLOC     SET	(MEMLOC+1)
    259  f000				  -v_aspeed   =	MEMLOC
    260  f000				  -MEMLOC     SET	(MEMLOC+1)
    261  f000				  -v_bspeed   =	MEMLOC
    262  f000				  -MEMLOC     SET	(MEMLOC+1)
    263  f000				  -v_instrspeed =	MEMLOC
    264  f000				  -MEMLOC     SET	(MEMLOC+1)
    265  f000				  -smc_silence_instrspeed =	MEMLOC
    266  f000				  -MEMLOC     SET	(MEMLOC+1)
    267  f000				  -v_maxtracklen =	MEMLOC
    268  f000				  -MEMLOC     SET	(MEMLOC+1)
    269  f000				  -v_abeat    =	MEMLOC
    270  f000				  -MEMLOC     SET	(MEMLOC+1)
    271  f000				  -
    272  f000				  -track_endvariables =	MEMLOC
    273  f000				  -
    274  f000				  -			;*
    275  f000				  -			;* Data tables used by player routine.
    276  f000				  -			;*
    277  f000				  -	      ALIGN	256
    278  f000				  -PLAYER     =	.
    279  f000				  -
    280  f000				  -volumetab
    281  f000				  -	      dc.b	$00,$00,$00,$00,$00,$00,$00,$00,$00,$00,$00,$00,$00,$00,$00,$00
    282  f000				  -	      dc.b	$00,$00,$00,$00,$00,$00,$00,$00,$01,$01,$01,$01,$01,$01,$01,$01
    283  f000				  -	      dc.b	$00,$00,$00,$00,$01,$01,$01,$01,$01,$01,$01,$01,$02,$02,$02,$02
    284  f000				  -	      dc.b	$00,$00,$00,$01,$01,$01,$01,$01,$02,$02,$02,$02,$02,$03,$03,$03
    285  f000				  -	      dc.b	$00,$00,$01,$01,$01,$01,$02,$02,$02,$02,$03,$03,$03,$03,$04,$04
    286  f000				  -	      dc.b	$00,$00,$01,$01,$01,$02,$02,$02,$03,$03,$03,$04,$04,$04,$05,$05
    287  f000				  -	      dc.b	$00,$00,$01,$01,$02,$02,$02,$03,$03,$04,$04,$04,$05,$05,$06,$06
    288  f000				  -	      dc.b	$00,$00,$01,$01,$02,$02,$03,$03,$04,$04,$05,$05,$06,$06,$07,$07
    289  f000				  -	      dc.b	$00,$01,$01,$02,$02,$03,$03,$04,$04,$05,$05,$06,$06,$07,$07,$08
    290  f000				  -	      dc.b	$00,$01,$01,$02,$02,$03,$04,$04,$05,$05,$06,$07,$07,$08,$08,$09
    291  f000				  -	      dc.b	$00,$01,$01,$02,$03,$03,$04,$05,$05,$06,$07,$07,$08,$09,$09,$0A
    292  f000				  -	      dc.b	$00,$01,$01,$02,$03,$04,$04,$05,$06,$07,$07,$08,$09,$0A,$0A,$0B
    293  f000				  -	      dc.b	$00,$01,$02,$02,$03,$04,$05,$06,$06,$07,$08,$09,$0A,$0A,$0B,$0C
    294  f000				  -	      dc.b	$00,$01,$02,$03,$03,$04,$05,$06,$07,$08,$09,$0A,$0A,$0B,$0C,$0D
    295  f000				  -	      dc.b	$00,$01,$02,$03,$04,$05,$06,$07,$07,$08,$09,$0A,$0B,$0C,$0D,$0E
    296  f000				  -	      dc.b	$00,$01,$02,$03,$04,$05,$06,$07,$08,$09,$0A,$0B,$0C,$0D,$0E,$0F
    297  f000				  -
    298  f000				  -frqtab
    299  f000				  -			; ERT [<frqtab]!=0 ;* frqtab must begin at the memory page bound!
    300  f000				  -			;* (i.e. $..00 address)
    301  f000				  -frqtabbass1
    302  f000				  -	      dc.b	$BF,$B6,$AA,$A1,$98,$8F,$89,$80,$F2,$E6,$DA,$CE,$BF,$B6,$AA,$A1
    303  f000				  -	      dc.b	$98,$8F,$89,$80,$7A,$71,$6B,$65,$5F,$5C,$56,$50,$4D,$47,$44,$3E
    304  f000				  -	      dc.b	$3C,$38,$35,$32,$2F,$2D,$2A,$28,$25,$23,$21,$1F,$1D,$1C,$1A,$18
    305  f000				  -	      dc.b	$17,$16,$14,$13,$12,$11,$10,$0F,$0E,$0D,$0C,$0B,$0A,$09,$08,$07
    306  f000				  -frqtabbass2
    307  f000				  -	      dc.b	$FF,$F1,$E4,$D8,$CA,$C0,$B5,$AB,$A2,$99,$8E,$87,$7F,$79,$73,$70
    308  f000				  -	      dc.b	$66,$61,$5A,$55,$52,$4B,$48,$43,$3F,$3C,$39,$37,$33,$30,$2D,$2A
    309  f000				  -	      dc.b	$28,$25,$24,$21,$1F,$1E,$1C,$1B,$19,$17,$16,$15,$13,$12,$11,$10
    310  f000				  -	      dc.b	$0F,$0E,$0D,$0C,$0B,$0A,$09,$08,$07,$06,$05,$04,$03,$02,$01,$00
    311  f000				  -frqtabpure
    312  f000				  -	      dc.b	$F3,$E6,$D9,$CC,$C1,$B5,$AD,$A2,$99,$90,$88,$80,$79,$72,$6C,$66
    313  f000				  -	      dc.b	$60,$5B,$55,$51,$4C,$48,$44,$40,$3C,$39,$35,$32,$2F,$2D,$2A,$28
    314  f000				  -	      dc.b	$25,$23,$21,$1F,$1D,$1C,$1A,$18,$17,$16,$14,$13,$12,$11,$10,$0F
    315  f000				  -	      dc.b	$0E,$0D,$0C,$0B,$0A,$09,$08,$07,$06,$05,$04,$03,$02,$01,$00,$00
    316  f000				  -	      IF	FEAT_BASS16
    317  f000				  -frqtabbasshi
    318  f000				  -	      dc.b	$0D,$0D,$0C,$0B,$0B,$0A,$0A,$09,$08,$08,$07,$07,$07,$06,$06,$05
    319  f000				  -	      dc.b	$05,$05,$04,$04,$04,$04,$03,$03,$03,$03,$03,$02,$02,$02,$02,$02
    320  f000				  -	      dc.b	$02,$02,$01,$01,$01,$01,$01,$01,$01,$01,$01,$01,$01,$01,$00,$00
    321  f000				  -	      dc.b	$00,$00,$00,$00,$00,$00,$00,$00,$00,$00,$00,$00,$00,$00,$00,$00
    322  f000				  -	      ENDIF
    323  f000				  -
    324  f000				  -	      IF	FEAT_BASS16
    325  f000				  -frqtabbasslo
    326  f000				  -	      dc.b	$F2,$33,$96,$E2,$38,$8C,$00,$6A,$E8,$6A,$EF,$80,$08,$AE,$46,$E6
    327  f000				  -	      dc.b	$95,$41,$F6,$B0,$6E,$30,$F6,$BB,$84,$52,$22,$F4,$C8,$A0,$7A,$55
    328  f000				  -	      dc.b	$34,$14,$F5,$D8,$BD,$A4,$8D,$77,$60,$4E,$38,$27,$15,$06,$F7,$E8
    329  f000				  -	      dc.b	$DB,$CF,$C3,$B8,$AC,$A2,$9A,$90,$88,$7F,$78,$70,$6A,$64,$5E,$00
    330  f000				  -	      ENDIF
    331  f000				  -
    332  f000				  -	      IF	ROM_BASED
    333  f000				  -rts_tab    dc.w	cmd0-1,cmd1-1,cmd2-1,cmd3-1,cmd4-1,cmd5-1,cmd6-1,cmd7-1
    334  f000				  -	      ENDIF
    335  f000				  -INSTRPAR   equ	12
    336  f000				  -tabbeganddistor
    337  f000				  -	      dc.b	frqtabpure-frqtab,$00
    338  f000				  -	      dc.b	frqtabpure-frqtab,$20
    339  f000				  -	      dc.b	frqtabpure-frqtab,$40
    340  f000				  -	      dc.b	frqtabbass1-frqtab,$c0
    341  f000				  -	      dc.b	frqtabpure-frqtab,$80
    342  f000				  -	      dc.b	frqtabpure-frqtab,$a0
    343  f000				  -	      dc.b	frqtabbass1-frqtab,$c0
    344  f000				  -	      dc.b	frqtabbass2-frqtab,$c0
    345  f000				  -vibtabbeg  dc.b	0,vib1-vib0,vib2-vib0,vib3-vib0,vibx-vib0
    346  f000				  -vib0       dc.b	0
    347  f000				  -vib1       dc.b	1,-1,-1,1
    348  f000				  -vib2       dc.b	1,0,-1,-1,0,1
    349  f000				  -vib3       dc.b	1,1,0,-1,-1,-1,-1,0,1,1
    350  f000				  -vibx
    351  f000				  -emptytrack
    352  f000				  -	      dc.b	62,0
    353  f000				  -
    354  f000				  -			;*
    355  f000				  -			;* Set of RMT main vectors:
    356  f000				  -			;*
    357  f000				  -RASTERMUSICTRACKER
    358  f000				  -	      jmp	rmt_init	;* Must be run first, to clear memory and initialise
    359  f000				  -			;* the player... Once this is done, run rmt_play
    360  f000				  -			;* afterwards, or Set_Pokey if you want to manually
    361  f000				  -			;* time certain things.
    362  f000				  -
    363  f000				  -	      jmp	rmt_play	;* One play each subroutine call. SetPokey is
    364  f000				  -			;* executed first, then all the play code is ran
    365  f000				  -			;* once, until the RTS. rmt_play could be called
    366  f000				  -			;* multiple times per frame if wanted.
    367  f000				  -
    368  f000				  -	      jmp	rmt_p3	;* Similar to rmt_play, but will also skip SetPokey
    369  f000				  -			;* and the instruments/songlines/tracklines
    370  f000				  -			;* initialisation, very useful for playing simple
    371  f000				  -			;* things.
    372  f000				  -
    373  f000				  -	      jmp	rmt_silence	;* Run this to stop the driver, and reset all POKEY
    374  f000				  -			;* registers to 0. This is also part of rmt_init
    375  f000				  -			;* when it is executed first.
    376  f000				  -
    377  f000				  -	      jmp	SetPokey	;* Run to copy the contents of the Shadow POKEY
    378  f000				  -			;* registers (v_audctl, v_skctl, trackn_audf,x etc)
    379  f000				  -			;* into the real ones. Will be run first each time
    380  f000				  -			;* rmt_play is called.
    381  f000				  -rmt_init
    382  f000				  -	      stx	_ns
    383  f000				  -	      sty	_ns+1
    384  f000				  -	      pha
    385  f000				  -	      IF	track_endvariables-track_variables>255
    386  f000				  -	      ldy	#0
    387  f000				  -	      tya
    388  f000				  -ri_clear_loop
    389  f000				  -	      sta	track_variables,y
    390  f000				  -	      sta	track_endvariables-$100,y
    391  f000				  -	      iny
    392  f000				  -	      bne	ri_clear_loop
    393  f000				  -	      ELSE
    394  f000				  -	      ldy	#track_endvariables-track_variables
    395  f000				  -	      lda	#0
    396  f000				  -ri_clear_loop
    397  f000				  -	      sta	track_variables-1,y
    398  f000				  -	      dey
    399  f000				  -	      bne	ri_clear_loop
    400  f000				  -	      ENDIF
    401  f000				  -			;* Parse the RMT module data
    402  f000				  -			;* Track length: +4
    403  f000				  -	      ldy	#4
    404  f000				  -	      lda	(_ns),y
    405  f000				  -	      sta	v_maxtracklen	;* Change the code to store the track length
    406  f000				  -	      iny
    407  f000				  -	      lda	(_ns),y
    408  f000				  -	      sta	v_speed	;* Change the code to store the song speed
    409  f000				  -	      iny
    410  f000				  -	      lda	(_ns),y
    411  f000				  -	      sta	v_instrspeed	;* Change the code to store the instrument speed
    412  f000				  -	      sta	smc_silence_instrspeed
    413  f000				  -
    414  f000				  -			; Copy 4 pointers: +8
    415  f000				  -			; -> InstrumentPtrs[]	       2 bytes
    416  f000				  -			; -> TracksPtrsLow[]	       2 bytes
    417  f000				  -			; -> TracksPtrsHi	       2 bytes
    418  f000				  -			; -> SongData		       2 bytes
    419  f000				  -	      ldy	#8
    420  f000				  -ri_copy_loop
    421  f000				  -	      lda	(_ns),y
    422  f000				  -	      sta	p_tis-8,y
    423  f000				  -	      iny
    424  f000				  -	      cpy	#8+8	;* we started at 8, so loop until 16
    425  f000				  -	      bne	ri_copy_loop
    426  f000				  -
    427  f000				  -	      pla
    428  f000				  -	      pha
    429  f000				  -	      IF	STEREO8T
    430  f000				  -	      asl
    431  f000				  -	      asl
    432  f000				  -	      asl
    433  f000				  -	      clc
    434  f000				  -	      adc	ptrSongLines
    435  f000				  -	      sta	ptrSongLines
    436  f000				  -	      pla
    437  f000				  -	      and	#$e0
    438  f000				  -	      asl
    439  f000				  -	      rol
    440  f000				  -	      rol
    441  f000				  -	      rol
    442  f000				  -	      ELSE
    443  f000				  -	      asl
    444  f000				  -	      asl
    445  f000				  -	      clc
    446  f000				  -	      adc	ptrSongLines
    447  f000				  -	      sta	ptrSongLines
    448  f000				  -	      pla
    449  f000				  -	      and	#$c0
    450  f000				  -	      asl
    451  f000				  -	      rol
    452  f000				  -	      rol
    453  f000				  -	      ENDIF
    454  f000				  -	      adc	ptrSongLines+1
    455  f000				  -	      sta	ptrSongLines+1
    456  f000				  -
    457  f000				  -	      jsr	GetSongLine
    458  f000				  -
    459  f000				  -	      jsr	GetTrackLine
    460  f000				  -	      jsr	InitOfNewSetInstrumentsOnly
    461  f000				  -	      jsr	rmt_silence
    462  f000				  -	      lda	v_instrspeed
    463  f000				  -	      rts
    464  f000				  -
    465  f000				  -rmt_silence
    466  f000				  -	      IF	STEREO8T
    467  f000				  -	      lda	#0
    468  f000				  -	      sta	POKEY_BASE+$08
    469  f000				  -	      sta	POKEY_BASE_S+$08
    470  f000				  -	      ldy	#3
    471  f000				  -	      sty	POKEY_BASE+$0f
    472  f000				  -	      sty	POKEY_BASE_S+$0f
    473  f000				  -	      ldy	#8
    474  f000				  -rmt_silence_loop
    475  f000				  -	      sta	POKEY_BASE+$00,y
    476  f000				  -	      sta	POKEY_BASE_S+$00,y
    477  f000				  -	      dey
    478  f000				  -	      bpl	rmt_silence_loop
    479  f000				  -	      ELSE
    480  f000				  -	      lda	#0
    481  f000				  -	      sta	POKEY_BASE+$08
    482  f000				  -	      ldy	#3
    483  f000				  -	      sty	POKEY_BASE+$0f
    484  f000				  -	      ldy	#8
    485  f000				  -rmt_silence_loop
    486  f000				  -	      sta	POKEY_BASE+$00,y
    487  f000				  -	      dey
    488  f000				  -	      bpl	rmt_silence_loop
    489  f000				  -	      ENDIF
    490  f000				  -	      rts
    491  f000				  -
    492  f000				  -GetSongLine
    493  f000				  -	      ldx	#0
    494  f000				  -	      stx	v_abeat
    495  f000				  -gsl_loop
    496  f000				  -	      ldx	#0
    497  f000				  -gsl_nextSongLine
    498  f000				  -	      txa
    499  f000				  -	      tay
    500  f000				  -	      lda	(ptrSongLines),y
    501  f000				  -			;* Check for special song line commands. Track numbers >= $FE are not real
    502  f000				  -			;* tracks, but control flow commands:
    503  f000				  -			;* $FE = Jump to a new song line pointer.
    504  f000				  -			;* $FF = Empty track line (handled in this 7800 port by setting a max pause).
    505  f000				  -	      cmp	#$fe	;* check for "goto line"
    506  f000				  -	      bcs	gsl_GotoOrEmpty	;* and handle it.
    507  f000				  -			;* (A) = Real track #
    508  f000				  -			;* Get the ptr to the track data and store it in ptrTracksTblLo
    509  f000				  -	      tay
    510  f000				  -	      lda	(ptrTracksTblLo),y
    511  f000				  -	      sta	trackn_TblLo,x
    512  f000				  -	      lda	(ptrTracksTblHi),y
    513  f000				  -gsl_initTrack
    514  f000				  -	      sta	trackn_TblHi,x
    515  f000				  -
    516  f000				  -	      lda	#0	;* reset the track index to 0 trackn_idx[x] = 0
    517  f000				  -	      sta	trackn_idx,x
    518  f000				  -
    519  f000				  -	      lda	#1
    520  f000				  -	      sta	trackn_pause,x	;* #1 is a new track, #0 is no new track
    521  f000				  -
    522  f000				  -	      lda	#$80	;* mark that there is no new instrument
    523  f000				  -	      sta	trackn_instrx2,x	;* #$80 is negative, will BMI when encountered,
    524  f000				  -			;* meaning no new instrument initialisation
    525  f000				  -	      inx
    526  f000				  -	      cpx	#TRACKS	;* if x < TRACKS --> gsl_nextSongLine
    527  f000				  -	      bne	gsl_nextSongLine
    528  f000				  -
    529  f000				  -			;* Done with data points of a song line, move to the next line
    530  f000				  -	      lda	ptrSongLines
    531  f000				  -	      clc
    532  f000				  -	      adc	#TRACKS
    533  f000				  -	      sta	ptrSongLines
    534  f000				  -	      bcc	gsl_skipSongHiIncrement
    535  f000				  -	      inc	ptrSongLines+1
    536  f000				  -gsl_skipSongHiIncrement
    537  f000				  -	      rts
    538  f000				  -
    539  f000				  -gsl_GotoOrEmpty
    540  f000				  -			; "cmp #$FE" performed prior to getting here
    541  f000				  -	      beq	gsl_Goto
    542  f000				  -
    543  f000				  -gsl_Empty
    544  f000				  -	      lda	#<emptytrack
    545  f000				  -	      sta	trackn_TblLo,x
    546  f000				  -	      lda	#>emptytrack
    547  f000				  -	      jmp	gsl_initTrack
    548  f000				  -
    549  f000				  -gsl_Goto
    550  f000				  -			; Data format: 0xFE, ???, low, high bytes of ptr to next song line
    551  f000				  -	      ldy	#2
    552  f000				  -	      lda	(ptrSongLines),y
    553  f000				  -	      tax
    554  f000				  -	      iny
    555  f000				  -	      lda	(ptrSongLines),y
    556  f000				  -	      sta	ptrSongLines+1
    557  f000				  -	      stx	ptrSongLines
    558  f000				  -	      jmp	gsl_loop
    559  f000				  -
    560  f000				  -GetTrackLine
    561  f000				  -rmtoo0
    562  f000				  -rmtoo0a
    563  f000				  -	      lda	v_speed
    564  f000				  -	      sta	v_bspeed
    565  f000				  -	      ldx	#0
    566  f000				  -gtl_loopTracks
    567  f000				  -	      lda	trackn_pause,x
    568  f000				  -	      beq	gtl_checkEndOfLoop
    569  f000				  -	      dec	trackn_pause,x
    570  f000				  -	      bne	gtl_checkEndOfLoop
    571  f000				  -	      inc	trackn_pause,x
    572  f000				  -
    573  f000				  -	      lda	trackn_TblLo,x
    574  f000				  -	      sta	_ns
    575  f000				  -	      lda	trackn_TblHi,x
    576  f000				  -	      sta	_ns+1
    577  f000				  -
    578  f000				  -oo1i
    579  f000				  -	      ldy	trackn_idx,x
    580  f000				  -			;* Get a track data point. The track data stream is a sequence of commands
    581  f000				  -			;* encoded by the first byte's value:
    582  f000				  -			;* 0-60 ($00-$3C): A new note. The next byte contains instrument/volume.
    583  f000				  -			;* 61	 ($3D):      Volume-only change for the current note.
    584  f000				  -			;* 62	 ($3E):      Pause. The next byte specifies duration.
    585  f000				  -			;* 63	 ($3F):      Control command (e.g., change speed, loop, or end track).
    586  f000				  -	      lda	(_ns),y
    587  f000				  -	      sta	rmtreg1
    588  f000				  -	      iny
    589  f000				  -	      lda	(_ns),y
    590  f000				  -	      sta	rmtreg2
    591  f000				  -	      iny
    592  f000				  -	      tya
    593  f000				  -	      sta	trackn_idx,x
    594  f000				  -
    595  f000				  -	      lda	rmtreg1
    596  f000				  -	      and	#$3f
    597  f000				  -	      cmp	#61
    598  f000				  -	      beq	gtl_ProcessVolumeData
    599  f000				  -	      bcs	gtl_Is62or63
    600  f000				  -
    601  f000				  -			;* if we're here it's a note, so store it.
    602  f000				  -	      sta	trackn_note,x
    603  f000				  -	      IF	FEAT_BASS16
    604  f000				  -	      sta	trackn_outnote,x
    605  f000				  -	      ENDIF
    606  f000				  -
    607  f000				  -			;* Process the instrument #
    608  f000				  -	      lda	rmtreg2
    609  f000				  -	      lsr
    610  f000				  -	      and	#$3f*2
    611  f000				  -	      sta	trackn_instrx2,x
    612  f000				  -
    613  f000				  -gtl_ProcessVolumeData
    614  f000				  -			;* The note/instrument/volume data is packed into two bytes to save space.
    615  f000				  -			;* Byte 1: [vvnnnnnn] (v=volume bits 3&2, n=note)
    616  f000				  -			;* Byte 2: [iiiiii vv] (i=instrument, v=volume bits 1&0)
    617  f000				  -			;* This sequence unpacks the 4-bit volume from the two bytes.
    618  f000				  -	      lda	rmtreg2
    619  f000				  -	      lsr
    620  f000				  -	      ror	rmtreg1
    621  f000				  -	      lsr
    622  f000				  -	      ror	rmtreg1
    623  f000				  -	      lda	rmtreg1
    624  f000				  -	      and	#$f0
    625  f000				  -	      sta	trackn_volume,x
    626  f000				  -gtl_checkEndOfLoop
    627  f000				  -	      inx
    628  f000				  -	      cpx	#TRACKS
    629  f000				  -	      bne	gtl_loopTracks
    630  f000				  -	      lda	v_bspeed
    631  f000				  -	      sta	v_speed
    632  f000				  -	      sta	v_aspeed
    633  f000				  -	      rts
    634  f000				  -
    635  f000				  -gtl_Is62or63
    636  f000				  -	      cmp	#63
    637  f000				  -	      beq	rmtoo63
    638  f000				  -	      lda	rmtreg1
    639  f000				  -	      and	#$c0
    640  f000				  -	      beq	rmtoo62_b
    641  f000				  -	      asl
    642  f000				  -	      rol
    643  f000				  -	      rol
    644  f000				  -	      sta	trackn_pause,x
    645  f000				  -	      dec	trackn_idx,x
    646  f000				  -	      jmp	gtl_checkEndOfLoop
    647  f000				  -
    648  f000				  -rmtoo62_b
    649  f000				  -	      lda	rmtreg2
    650  f000				  -	      sta	trackn_pause,x
    651  f000				  -	      jmp	gtl_checkEndOfLoop
    652  f000				  -
    653  f000				  -rmtoo63
    654  f000				  -	      lda	rmtreg1
    655  f000				  -	      bmi	rmtoo63_1X
    656  f000				  -	      lda	rmtreg2
    657  f000				  -	      sta	v_bspeed
    658  f000				  -	      jmp	oo1i
    659  f000				  -rmtoo63_1X
    660  f000				  -	      cmp	#255
    661  f000				  -	      beq	rmtoo63_11
    662  f000				  -	      lda	rmtreg2
    663  f000				  -	      sta	trackn_idx,x
    664  f000				  -	      jmp	oo1i
    665  f000				  -
    666  f000				  -rmtoo63_11
    667  f000				  -	      jsr	GetSongLine
    668  f000				  -	      jmp	rmtoo0
    669  f000				  -
    670  f000				  -InitOfNewSetInstrumentsOnly
    671  f000				  -	      ldx	#0
    672  f000				  -p2x1       ldy	trackn_instrx2,x
    673  f000				  -	      bmi	p2x2	;* if negative, no new instrument to initialise for this channel
    674  f000				  -	      jsr	SetUpInstrumentY2
    675  f000				  -	      lda	#$80
    676  f000				  -	      sta	trackn_instrx2,x
    677  f000				  -p2x2
    678  f000				  -	      inx
    679  f000				  -	      cpx	#TRACKS
    680  f000				  -	      bne	p2x1
    681  f000				  -	      rts
    682  f000				  -
    683  f000				  -			;* rmt_play:
    684  f000				  -			;*   This is the main player entry point, intended to be called once per frame
    685  f000				  -			;*   It orchestrates all player state updates.
    686  f000				  -			;*   The timing is controlled by two counters:
    687  f000				  -			;*   1. v_aspeed: Ticks per song line. When it reaches zero, a new line of
    688  f000				  -			;*	 track data is read by GetTrackLine. This is the "song tempo".
    689  f000				  -			;*   2. smc_silence_instrspeed: Ticks per instrument step. When it reaches
    690  f000				  -			;*	 zero, the instrument envelopes/effects are processed.
    691  f000				  -			;*
    692  f000				  -rmt_play
    693  f000				  -rmt_p0
    694  f000				  -	      jsr	SetPokey
    695  f000				  -rmt_p1
    696  f000				  -	      dec	smc_silence_instrspeed
    697  f000				  -	      beq	rmtp1a
    698  f000				  -	      jmp	rmt_p3
    699  f000				  -rmtp1a
    700  f000				  -	      lda	v_instrspeed
    701  f000				  -	      sta	smc_silence_instrspeed
    702  f000				  -rmt_p2
    703  f000				  -	      dec	v_aspeed
    704  f000				  -	      bne	rmt_p3
    705  f000				  -	      inc	v_abeat
    706  f000				  -	      lda	v_abeat
    707  f000				  -	      cmp	v_maxtracklen
    708  f000				  -	      bne	rmtp2o2
    709  f000				  -	      jsr	GetSongLine
    710  f000				  -rmtp2o2
    711  f000				  -	      jsr	GetTrackLine
    712  f000				  -	      jmp	rmt_p2X
    713  f000				  -go_ppnext
    714  f000				  -	      jmp	ppnext
    715  f000				  -rmt_p2X
    716  f000				  -	      jsr	InitOfNewSetInstrumentsOnly
    717  f000				  -rmt_p3
    718  f000				  -	      lda	#>frqtab
    719  f000				  -	      sta	_nr+1
    720  f000				  -
    721  f000				  -	      ldx	#0
    722  f000				  -rmtpp1
    723  f000				  -	      lda	trackn_instrhb,x
    724  f000				  -	      beq	go_ppnext
    725  f000				  -	      sta	_ns+1
    726  f000				  -	      lda	trackn_instrdb,x
    727  f000				  -	      sta	_ns
    728  f000				  -	      ldy	trackn_instridx,x
    729  f000				  -	      lda	(_ns),y
    730  f000				  -	      sta	rmtreg1
    731  f000				  -	      iny
    732  f000				  -	      lda	(_ns),y
    733  f000				  -	      sta	rmtreg2
    734  f000				  -	      iny
    735  f000				  -	      lda	(_ns),y
    736  f000				  -	      sta	rmtreg3
    737  f000				  -	      iny
    738  f000				  -	      tya
    739  f000				  -	      cmp	trackn_instrlen,x
    740  f000				  -	      bcc	rmtpp2
    741  f000				  -	      beq	rmtpp2
    742  f000				  -	      lda	#$80
    743  f000				  -	      sta	trackn_instrreachend,x
    744  f000				  -rmtpp1b
    745  f000				  -	      lda	trackn_instrlop,x
    746  f000				  -rmtpp2
    747  f000				  -	      sta	trackn_instridx,x
    748  f000				  -	      lda	rmtreg1
    749  f000				  -	      IF	STEREO8T
    750  f000				  -	      cpx	#4
    751  f000				  -	      bcc	rmtpp2s
    752  f000				  -	      lsr
    753  f000				  -	      lsr
    754  f000				  -	      lsr
    755  f000				  -	      lsr
    756  f000				  -rmtpp2s
    757  f000				  -	      ENDIF
    758  f000				  -	      and	#$0f
    759  f000				  -	      ora	trackn_volume,x
    760  f000				  -	      tay
    761  f000				  -	      lda	volumetab,y
    762  f000				  -	      pha
    763  f000				  -	      lda	rmtreg2
    764  f000				  -	      and	#$0e
    765  f000				  -	      tay
    766  f000				  -	      lda	tabbeganddistor,y
    767  f000				  -	      sta	_nr
    768  f000				  -	      pla
    769  f000				  -	      ora	tabbeganddistor+1,y
    770  f000				  -	      sta	trackn_audc,x
    771  f000				  -	      jmp	InstrumentsEffects
    772  f000				  -returnfromInstrumentsEffects
    773  f000				  -	      IF	FEAT_COMMAND2
    774  f000				  -	      lda	#0
    775  f000				  -	      sta	frqaddcmd2
    776  f000				  -	      ENDIF
    777  f000				  -	      lda	rmtreg2
    778  f000				  -	      sta	trackn_command,x
    779  f000				  -	      and	#$70
    780  f000				  -			;* This is the main instrument command dispatcher. The command number (0-7)
    781  f000				  -			;* is stored in the 3 bits of reg2 ($70 mask).
    782  f000				  -			;* The original player used self-modifying code here (sta jmx+1) to jump
    783  f000				  -			;* to the correct command handler.
    784  f000				  -			;* For a ROM-based system like the 7800:
    785  f000				  -			;*   the jump has been changed to use a table of addresses (rts_tab). The code
    786  f000				  -			;*   pushes the correct handler's address-1 onto the stack and executes an RTS,
    787  f000				  -			;*   effectively performing a calculated JMP.
    788  f000				  -			;* For a RAM-based system:
    789  f000				  -			;*   the jump uses self-modifying code to branch to the desired JMP
    790  f000				  -			;*   instruction.
    791  f000				  -	      lsr
    792  f000				  -	      lsr
    793  f000				  -	      IF	ROM_BASED
    794  f000				  -	      lsr
    795  f000				  -	      tay
    796  f000				  -	      lda	rts_tab+1,y
    797  f000				  -	      pha
    798  f000				  -	      lda	rts_tab,y
    799  f000				  -	      pha
    800  f000				  -	      rts
    801  f000				  -	      ELSE
    802  f000				  -	      sta	jmx+1
    803  f000				  -jmx
    804  f000				  -	      bcc	*
    805  f000				  -	      jmp	cmd0
    806  f000				  -	      nop
    807  f000				  -	      jmp	cmd1
    808  f000				  -	      nop
    809  f000				  -	      jmp	cmd2
    810  f000				  -	      nop
    811  f000				  -	      jmp	cmd3
    812  f000				  -	      nop
    813  f000				  -	      jmp	cmd4
    814  f000				  -	      nop
    815  f000				  -	      jmp	cmd5
    816  f000				  -	      nop
    817  f000				  -	      jmp	cmd6
    818  f000				  -	      nop
    819  f000				  -	      jmp	cmd7
    820  f000				  -	      ENDIF
    821  f000				  -cmd0
    822  f000				  -	      lda	trackn_note,x
    823  f000				  -	      clc
    824  f000				  -	      adc	rmtreg3
    825  f000				  -cmd0a
    826  f000				  -	      IF	FEAT_TABLETYPE
    827  f000				  -	      ldy	trackn_tabletypespeed,x
    828  f000				  -	      bmi	cmd0b
    829  f000				  -	      ENDIF
    830  f000				  -	      clc
    831  f000				  -	      adc	trackn_tablenote,x
    832  f000				  -	      cmp	#61
    833  f000				  -	      bcc	cmd0a1
    834  f000				  -	      lda	#0
    835  f000				  -	      sta	trackn_audc,x
    836  f000				  -	      lda	#63
    837  f000				  -cmd0a1
    838  f000				  -	      IF	FEAT_BASS16
    839  f000				  -	      sta	trackn_outnote,x
    840  f000				  -	      ENDIF
    841  f000				  -	      tay
    842  f000				  -	      lda	(_nr),y
    843  f000				  -	      clc
    844  f000				  -	      adc	trackn_shiftfrq,x
    845  f000				  -	      IF	FEAT_COMMAND2
    846  f000				  -	      clc
    847  f000				  -	      adc	frqaddcmd2
    848  f000				  -	      ENDIF
    849  f000				  -	      sta	trackn_audf,x
    850  f000				  -	      jmp	rmtpp9
    851  f000				  -	      IF	FEAT_TABLETYPE
    852  f000				  -cmd0b
    853  f000				  -	      cmp	#61
    854  f000				  -	      bcc	cmd0b1
    855  f000				  -	      lda	#0
    856  f000				  -	      sta	trackn_audc,x
    857  f000				  -	      lda	#63
    858  f000				  -cmd0b1
    859  f000				  -	      tay
    860  f000				  -	      lda	trackn_shiftfrq,x
    861  f000				  -	      clc
    862  f000				  -	      adc	trackn_tablenote,x
    863  f000				  -	      clc
    864  f000				  -	      adc	(_nr),y
    865  f000				  -	      IF	FEAT_COMMAND2
    866  f000				  -	      clc
    867  f000				  -	      adc	frqaddcmd2
    868  f000				  -	      ENDIF
    869  f000				  -	      sta	trackn_audf,x
    870  f000				  -	      jmp	rmtpp9
    871  f000				  -	      ENDIF
    872  f000				  -cmd1
    873  f000				  -	      IF	FEAT_COMMAND1
    874  f000				  -	      lda	rmtreg3
    875  f000				  -	      sta	trackn_audf,x
    876  f000				  -	      jmp	rmtpp9
    877  f000				  -	      ENDIF
    878  f000				  -cmd2
    879  f000				  -	      IF	FEAT_COMMAND2
    880  f000				  -	      lda	rmtreg3
    881  f000				  -	      sta	frqaddcmd2
    882  f000				  -	      lda	trackn_note,x
    883  f000				  -	      jmp	cmd0a
    884  f000				  -	      ENDIF
    885  f000				  -cmd3
    886  f000				  -	      IF	FEAT_COMMAND3
    887  f000				  -	      lda	trackn_note,x
    888  f000				  -	      clc
    889  f000				  -	      adc	rmtreg3
    890  f000				  -	      sta	trackn_note,x
    891  f000				  -	      jmp	cmd0a
    892  f000				  -	      ENDIF
    893  f000				  -cmd4
    894  f000				  -	      IF	FEAT_COMMAND4
    895  f000				  -	      lda	trackn_shiftfrq,x
    896  f000				  -	      clc
    897  f000				  -	      adc	rmtreg3
    898  f000				  -	      sta	trackn_shiftfrq,x
    899  f000				  -	      lda	trackn_note,x
    900  f000				  -	      jmp	cmd0a
    901  f000				  -	      ENDIF
    902  f000				  -cmd5
    903  f000				  -	      IF	FEAT_COMMAND5&&FEAT_PORTAMENTO
    904  f000				  -	      IF	FEAT_TABLETYPE
    905  f000				  -	      lda	trackn_tabletypespeed,x
    906  f000				  -	      bpl	cmd5a1
    907  f000				  -	      ldy	trackn_note,x
    908  f000				  -	      lda	(_nr),y
    909  f000				  -	      clc
    910  f000				  -	      adc	trackn_tablenote,x
    911  f000				  -	      jmp	cmd5ax
    912  f000				  -	      ENDIF
    913  f000				  -cmd5a1
    914  f000				  -	      lda	trackn_note,x
    915  f000				  -	      clc
    916  f000				  -	      adc	trackn_tablenote,x
    917  f000				  -	      cmp	#61
    918  f000				  -	      bcc	cmd5a2
    919  f000				  -	      lda	#63
    920  f000				  -cmd5a2
    921  f000				  -	      tay
    922  f000				  -	      lda	(_nr),y
    923  f000				  -cmd5ax
    924  f000				  -	      sta	trackn_portafrqc,x
    925  f000				  -	      ldy	rmtreg3
    926  f000				  -	      bne	cmd5a
    927  f000				  -	      sta	trackn_portafrqa,x
    928  f000				  -cmd5a
    929  f000				  -	      tya
    930  f000				  -	      lsr
    931  f000				  -	      lsr
    932  f000				  -	      lsr
    933  f000				  -	      lsr
    934  f000				  -	      sta	trackn_portaspeed,x
    935  f000				  -	      sta	trackn_portaspeeda,x
    936  f000				  -	      lda	rmtreg3
    937  f000				  -	      and	#$0f
    938  f000				  -	      sta	trackn_portadepth,x
    939  f000				  -	      lda	trackn_note,x
    940  f000				  -	      jmp	cmd0a
    941  f000				  -	      ELSE
    942  f000				  -	      IF	FEAT_COMMAND5
    943  f000				  -	      jmp	rmtpp9
    944  f000				  -	      ENDIF
    945  f000				  -	      ENDIF
    946  f000				  -cmd6
    947  f000				  -	      IF	FEAT_COMMAND6&&FEAT_FILTER
    948  f000				  -	      lda	rmtreg3
    949  f000				  -	      clc
    950  f000				  -	      adc	trackn_filter,x
    951  f000				  -	      sta	trackn_filter,x
    952  f000				  -	      lda	trackn_note,x
    953  f000				  -	      jmp	cmd0a
    954  f000				  -	      ELSE
    955  f000				  -	      IF	FEAT_COMMAND6
    956  f000				  -	      jmp	rmtpp9
    957  f000				  -	      ENDIF
    958  f000				  -	      ENDIF
    959  f000				  -cmd7
    960  f000				  -	      IF	FEAT_COMMAND7SETNOTE||FEAT_COMMAND7VOLUMEONLY
    961  f000				  -	      IF	FEAT_COMMAND7SETNOTE
    962  f000				  -	      lda	rmtreg3
    963  f000				  -	      IF	FEAT_COMMAND7VOLUMEONLY
    964  f000				  -	      cmp	#$80
    965  f000				  -	      beq	cmd7a
    966  f000				  -	      ENDIF
    967  f000				  -	      sta	trackn_note,x
    968  f000				  -	      jmp	cmd0a
    969  f000				  -	      ENDIF
    970  f000				  -	      IF	FEAT_COMMAND7VOLUMEONLY
    971  f000				  -cmd7a
    972  f000				  -	      lda	trackn_audc,x
    973  f000				  -	      ora	#$f0
    974  f000				  -	      sta	trackn_audc,x
    975  f000				  -	      lda	trackn_note,x
    976  f000				  -	      jmp	cmd0a
    977  f000				  -	      ENDIF
    978  f000				  -	      ENDIF
    979  f000				  -rmtpp9
    980  f000				  -	      IF	FEAT_PORTAMENTO
    981  f000				  -	      lda	trackn_portaspeeda,x
    982  f000				  -	      beq	rmtpp10
    983  f000				  -	      sec
    984  f000				  -	      sbc	#1
    985  f000				  -	      sta	trackn_portaspeeda,x
    986  f000				  -	      bne	rmtpp10
    987  f000				  -	      lda	trackn_portaspeed,x
    988  f000				  -	      sta	trackn_portaspeeda,x
    989  f000				  -	      lda	trackn_portafrqa,x
    990  f000				  -	      cmp	trackn_portafrqc,x
    991  f000				  -	      beq	rmtpp10
    992  f000				  -	      bcs	pps1
    993  f000				  -	      adc	trackn_portadepth,x
    994  f000				  -	      bcs	pps8
    995  f000				  -	      cmp	trackn_portafrqc,x
    996  f000				  -	      bcs	pps8
    997  f000				  -	      jmp	pps9
    998  f000				  -pps1
    999  f000				  -	      sbc	trackn_portadepth,x
   1000  f000				  -	      bcc	pps8
   1001  f000				  -	      cmp	trackn_portafrqc,x
   1002  f000				  -	      bcs	pps9
   1003  f000				  -pps8
   1004  f000				  -	      lda	trackn_portafrqc,x
   1005  f000				  -pps9
   1006  f000				  -	      sta	trackn_portafrqa,x
   1007  f000				  -rmtpp10
   1008  f000				  -	      lda	rmtreg2
   1009  f000				  -	      and	#$01
   1010  f000				  -	      beq	rmtpp11
   1011  f000				  -	      lda	trackn_portafrqa,x
   1012  f000				  -	      clc
   1013  f000				  -	      adc	trackn_shiftfrq,x
   1014  f000				  -	      sta	trackn_audf,x
   1015  f000				  -rmtpp11
   1016  f000				  -	      ENDIF
   1017  f000				  -ppnext
   1018  f000				  -	      inx
   1019  f000				  -	      cpx	#TRACKS
   1020  f000				  -	      beq	rmt_p4
   1021  f000				  -	      jmp	rmtpp1
   1022  f000				  -rmt_p4
   1023  f000				  -	      IF	FEAT_AUDCTLMANUALSET
   1024  f000				  -	      ldx	#3
   1025  f000				  -	      lda	#0
   1026  f000				  -qq0	      ora	trackn_audctl,x
   1027  f000				  -	      dex
   1028  f000				  -	      bpl	qq0
   1029  f000				  -	      sta	v_audctl
   1030  f000				  -			;* This section handles advanced audio effects that require multiple POKEY
   1031  f000				  -			;* channels. The priority system:
   1032  f000				  -			;* 1. Filters (highest priority): If a track enables a filter, it will
   1033  f000				  -			;*    override the channel it needs (e.g., track 0 filter uses channel 2),
   1034  f000				  -			;*    silencing whatever was playing there.
   1035  f000				  -			;* 2. 16-bit Bass (medium priority): If a filter is not active on a needed
   1036  f000				  -			;*    channel, 16-bit bass can use it (e.g., track 1 bass uses channel 0).
   1037  f000				  -			;* 3. Normal Track Playback (lowest priority).
   1038  f000				  -			;* The code first checks for and applies filters, then checks for 16-bit bass.
   1039  f000				  -qq1
   1040  f000				  -	      ldx	v_audctl
   1041  f000				  -	      ELSE
   1042  f000				  -	      ldx	#0
   1043  f000				  -	      stx	v_audctl
   1044  f000				  -	      ENDIF
   1045  f000				  -	      IF	FEAT_FILTER
   1046  f000				  -	      IF	FEAT_FILTERG0L
   1047  f000				  -	      lda	trackn_command+0
   1048  f000				  -	      bpl	qq2
   1049  f000				  -	      lda	trackn_audc+0
   1050  f000				  -	      and	#$0f
   1051  f000				  -	      beq	qq2
   1052  f000				  -	      lda	trackn_audf+0
   1053  f000				  -	      clc
   1054  f000				  -	      adc	trackn_filter+0
   1055  f000				  -	      sta	trackn_audf+2
   1056  f000				  -	      IF	FEAT_COMMAND7VOLUMEONLY&&FEAT_VOLUMEONLYG2L
   1057  f000				  -	      lda	trackn_audc+2
   1058  f000				  -	      and	#$10
   1059  f000				  -	      bne	qq1a
   1060  f000				  -	      ENDIF
   1061  f000				  -	      lda	#0
   1062  f000				  -	      sta	trackn_audc+2
   1063  f000				  -qq1a
   1064  f000				  -	      txa
   1065  f000				  -	      ora	#4
   1066  f000				  -	      tax
   1067  f000				  -	      ENDIF
   1068  f000				  -qq2
   1069  f000				  -	      IF	FEAT_FILTERG1L
   1070  f000				  -	      lda	trackn_command+1
   1071  f000				  -	      bpl	qq3
   1072  f000				  -	      lda	trackn_audc+1
   1073  f000				  -	      and	#$0f
   1074  f000				  -	      beq	qq3
   1075  f000				  -	      lda	trackn_audf+1
   1076  f000				  -	      clc
   1077  f000				  -	      adc	trackn_filter+1
   1078  f000				  -	      sta	trackn_audf+3
   1079  f000				  -	      IF	FEAT_COMMAND7VOLUMEONLY&&FEAT_VOLUMEONLYG3L
   1080  f000				  -	      lda	trackn_audc+3
   1081  f000				  -	      and	#$10
   1082  f000				  -	      bne	qq2a
   1083  f000				  -	      ENDIF
   1084  f000				  -	      lda	#0
   1085  f000				  -	      sta	trackn_audc+3
   1086  f000				  -qq2a
   1087  f000				  -	      txa
   1088  f000				  -	      ora	#2
   1089  f000				  -	      tax
   1090  f000				  -	      ENDIF
   1091  f000				  -qq3
   1092  f000				  -	      IF	FEAT_FILTERG0L||FEAT_FILTERG1L
   1093  f000				  -	      cpx	v_audctl
   1094  f000				  -	      bne	qq5
   1095  f000				  -	      ENDIF
   1096  f000				  -	      ENDIF
   1097  f000				  -	      IF	FEAT_BASS16
   1098  f000				  -	      IF	FEAT_BASS16G1L
   1099  f000				  -	      lda	trackn_command+1
   1100  f000				  -	      and	#$0e
   1101  f000				  -	      cmp	#6
   1102  f000				  -	      bne	qq4
   1103  f000				  -	      lda	trackn_audc+1
   1104  f000				  -	      and	#$0f
   1105  f000				  -	      beq	qq4
   1106  f000				  -	      ldy	trackn_outnote+1
   1107  f000				  -	      lda	frqtabbasslo,y
   1108  f000				  -	      sta	trackn_audf+0
   1109  f000				  -	      lda	frqtabbasshi,y
   1110  f000				  -	      sta	trackn_audf+1
   1111  f000				  -	      IF	FEAT_COMMAND7VOLUMEONLY&&FEAT_VOLUMEONLYG0L
   1112  f000				  -	      lda	trackn_audc+0
   1113  f000				  -	      and	#$10
   1114  f000				  -	      bne	qq3a
   1115  f000				  -	      ENDIF
   1116  f000				  -	      lda	#0
   1117  f000				  -	      sta	trackn_audc+0
   1118  f000				  -qq3a
   1119  f000				  -	      txa
   1120  f000				  -	      ora	#$50
   1121  f000				  -	      tax
   1122  f000				  -	      ENDIF
   1123  f000				  -qq4
   1124  f000				  -	      IF	FEAT_BASS16G3L
   1125  f000				  -	      lda	trackn_command+3
   1126  f000				  -	      and	#$0e
   1127  f000				  -	      cmp	#6
   1128  f000				  -	      bne	qq5
   1129  f000				  -	      lda	trackn_audc+3
   1130  f000				  -	      and	#$0f
   1131  f000				  -	      beq	qq5
   1132  f000				  -	      ldy	trackn_outnote+3
   1133  f000				  -	      lda	frqtabbasslo,y
   1134  f000				  -	      sta	trackn_audf+2
   1135  f000				  -	      lda	frqtabbasshi,y
   1136  f000				  -	      sta	trackn_audf+3
   1137  f000				  -	      IF	FEAT_COMMAND7VOLUMEONLY&&FEAT_VOLUMEONLYG2L
   1138  f000				  -	      lda	trackn_audc+2
   1139  f000				  -	      and	#$10
   1140  f000				  -	      bne	qq4a
   1141  f000				  -	      ENDIF
   1142  f000				  -	      lda	#0
   1143  f000				  -	      sta	trackn_audc+2
   1144  f000				  -qq4a
   1145  f000				  -	      txa
   1146  f000				  -	      ora	#$28
   1147  f000				  -	      tax
   1148  f000				  -	      ENDIF
   1149  f000				  -	      ENDIF
   1150  f000				  -qq5
   1151  f000				  -	      stx	v_audctl
   1152  f000				  -	      IF	STEREO8T
   1153  f000				  -	      IF	FEAT_AUDCTLMANUALSET
   1154  f000				  -	      ldx	#3
   1155  f000				  -	      lda	#0
   1156  f000				  -qs0	      ora	trackn_audctl+4,x
   1157  f000				  -	      dex
   1158  f000				  -	      bpl	qs0
   1159  f000				  -	      sta	v_audctl2
   1160  f000				  -qs1
   1161  f000				  -	      ldx	v_audctl2
   1162  f000				  -	      ELSE
   1163  f000				  -	      ldx	#0
   1164  f000				  -	      stx	v_audctl2
   1165  f000				  -	      ENDIF
   1166  f000				  -	      IF	FEAT_FILTER
   1167  f000				  -	      IF	FEAT_FILTERG0R
   1168  f000				  -	      lda	trackn_command+0+4
   1169  f000				  -	      bpl	qs2
   1170  f000				  -	      lda	trackn_audc+0+4
   1171  f000				  -	      and	#$0f
   1172  f000				  -	      beq	qs2
   1173  f000				  -	      lda	trackn_audf+0+4
   1174  f000				  -	      clc
   1175  f000				  -	      adc	trackn_filter+0+4
   1176  f000				  -	      sta	trackn_audf+2+4
   1177  f000				  -	      IF	FEAT_COMMAND7VOLUMEONLY&&FEAT_VOLUMEONLYG2R
   1178  f000				  -	      lda	trackn_audc+2+4
   1179  f000				  -	      and	#$10
   1180  f000				  -	      bne	qs1a
   1181  f000				  -	      ENDIF
   1182  f000				  -	      lda	#0
   1183  f000				  -	      sta	trackn_audc+2+4
   1184  f000				  -qs1a
   1185  f000				  -	      txa
   1186  f000				  -	      ora	#4
   1187  f000				  -	      tax
   1188  f000				  -	      ENDIF
   1189  f000				  -qs2
   1190  f000				  -	      IF	FEAT_FILTERG1R
   1191  f000				  -	      lda	trackn_command+1+4
   1192  f000				  -	      bpl	qs3
   1193  f000				  -	      lda	trackn_audc+1+4
   1194  f000				  -	      and	#$0f
   1195  f000				  -	      beq	qs3
   1196  f000				  -	      lda	trackn_audf+1+4
   1197  f000				  -	      clc
   1198  f000				  -	      adc	trackn_filter+1+4
   1199  f000				  -	      sta	trackn_audf+3+4
   1200  f000				  -	      IF	FEAT_COMMAND7VOLUMEONLY&&FEAT_VOLUMEONLYG3R
   1201  f000				  -	      lda	trackn_audc+3+4
   1202  f000				  -	      and	#$10
   1203  f000				  -	      bne	qs2a
   1204  f000				  -	      ENDIF
   1205  f000				  -	      lda	#0
   1206  f000				  -	      sta	trackn_audc+3+4
   1207  f000				  -qs2a
   1208  f000				  -	      txa
   1209  f000				  -	      ora	#2
   1210  f000				  -	      tax
   1211  f000				  -	      ENDIF
   1212  f000				  -qs3
   1213  f000				  -	      IF	FEAT_FILTERG0R||FEAT_FILTERG1R
   1214  f000				  -	      cpx	v_audctl2
   1215  f000				  -	      bne	qs5
   1216  f000				  -	      ENDIF
   1217  f000				  -	      ENDIF
   1218  f000				  -	      IF	FEAT_BASS16
   1219  f000				  -	      IF	FEAT_BASS16G1R
   1220  f000				  -	      lda	trackn_command+1+4
   1221  f000				  -	      and	#$0e
   1222  f000				  -	      cmp	#6
   1223  f000				  -	      bne	qs4
   1224  f000				  -	      lda	trackn_audc+1+4
   1225  f000				  -	      and	#$0f
   1226  f000				  -	      beq	qs4
   1227  f000				  -	      ldy	trackn_outnote+1+4
   1228  f000				  -	      lda	frqtabbasslo,y
   1229  f000				  -	      sta	trackn_audf+0+4
   1230  f000				  -	      lda	frqtabbasshi,y
   1231  f000				  -	      sta	trackn_audf+1+4
   1232  f000				  -	      IF	FEAT_COMMAND7VOLUMEONLY&&FEAT_VOLUMEONLYG0R
   1233  f000				  -	      lda	trackn_audc+0+4
   1234  f000				  -	      and	#$10
   1235  f000				  -	      bne	qs3a
   1236  f000				  -	      ENDIF
   1237  f000				  -	      lda	#0
   1238  f000				  -	      sta	trackn_audc+0+4
   1239  f000				  -qs3a
   1240  f000				  -	      txa
   1241  f000				  -	      ora	#$50
   1242  f000				  -	      tax
   1243  f000				  -	      ENDIF
   1244  f000				  -qs4
   1245  f000				  -	      IF	FEAT_BASS16G3R
   1246  f000				  -	      lda	trackn_command+3+4
   1247  f000				  -	      and	#$0e
   1248  f000				  -	      cmp	#6
   1249  f000				  -	      bne	qs5
   1250  f000				  -	      lda	trackn_audc+3+4
   1251  f000				  -	      and	#$0f
   1252  f000				  -	      beq	qs5
   1253  f000				  -	      ldy	trackn_outnote+3+4
   1254  f000				  -	      lda	frqtabbasslo,y
   1255  f000				  -	      sta	trackn_audf+2+4
   1256  f000				  -	      lda	frqtabbasshi,y
   1257  f000				  -	      sta	trackn_audf+3+4
   1258  f000				  -	      IF	FEAT_COMMAND7VOLUMEONLY&&FEAT_VOLUMEONLYG2R
   1259  f000				  -	      lda	trackn_audc+2+4
   1260  f000				  -	      and	#$10
   1261  f000				  -	      bne	qs4a
   1262  f000				  -	      ENDIF
   1263  f000				  -	      lda	#0
   1264  f000				  -	      sta	trackn_audc+2+4
   1265  f000				  -qs4a
   1266  f000				  -	      txa
   1267  f000				  -	      ora	#$28
   1268  f000				  -	      tax
   1269  f000				  -	      ENDIF
   1270  f000				  -	      ENDIF
   1271  f000				  -qs5
   1272  f000				  -	      stx	v_audctl2
   1273  f000				  -	      ENDIF
   1274  f000				  -rmt_p5
   1275  f000				  -	      lda	smc_silence_instrspeed
   1276  f000				  -	      rts
   1277  f000				  -SetPokey
   1278  f000				  -	      IF	STEREO8T
   1279  f000				  -	      ldy	v_audctl2
   1280  f000				  -	      lda	trackn_audf+0+4
   1281  f000				  -	      ldx	trackn_audf+0
   1282  f000				  -	      sta	POKEY_BASE_S+$00
   1283  f000				  -	      stx	POKEY_BASE+$00
   1284  f000				  -	      lda	trackn_audc+0+4
   1285  f000				  -	      ldx	trackn_audc+0
   1286  f000				  -	      sta	POKEY_BASE_S+$01
   1287  f000				  -	      stx	POKEY_BASE+$01
   1288  f000				  -	      lda	trackn_audf+1+4
   1289  f000				  -	      ldx	trackn_audf+1
   1290  f000				  -	      sta	POKEY_BASE_S+$02
   1291  f000				  -	      stx	POKEY_BASE+$02
   1292  f000				  -	      lda	trackn_audc+1+4
   1293  f000				  -	      ldx	trackn_audc+1
   1294  f000				  -	      sta	POKEY_BASE_S+$03
   1295  f000				  -	      stx	POKEY_BASE+$03
   1296  f000				  -	      lda	trackn_audf+2+4
   1297  f000				  -	      ldx	trackn_audf+2
   1298  f000				  -	      sta	POKEY_BASE_S+$04
   1299  f000				  -	      stx	POKEY_BASE+$04
   1300  f000				  -	      lda	trackn_audc+2+4
   1301  f000				  -	      ldx	trackn_audc+2
   1302  f000				  -	      sta	POKEY_BASE_S+$05
   1303  f000				  -	      stx	POKEY_BASE+$05
   1304  f000				  -	      lda	trackn_audf+3+4
   1305  f000				  -	      ldx	trackn_audf+3
   1306  f000				  -	      sta	POKEY_BASE_S+$06
   1307  f000				  -	      stx	POKEY_BASE+$06
   1308  f000				  -	      lda	trackn_audc+3+4
   1309  f000				  -	      ldx	trackn_audc+3
   1310  f000				  -	      sta	POKEY_BASE_S+$07
   1311  f000				  -	      stx	POKEY_BASE+$07
   1312  f000				  -	      lda	v_audctl
   1313  f000				  -	      sty	POKEY_BASE_S+$08
   1314  f000				  -	      sta	POKEY_BASE+$08
   1315  f000				  -	      ELSE
   1316  f000				  -
   1317  f000				  -	      ifconst	RMTVOLUME
   1318  f000				  -	      lda	rmtvolume
   1319  f000				  -	      sta	fourbitfadevalueint
   1320  f000				  -	      endif
   1321  f000				  -	      ldy	v_audctl
   1322  f000				  -	      ldx	trackn_audf+0
   1323  f000				  -	      lda	trackn_audc+0
   1324  f000				  -	      ifconst	RMTVOLUME
   1325  f000				  -	      jsr	fourbitfadeint
   1326  f000				  -	      endif
   1327  f000				  -	      stx	POKEY_BASE+$00+0
   1328  f000				  -	      if	HARD_OF_HEARING
   1329  f000				  -	      stx	POKEY_BASE+$00+0
   1330  f000				  -	      endif
   1331  f000				  -	      sta	POKEY_BASE+$01+0
   1332  f000				  -	      if	HARD_OF_HEARING
   1333  f000				  -	      sta	POKEY_BASE+$01+0
   1334  f000				  -	      endif
   1335  f000				  -
   1336  f000				  -	      ldx	trackn_audf+1
   1337  f000				  -	      lda	trackn_audc+1
   1338  f000				  -	      ifconst	RMTVOLUME
   1339  f000				  -	      jsr	fourbitfadeint
   1340  f000				  -	      endif
   1341  f000				  -	      stx	POKEY_BASE+$00+2
   1342  f000				  -	      if	HARD_OF_HEARING
   1343  f000				  -	      stx	POKEY_BASE+$00+2
   1344  f000				  -	      endif
   1345  f000				  -	      sta	POKEY_BASE+$01+2
   1346  f000				  -	      if	HARD_OF_HEARING
   1347  f000				  -	      sta	POKEY_BASE+$01+2
   1348  f000				  -	      endif
   1349  f000				  -
   1350  f000				  -	      ldx	trackn_audf+2
   1351  f000				  -	      lda	trackn_audc+2
   1352  f000				  -	      ifconst	RMTVOLUME
   1353  f000				  -	      jsr	fourbitfadeint
   1354  f000				  -	      endif
   1355  f000				  -	      stx	POKEY_BASE+$00+4
   1356  f000				  -	      if	HARD_OF_HEARING
   1357  f000				  -	      stx	POKEY_BASE+$00+4
   1358  f000				  -	      endif
   1359  f000				  -	      sta	POKEY_BASE+$01+4
   1360  f000				  -	      if	HARD_OF_HEARING
   1361  f000				  -	      sta	POKEY_BASE+$01+4
   1362  f000				  -	      endif
   1363  f000				  -
   1364  f000				  -	      ldx	trackn_audf+3
   1365  f000				  -	      lda	trackn_audc+3
   1366  f000				  -	      ifconst	RMTVOLUME
   1367  f000				  -	      jsr	fourbitfadeint
   1368  f000				  -	      endif
   1369  f000				  -	      stx	POKEY_BASE+$00+6
   1370  f000				  -	      if	HARD_OF_HEARING
   1371  f000				  -	      stx	POKEY_BASE+$00+6
   1372  f000				  -	      endif
   1373  f000				  -	      sta	POKEY_BASE+$01+6
   1374  f000				  -	      if	HARD_OF_HEARING
   1375  f000				  -	      sta	POKEY_BASE+$01+6
   1376  f000				  -	      endif
   1377  f000				  -
   1378  f000				  -	      sty	POKEY_BASE+$08
   1379  f000				  -	      if	HARD_OF_HEARING
   1380  f000				  -	      sty	POKEY_BASE+$08
   1381  f000				  -	      endif
   1382  f000				  -
   1383  f000				  -	      ENDIF
   1384  f000				  -	      rts
   1385  f000				  -SetUpInstrumentY2
   1386  f000				  -	      lda	(p_instrstable),y
   1387  f000				  -	      sta	trackn_instrdb,x
   1388  f000				  -	      sta	_nt
   1389  f000				  -	      iny
   1390  f000				  -	      lda	(p_instrstable),y
   1391  f000				  -	      sta	trackn_instrhb,x
   1392  f000				  -	      sta	_nt+1
   1393  f000				  -	      ldy	#0
   1394  f000				  -	      lda	(_nt),y
   1395  f000				  -	      sta	trackn_tableend,x
   1396  f000				  -	      clc
   1397  f000				  -	      adc	#1
   1398  f000				  -	      sta	trackn_instridx,x
   1399  f000				  -	      iny
   1400  f000				  -	      lda	(_nt),y
   1401  f000				  -	      sta	trackn_tablelop,x
   1402  f000				  -	      iny
   1403  f000				  -	      lda	(_nt),y
   1404  f000				  -	      sta	trackn_instrlen,x
   1405  f000				  -	      iny
   1406  f000				  -	      lda	(_nt),y
   1407  f000				  -	      sta	trackn_instrlop,x
   1408  f000				  -	      iny
   1409  f000				  -	      lda	(_nt),y
   1410  f000				  -	      sta	trackn_tabletypespeed,x
   1411  f000				  -	      IF	FEAT_TABLETYPE||FEAT_TABLEMODE
   1412  f000				  -	      and	#$3f
   1413  f000				  -	      ENDIF
   1414  f000				  -	      sta	trackn_tablespeeda,x
   1415  f000				  -	      IF	FEAT_TABLEMODE
   1416  f000				  -	      lda	(_nt),y
   1417  f000				  -	      and	#$40
   1418  f000				  -	      sta	trackn_tablemode,x
   1419  f000				  -	      ENDIF
   1420  f000				  -	      iny
   1421  f000				  -	      IF	FEAT_AUDCTLMANUALSET
   1422  f000				  -	      lda	(_nt),y
   1423  f000				  -	      sta	trackn_audctl,x
   1424  f000				  -	      ENDIF
   1425  f000				  -	      iny
   1426  f000				  -	      lda	(_nt),y
   1427  f000				  -	      sta	trackn_volumeslidedepth,x
   1428  f000				  -	      iny
   1429  f000				  -	      lda	(_nt),y
   1430  f000				  -	      sta	trackn_volumemin,x
   1431  f000				  -	      iny
   1432  f000				  -	      lda	(_nt),y
   1433  f000				  -	      sta	trackn_effdelay,x
   1434  f000				  -	      iny
   1435  f000				  -	      lda	(_nt),y
   1436  f000				  -	      tay
   1437  f000				  -	      lda	vibtabbeg,y
   1438  f000				  -	      sta	trackn_effvibratoa,x
   1439  f000				  -	      sta	trackn_effvibratobeg,x
   1440  f000				  -	      lda	vibtabbeg+1,y
   1441  f000				  -	      sta	trackn_effvibratoend,x
   1442  f000				  -	      ldy	#10
   1443  f000				  -	      lda	(_nt),y
   1444  f000				  -	      sta	trackn_effshift,x
   1445  f000				  -	      lda	#128
   1446  f000				  -	      sta	trackn_volumeslidevalue,x
   1447  f000				  -	      lda	#0
   1448  f000				  -	      sta	trackn_instrreachend,x
   1449  f000				  -	      sta	trackn_shiftfrq,x
   1450  f000				  -	      lda	#INSTRPAR
   1451  f000				  -	      sta	trackn_tablea,x
   1452  f000				  -	      tay
   1453  f000				  -	      lda	(_nt),y
   1454  f000				  -	      sta	trackn_tablenote,x
   1455  f000				  -	      IF	FEAT_FILTER
   1456  f000				  -	      lda	#1
   1457  f000				  -	      sta	trackn_filter,x
   1458  f000				  -	      ENDIF
   1459  f000				  -	      rts
   1460  f000				  -InstrumentsEffects
   1461  f000				  -	      lda	trackn_effdelay,x
   1462  f000				  -	      beq	ei2
   1463  f000				  -	      tay
   1464  f000				  -	      dey
   1465  f000				  -	      bne	ei1
   1466  f000				  -	      lda	trackn_shiftfrq,x
   1467  f000				  -	      clc
   1468  f000				  -	      adc	trackn_effshift,x
   1469  f000				  -	      clc
   1470  f000				  -	      ldy	trackn_effvibratoa,x
   1471  f000				  -	      adc	vib0,y
   1472  f000				  -	      sta	trackn_shiftfrq,x
   1473  f000				  -	      iny
   1474  f000				  -	      tya
   1475  f000				  -	      cmp	trackn_effvibratoend,x
   1476  f000				  -	      bne	ei1a
   1477  f000				  -	      lda	trackn_effvibratobeg,x
   1478  f000				  -ei1a
   1479  f000				  -	      sta	trackn_effvibratoa,x
   1480  f000				  -	      jmp	ei2
   1481  f000				  -ei1
   1482  f000				  -	      tya
   1483  f000				  -	      sta	trackn_effdelay,x
   1484  f000				  -ei2
   1485  f000				  -	      lda	trackn_tableend,x
   1486  f000				  -	      cmp	#INSTRPAR
   1487  f000				  -	      beq	ei3
   1488  f000				  -	      lda	trackn_tablespeeda,x
   1489  f000				  -	      bpl	ei2f
   1490  f000				  -ei2c
   1491  f000				  -	      lda	trackn_tablea,x
   1492  f000				  -	      clc
   1493  f000				  -	      adc	#1
   1494  f000				  -	      cmp	trackn_tableend,x
   1495  f000				  -	      bcc	ei2a
   1496  f000				  -	      beq	ei2a
   1497  f000				  -	      lda	trackn_tablelop,x
   1498  f000				  -ei2a
   1499  f000				  -	      sta	trackn_tablea,x
   1500  f000				  -	      lda	trackn_instrdb,x
   1501  f000				  -	      sta	_nt
   1502  f000				  -	      lda	trackn_instrhb,x
   1503  f000				  -	      sta	_nt+1
   1504  f000				  -	      ldy	trackn_tablea,x
   1505  f000				  -	      lda	(_nt),y
   1506  f000				  -	      IF	FEAT_TABLEMODE
   1507  f000				  -	      ldy	trackn_tablemode,x
   1508  f000				  -	      beq	ei2e
   1509  f000				  -	      clc
   1510  f000				  -	      adc	trackn_tablenote,x
   1511  f000				  -ei2e
   1512  f000				  -	      ENDIF
   1513  f000				  -	      sta	trackn_tablenote,x
   1514  f000				  -	      lda	trackn_tabletypespeed,x
   1515  f000				  -	      IF	FEAT_TABLETYPE||FEAT_TABLEMODE
   1516  f000				  -	      and	#$3f
   1517  f000				  -	      ENDIF
   1518  f000				  -ei2f
   1519  f000				  -	      sec
   1520  f000				  -	      sbc	#1
   1521  f000				  -	      sta	trackn_tablespeeda,x
   1522  f000				  -ei3
   1523  f000				  -	      lda	trackn_instrreachend,x
   1524  f000				  -	      bpl	ei4
   1525  f000				  -	      lda	trackn_volume,x
   1526  f000				  -	      beq	ei4
   1527  f000				  -	      cmp	trackn_volumemin,x
   1528  f000				  -	      beq	ei4
   1529  f000				  -	      bcc	ei4
   1530  f000				  -	      tay
   1531  f000				  -	      lda	trackn_volumeslidevalue,x
   1532  f000				  -	      clc
   1533  f000				  -	      adc	trackn_volumeslidedepth,x
   1534  f000				  -	      sta	trackn_volumeslidevalue,x
   1535  f000				  -	      bcc	ei4
   1536  f000				  -	      tya
   1537  f000				  -	      sbc	#16
   1538  f000				  -	      sta	trackn_volume,x
   1539  f000				  -ei4
   1540  f000				  -	      jmp	returnfromInstrumentsEffects
   1541  f000				  -
   1542  f000				  -rmtmoduleend
   1543  f000				  -	      echo	"  (rmtplayer module is using ",[(rmtmoduleend-rmtmodulestart)]d," bytes of rom)"
   1544  f000				  -	      echo	"  (rmtplayer module is using ",[(MEMLOC-RMTRAM-1)]d," bytes of ram)"
   1545  f000				  -
   1546  f000					      endif		; RMT
------- FILE simple.bas.asm
   1874  f000					      endif
   1875  f000					      ifnconst	included.7800vox.asm
------- FILE 7800vox.asm LEVEL 2 PASS 3
      0  f000					      include	7800vox.asm
      1  f000							; Provided under the CC0 license. See the included LICENSE.txt for details.
      2  f000
      3  f000							; AtariVox 7800basic wrapper
      4  f000
      5  f000							; to be called with
      6  f000							; A=# of bytes
      7  f000							;
      8  f000
      9  f000				  -	      ifconst	HSSUPPORT
     10  f000				  -
     11  f000				  -_7800voxstart
     12  f000				  -
     13  f000				  -AVoxReadBytes
     14  f000				  -	      sta	temp8
     15  f000				  -	      jsr	i2c_startwrite
     16  f000				  -	      bcs	eeprom_error
     17  f000				  -
     18  f000				  -	      lda	HSVoxHi
     19  f000				  -	      jsr	i2c_txbyte
     20  f000				  -	      lda	HSVoxLo
     21  f000				  -	      jsr	i2c_txbyte
     22  f000				  -	      jsr	i2c_stopwrite
     23  f000				  -
     24  f000				  -	      jsr	i2c_startread
     25  f000				  -
     26  f000				  -	      ldx	#0
     27  f000				  -AVoxReadBytesLoop
     28  f000				  -	      jsr	i2c_rxbyte
     29  f000				  -	      sta	eeprombuffer,x
     30  f000				  -	      inx
     31  f000				  -	      cpx	temp8
     32  f000				  -	      bne	AVoxReadBytesLoop
     33  f000				  -	      jsr	i2c_stopread
     34  f000				  -	      lda	#0
     35  f000				  -	      rts
     36  f000				  -
     37  f000				  -			; to be called with
     38  f000				  -			; A=# of bytes
     39  f000				  -			;
     40  f000				  -
     41  f000				  -AVoxWriteBytes
     42  f000				  -	      sta	temp8
     43  f000				  -	      jsr	i2c_startwrite
     44  f000				  -	      bcs	eeprom_error
     45  f000				  -
     46  f000				  -	      lda	HSVoxHi
     47  f000				  -	      jsr	i2c_txbyte
     48  f000				  -	      lda	HSVoxLo
     49  f000				  -	      jsr	i2c_txbyte
     50  f000				  -
     51  f000				  -	      ldx	#$00
     52  f000				  -AVoxWriteBytesLoop
     53  f000				  -	      lda	eeprombuffer,x
     54  f000				  -	      jsr	i2c_txbyte
     55  f000				  -	      inx
     56  f000				  -	      cpx	temp8
     57  f000				  -	      bne	AVoxWriteBytesLoop
     58  f000				  -	      jsr	i2c_stopwrite
     59  f000				  -
     60  f000				  -	      lda	#0
     61  f000				  -	      rts
     62  f000				  -
     63  f000				  -eeprom_error
     64  f000				  -	      lda	#$ff
     65  f000				  -	      rts
     66  f000				  -
     67  f000				  -AVoxDetect
     68  f000				  -
     69  f000				  -	      jsr	i2c_startwrite
     70  f000				  -	      bcs	eeprom_error
     71  f000				  -	      lda	#$30
     72  f000				  -	      jsr	i2c_txbyte
     73  f000				  -	      lda	#$00
     74  f000				  -	      jsr	i2c_txbyte
     75  f000				  -	      jsr	i2c_stopwrite
     76  f000				  -	      rts
     77  f000				  -
     78  f000				  -	      include	"i2c7800.inc"
     79  f000				  -	      I2C_SUBS	temp9
     80  f000				  -
     81  f000				  -_7800voxend
     82  f000				  -
     83  f000				  -	      echo	"  (7800vox module is using ",[(_7800voxend-_7800voxstart)]d," bytes)"
     84  f000				  -
     85  f000					      endif
     86  f000
------- FILE simple.bas.asm
   1877  f000					      endif
   1878  f000					      ifnconst	included.pokeysound.asm
------- FILE pokeysound.asm LEVEL 2 PASS 3
      0  f000					      include	pokeysound.asm
      1  f000							; Provided under the CC0 license. See the included LICENSE.txt for details.
      2  f000
      3  f000
      4  f000				  -	      ifconst	pokeysupport
      5  f000				  -
      6  f000				  -pokeysoundmodulestart
      7  f000				  -
      8  f000				  -mutepokey
      9  f000				  -	      lda	#0
     10  f000				  -	      ldy	#7
     11  f000				  -mutepokeyloop
     12  f000				  -	      sta	pokey1pointlo,y
     13  f000				  -	      sta	(pokeybaselo),y
     14  f000				  -	      dey
     15  f000				  -	      bpl	mutepokeyloop
     16  f000				  -	      rts
     17  f000				  -
     18  f000				  -	      ifconst	pokeysfxsupport
     19  f000				  -
     20  f000				  -checkpokeyplaying
     21  f000				  -	      ldx	#6
     22  f000				  -checkpokeyplayingloop
     23  f000				  -	      lda	pokey1pointlo,x
     24  f000				  -	      ora	pokey1pointhi,x
     25  f000				  -	      beq	pokeychannelinactive
     26  f000				  -	      jsr	playpokeysfxA	; x=channel*2
     27  f000				  -pokeychannelinactive
     28  f000				  -	      dex
     29  f000				  -	      dex
     30  f000				  -	      bpl	checkpokeyplayingloop
     31  f000				  -	      rts
     32  f000				  -
     33  f000				  -playpokeysfxA
     34  f000				  -	      txa
     35  f000				  -	      tay
     36  f000				  -	      lda	pokey1tick,x
     37  f000				  -	      beq	playpokeysfxAcont
     38  f000				  -	      sec
     39  f000				  -	      sbc	#1
     40  f000				  -	      sta	pokey1tick,x	; sound resolution is >1 frame, and we're mid-tock...
     41  f000				  -	      rts
     42  f000				  -
     43  f000				  -playpokeysfxAcont
     44  f000				  -	      lda	pokey1frames,x	; set the frame countdown for this sound chunk
     45  f000				  -	      sta	pokey1tick,x
     46  f000				  -
     47  f000				  -	      lda	pokey1priority,x	; decrease the sound's priority if its non-zero
     48  f000				  -	      beq	playpokeysfxAcont2
     49  f000				  -	      sec
     50  f000				  -	      sbc	#1
     51  f000				  -	      sta	pokey1priority,x
     52  f000				  -playpokeysfxAcont2
     53  f000				  -
     54  f000				  -			; *** FREQUENCY
     55  f000				  -	      lda	(pokey1pointlo,x)
     56  f000				  -	      sta	inttemp1
     57  f000				  -	      clc
     58  f000				  -	      adc	pokey1offset,x	; take into account any pitch modification
     59  f000				  -	      sta	(pokeybaselo),y	; PAUDF0,0
     60  f000				  -
     61  f000				  -			;advance the data pointer +1
     62  f000				  -	      inc	pokey1pointlo,x
     63  f000				  -	      bne	skippokeyhiinc1
     64  f000				  -	      inc	pokey1pointhi,x
     65  f000				  -skippokeyhiinc1
     66  f000				  -
     67  f000				  -			; *** WAVE
     68  f000				  -	      lda	(pokey1pointlo,x)
     69  f000				  -	      asl
     70  f000				  -	      asl
     71  f000				  -	      asl
     72  f000				  -	      asl		; x16
     73  f000				  -
     74  f000				  -			;advance the data pointer +1
     75  f000				  -	      inc	pokey1pointlo,x
     76  f000				  -	      bne	skippokeyhiinc2
     77  f000				  -	      inc	pokey1pointhi,x
     78  f000				  -skippokeyhiinc2
     79  f000				  -
     80  f000				  -	      ora	(pokey1pointlo,x)
     81  f000				  -	      iny
     82  f000				  -	      sta	(pokeybaselo),y
     83  f000				  -
     84  f000				  -	      ora	inttemp1	; check if F|C|V=0
     85  f000				  -	      beq	zeropokeypoint	; if so, we're at the end of the sound.
     86  f000				  -
     87  f000				  -			; advance the pointer +1, on to the next sound chunk
     88  f000				  -	      inc	pokey1pointlo,x
     89  f000				  -	      bne	skippokeyhiinc3
     90  f000				  -	      inc	pokey1pointhi,x
     91  f000				  -skippokeyhiinc3
     92  f000				  -	      rts
     93  f000				  -
     94  f000				  -zeropokeypoint
     95  f000				  -	      sta	pokey1pointlo,x
     96  f000				  -	      sta	pokey1pointhi,x
     97  f000				  -	      sta	pokey1priority,x
     98  f000				  -	      rts
     99  f000				  -
    100  f000				  -schedulepokeysfx
    101  f000				  -	      ldx	#6
    102  f000				  -schedulepokeysfxloop
    103  f000				  -	      lda	pokey1pointlo,x
    104  f000				  -	      ora	pokey1pointhi,x
    105  f000				  -	      bne	schedulespokeysearch
    106  f000				  -	      jmp	schedulepokeyX	; we found an unused channel, so use it...
    107  f000				  -schedulespokeysearch
    108  f000				  -	      dex
    109  f000				  -	      dex
    110  f000				  -	      bpl	schedulepokeysfxloop
    111  f000				  -
    112  f000				  -			; if we're here, all 4 channels are presently playing a sound...
    113  f000				  -	      ldy	#1
    114  f000				  -	      lda	(sfxinstrumentlo),y	; peek at the priority of this sfx...
    115  f000				  -	      bne	schedulepokeysfxcont1
    116  f000				  -	      rts		; ...and skip it if it's 0 priority
    117  f000				  -schedulepokeysfxcont1
    118  f000				  -
    119  f000				  -			; figure out which current sound has the lowest priority...
    120  f000				  -	      lda	#0
    121  f000				  -	      sta	temp8
    122  f000				  -	      lda	pokey1priority
    123  f000				  -	      sta	temp9
    124  f000				  -	      ldx	#6
    125  f000				  -findlowprioritypokeyloop
    126  f000				  -	      lda	pokey1priority,x
    127  f000				  -	      cmp	temp9
    128  f000				  -	      bcs	findlowprioritypokeyloopcontinue
    129  f000				  -	      sta	temp9
    130  f000				  -	      stx	temp8
    131  f000				  -findlowprioritypokeyloopcontinue
    132  f000				  -	      dex
    133  f000				  -	      dex
    134  f000				  -	      bne	findlowprioritypokeyloop
    135  f000				  -	      ldx	temp8	; the low priority channel we'll interrupt
    136  f000				  -
    137  f000				  -schedulepokeyX
    138  f000				  -			;called with X=2*pokey channel to play on...
    139  f000				  -	      ldy	#1	; get priority and sound-resolution (in frames)
    140  f000				  -	      lda	(sfxinstrumentlo),y
    141  f000				  -	      sta	pokey1priority,x
    142  f000				  -	      iny
    143  f000				  -	      lda	(sfxinstrumentlo),y
    144  f000				  -	      sta	pokey1frames,x
    145  f000				  -
    146  f000				  -	      lda	sfxinstrumentlo
    147  f000				  -	      clc
    148  f000				  -	      adc	#3
    149  f000				  -	      sta	pokey1pointlo,x
    150  f000				  -	      lda	sfxinstrumenthi
    151  f000				  -	      adc	#0
    152  f000				  -	      sta	pokey1pointhi,x
    153  f000				  -	      lda	sfxpitchoffset
    154  f000				  -	      sta	pokey1offset,x
    155  f000				  -	      lda	#0
    156  f000				  -	      sta	pokey1tick,x
    157  f000				  -	      rts
    158  f000				  -	      else
    159  f000				  -schedulepokeysfx		; just some stubs
    160  f000				  -checkpokeyplaying
    161  f000				  -	      rts
    162  f000				  -	      endif		; pokeysfxsupport
    163  f000				  -
    164  f000				  -			; pokey detection routine. we check for pokey in the XBOARD/XM location,
    165  f000				  -			; and the standard $4000 location.
    166  f000				  -			; if pokey the pokey is present, this routine will reset it.
    167  f000				  -	      ifconst	pokeyaddress
    168  f000				  -detectpokeylocation
    169  f000				  -	      lda	#<pokeyaddress
    170  f000				  -	      sta	pokeybaselo
    171  f000				  -	      lda	#>pokeyaddress
    172  f000				  -	      sta	pokeybasehi
    173  f000				  -	      lda	#$ff
    174  f000				  -	      sta	pokeydetected
    175  f000				  -
    176  f000				  -	      if	pokeyaddress = $450
    177  f000				  -	      lda	XCTRL1s
    178  f000				  -	      ora	#%00010100
    179  f000				  -	      sta	XCTRL1s
    180  f000				  -	      sta	XCTRL1
    181  f000				  -	      endif
    182  f000				  -
    183  f000				  -
    184  f000				  -	      lda	#0
    185  f000				  -	      ldy	#15
    186  f000				  -clearpokeyloop
    187  f000				  -	      sta	(pokeybase),y
    188  f000				  -	      dey
    189  f000				  -	      bpl	clearpokeyloop
    190  f000				  -			; take pokey out of reset...
    191  f000				  -	      ldy	#PSKCTL
    192  f000				  -	      lda	#3
    193  f000				  -	      sta	(pokeybase),y
    194  f000				  -	      ldy	#PAUDCTL
    195  f000				  -	      lda	#0
    196  f000				  -	      sta	(pokeybase),y
    197  f000				  -	      rts
    198  f000				  -	      else		; !pokeyaddress
    199  f000				  -detectpokeylocation
    200  f000				  -			;XBoard/XM...
    201  f000				  -	      ldx	#2
    202  f000				  -detectpokeyloop
    203  f000				  -	      lda	XCTRL1s
    204  f000				  -	      ora	#%00010100
    205  f000				  -	      and	POKEYXMMASK,x
    206  f000				  -	      sta	XCTRL1s
    207  f000				  -	      sta	XCTRL1
    208  f000				  -
    209  f000				  -	      lda	POKEYCHECKLO,x
    210  f000				  -	      sta	pokeybaselo
    211  f000				  -	      lda	POKEYCHECKHI,x
    212  f000				  -	      sta	pokeybasehi
    213  f000				  -	      jsr	checkforpokey
    214  f000				  -	      lda	pokeydetected
    215  f000				  -	      beq	foundpokeychip
    216  f000				  -	      dex
    217  f000				  -	      bpl	detectpokeyloop
    218  f000				  -foundpokeychip
    219  f000				  -	      eor	#$ff	; invert state for 7800basic if...then test
    220  f000				  -	      sta	pokeydetected
    221  f000				  -	      rts
    222  f000				  -
    223  f000				  -POKEYXMMASK
    224  f000				  -			;     XM POKEY on    XM POKEY off   XM POKEY off
    225  f000				  -	      .byte	%11111111, %11101111, %11101111
    226  f000				  -
    227  f000				  -POKEYCHECKLO
    228  f000				  -	      .byte	<$0450, <$0450, <$4000
    229  f000				  -POKEYCHECKHI
    230  f000				  -	      .byte	>$0450, >$0450, >$4000
    231  f000				  -
    232  f000				  -checkforpokey
    233  f000				  -	      ldy	#$0f
    234  f000				  -	      lda	#$00
    235  f000				  -	      sta	pokeydetected	; start off by assuming pokey will be detected
    236  f000				  -resetpokeyregistersloop
    237  f000				  -	      sta	(pokeybase),y
    238  f000				  -	      dey
    239  f000				  -	      bpl	resetpokeyregistersloop
    240  f000				  -
    241  f000				  -	      ldy	#PAUDCTL
    242  f000				  -	      sta	(pokeybase),y
    243  f000				  -	      ldy	#PSKCTL
    244  f000				  -	      sta	(pokeybase),y
    245  f000				  -
    246  f000				  -			; let the dust settle...
    247  f000				  -	      nop
    248  f000				  -	      nop
    249  f000				  -	      nop
    250  f000				  -
    251  f000				  -	      lda	#4
    252  f000				  -	      sta	temp9
    253  f000				  -pokeycheckloop1
    254  f000				  -			; we're in reset, so the RANDOM register should read $ff...
    255  f000				  -	      ldy	#PRANDOM
    256  f000				  -	      lda	(pokeybase),y
    257  f000				  -	      cmp	#$ff
    258  f000				  -	      bne	nopokeydetected
    259  f000				  -	      dec	temp9
    260  f000				  -	      bne	pokeycheckloop1
    261  f000				  -
    262  f000				  -			; take pokey out of reset...
    263  f000				  -	      ldy	#PSKCTL
    264  f000				  -	      lda	#3
    265  f000				  -	      sta	(pokeybase),y
    266  f000				  -	      ldy	#PAUDCTL
    267  f000				  -	      lda	#0
    268  f000				  -	      sta	(pokeybase),y
    269  f000				  -
    270  f000				  -			; let the dust settle again...
    271  f000				  -	      nop
    272  f000				  -	      nop
    273  f000				  -	      nop
    274  f000				  -
    275  f000				  -	      lda	#4
    276  f000				  -	      sta	temp9
    277  f000				  -pokeycheckloop2
    278  f000				  -			; we're out of reset, so RANDOM should read non-$ff...
    279  f000				  -	      ldy	#PRANDOM
    280  f000				  -	      lda	(pokeybase),y
    281  f000				  -	      cmp	#$ff
    282  f000				  -	      beq	skippokeycheckreturn
    283  f000				  -	      rts
    284  f000				  -skippokeycheckreturn
    285  f000				  -	      dec	temp9
    286  f000				  -	      bne	pokeycheckloop2
    287  f000				  -nopokeydetected
    288  f000				  -	      dec	pokeydetected	; pokeydetected=#$ff
    289  f000				  -	      rts
    290  f000				  -
    291  f000				  -	      endif		; !pokeyaddress
    292  f000				  -
    293  f000				  -pokeysoundmoduleend
    294  f000				  -
    295  f000				  -	      echo	"  (pokeysound module is using ",[(pokeysoundmoduleend-pokeysoundmodulestart)]d," bytes of rom)"
    296  f000				  -
    297  f000					      endif		; pokeysupport
------- FILE simple.bas.asm
   1880  f000					      endif
   1881  f000					      ifnconst	included.snes2atari.asm
------- FILE snes2atari.asm LEVEL 2 PASS 3
      0  f000					      include	snes2atari.asm
      1  f000							; Provided under the CC0 license. See the included LICENSE.txt for details.
      2  f000
      3  f000				  -	      ifconst	SNES2ATARISUPPORT
      4  f000				  -snes2atarimodulestart
      5  f000				  -
      6  f000				  -SNES_CLOCK_PORT_BIT
      7  f000				  -	      .byte	$10,$01
      8  f000				  -SNES_CTLSWA_MASK
      9  f000				  -	      .byte	$30,$03
     10  f000				  -SNES_CTLSWA_SIGNAL
     11  f000				  -	      .byte	$C0,$0C
     12  f000				  -
     13  f000				  -			; Probe each port for SNES, and see if autodetection succeeds anywhere.
     14  f000				  -SNES_AUTODETECT
     15  f000				  -	      ifconst	HSSUPPORT
     16  f000				  -			; ** an atarivox might be plugged in, so we skip scanning the second
     17  f000				  -			; ** port for a snes if vox was detected...
     18  f000				  -	      lda	hsdevice	; b1 high means atarivox/savekey was detected
     19  f000				  -	      lsr
     20  f000				  -	      and	#1
     21  f000				  -	      eor	#1
     22  f000				  -	      tax
     23  f000				  -	      else
     24  f000				  -	      ldx	#1
     25  f000				  -	      endif		; HSSUPPORT
     26  f000				  -
     27  f000				  -SNES_AUTODETECT_LOOP
     28  f000				  -	      ifnconst	MULTIBUTTON	; snesdetect shouldn't be used in multibutton mode
     29  f000				  -	      lda	#1	; proline
     30  f000				  -	      sta	port0control,x
     31  f000				  -	      jsr	setportforinput
     32  f000				  -	      jsr	setonebuttonmode
     33  f000				  -	      jsr	SNES_READ
     34  f000				  -	      lda	snesdetected0,x
     35  f000				  -	      bne	SNES_AUTODETECT_FOUND
     36  f000				  -			; detection failed
     37  f000				  -	      jsr	setportforinput
     38  f000				  -	      jsr	settwobuttonmode
     39  f000				  -	      dex
     40  f000				  -	      bpl	SNES_AUTODETECT_LOOP
     41  f000				  -	      rts
     42  f000				  -SNES_AUTODETECT_FOUND
     43  f000				  -	      lda	#11	; formally set the snes controller
     44  f000				  -	      sta	port0control,x
     45  f000				  -	      stx	snesport
     46  f000				  -	      endif		; !MULTIBUTTON
     47  f000				  -	      rts
     48  f000					      endif		; SNES2ATARISUPPORT
     49  f000
     50  f000				   snes2atarihandler
     51  f000				  -	      ifconst	SNES2ATARISUPPORT
     52  f000				  -SNES2ATARI
     53  f000				  -	      jsr	SNES_READ
     54  f000				  -	      jmp	buttonreadloopreturn
     55  f000				  -
     56  f000				  -SNES_READ
     57  f000				  -			; x=0 for left port, x=1 for right
     58  f000				  -	      lda	port0control,x
     59  f000				  -	      cmp	#11	; snes
     60  f000				  -	      bne	snes2atari_signal_go	; if this is a first auto-detection read, go ahead and signal
     61  f000				  -	      lda	snesdetected0,x
     62  f000				  -	      bne	snes2atari_signal_skip	; if snes was available in previous frames, skip signalling
     63  f000				  -snes2atari_signal_go
     64  f000				  -	      jsr	SNES2ATARI_SIGNAL
     65  f000				  -snes2atari_signal_skip
     66  f000				  -
     67  f000				  -	      lda	CTLSWA
     68  f000				  -	      and	SWCHA_DIRMASK+1,x	; preserve other nibble
     69  f000				  -	      ora	SNES_CTLSWA_MASK,x
     70  f000				  -	      sta	CTLSWA	; enable pins UP/DOWN to work as outputs
     71  f000				  -
     72  f000				  -	      lda	SWCHA
     73  f000				  -	      and	SWCHA_DIRMASK+1,x	; preserve other nibble
     74  f000				  -	      ora	SNES_CTLSWA_MASK,x
     75  f000				  -
     76  f000				  -	      sta	SWCHA	; latch+clock high
     77  f000				  -	      nop
     78  f000				  -	      nop
     79  f000				  -	      nop
     80  f000				  -	      nop
     81  f000				  -	      nop
     82  f000				  -	      nop
     83  f000				  -	      nop
     84  f000				  -	      lda	SWCHA
     85  f000				  -	      and	SWCHA_DIRMASK+1,x	; preserve other nibble
     86  f000				  -	      sta	SWCHA	; latch and clock low
     87  f000				  -	      ldy	#16	; 16 bits
     88  f000				  -SNES2ATARILOOP
     89  f000				  -	      rol	INPT4,x	; sample data into carry
     90  f000				  -	      lda	SWCHA
     91  f000				  -	      and	SWCHA_DIRMASK+1,x	; preserve other nibble
     92  f000				  -	      ora	SNES_CLOCK_PORT_BIT,x
     93  f000				  -	      sta	SWCHA	; clock low
     94  f000				  -	      rol	snes2atari0lo,x
     95  f000				  -	      rol	snes2atari0hi,x
     96  f000				  -	      lda	SWCHA
     97  f000				  -	      and	SWCHA_DIRMASK+1,x	; preserve other nibble
     98  f000				  -	      sta	SWCHA	; latch and clock low
     99  f000				  -	      dey		; next bit
    100  f000				  -	      bne	SNES2ATARILOOP
    101  f000				  -	      rol	INPT4,x	; 17th bit should be lo if controller is there.
    102  f000				  -	      rol		; 17th snes bit into A low bit
    103  f000				  -	      eor	snes2atari0lo,x	; 16th bit should be hi if controller is there.
    104  f000				  -	      and	#1
    105  f000				  -	      sta	snesdetected0,x
    106  f000				  -	      beq	SNES_STOP_CLOCK	; if snes isn't detected, leave port in default state
    107  f000				  -	      stx	snesport	; snesport keeps the index of the latest autodetected controller
    108  f000				  -	      lda	SWCHA
    109  f000				  -	      and	SWCHA_DIRMASK+1,x	; preserve other nibble
    110  f000				  -	      ora	SNES_CLOCK_PORT_BIT,x
    111  f000				  -	      jmp	SNES_STOP_CLOCK
    112  f000				  -SNES_STOP_CLOCK
    113  f000				  -	      sta	SWCHA	; clock low
    114  f000				  -	      lda	CTLSWA
    115  f000				  -	      and	SWCHA_DIRMASK+1,x	; preserve other nibble
    116  f000				  -			;ora SNES_CLOCK_PORT_BIT,x
    117  f000				  -	      sta	CTLSWA	; set port bits to input avoid conflict with other drivers
    118  f000				  -	      ifconst	MULTIBUTTON
    119  f000				  -	      lda	snesdetected0,x
    120  f000				  -	      bne	snesexit
    121  f000				  -	      lda	#1	; proline
    122  f000				  -	      sta	port0control,x
    123  f000				  -	      jmp	settwobuttonmode
    124  f000				  -snesexit
    125  f000				  -	      lda	#6
    126  f000				  -	      sta	multibuttoncount0,x
    127  f000				  -			; stuff directions into sSWCHA nibble and buttons into sINPT1,x...
    128  f000				  -	      lda	s2a_joyshiftcount,x
    129  f000				  -	      tay
    130  f000				  -	      lda	snes2atari0hi,x
    131  f000				  -snesjoypadloop
    132  f000				  -	      lsr
    133  f000				  -	      rol	inttemp6
    134  f000				  -	      dey
    135  f000				  -	      bpl	snesjoypadloop
    136  f000				  -	      lda	sSWCHA
    137  f000				  -	      ora	SWCHA_DIRMASK,x	; turn off the bits for this port
    138  f000				  -	      sta	sSWCHA
    139  f000				  -	      lda	inttemp6
    140  f000				  -	      ora	SWCHA_DIRMASK+1,x	; don't change the other port
    141  f000				  -	      and	sSWCHA
    142  f000				  -	      sta	sSWCHA
    143  f000				  -
    144  f000				  -			; snes2atari0hi = B  Y  Se St *  *  *	*
    145  f000				  -			; snes2atari0lo = A  X  Ls Rs
    146  f000				  -			; sINPT1	 = B  A  Y  X  Ls Rs Se St
    147  f000				  -	      lda	snes2atari0lo,x
    148  f000				  -	      sta	inttemp5
    149  f000				  -	      lda	snes2atari0hi,x
    150  f000				  -	      sta	inttemp6
    151  f000				  -	      asl	inttemp5	; A
    152  f000				  -	      rol
    153  f000				  -	      asl	inttemp6	; B
    154  f000				  -	      rol
    155  f000				  -	      asl	inttemp6	; Y
    156  f000				  -	      rol
    157  f000				  -	      asl	inttemp5	; X
    158  f000				  -	      rol
    159  f000				  -	      asl	inttemp5	; Ls
    160  f000				  -	      rol
    161  f000				  -	      asl	inttemp5	; Rs
    162  f000				  -	      rol
    163  f000				  -	      asl	inttemp6	; Ls
    164  f000				  -	      rol
    165  f000				  -	      asl	inttemp6	; Rs
    166  f000				  -	      rol
    167  f000				  -	      eor	#%11000000	; invert to match proline
    168  f000				  -	      sta	sINPT1,x
    169  f000				  -	      endif		; MULTIBUTTON
    170  f000				  -	      rts
    171  f000				  -SNES2ATARI_SIGNAL
    172  f000				  -			; signal to SNES2ATARI++ that we want SNES mode...
    173  f000				  -	      lda	CTLSWA
    174  f000				  -	      and	SWCHA_DIRMASK+1,x	; preserve other nibble
    175  f000				  -	      ora	SNES_CTLSWA_SIGNAL,x
    176  f000				  -	      sta	CTLSWA
    177  f000				  -	      lda	SWCHA
    178  f000				  -	      and	SWCHA_DIRMASK+1,x	; preserve other nibble
    179  f000				  -	      sta	SWCHA
    180  f000				  -	      ldy	#16
    181  f000				  -SNES_SIGNAL_LOOP
    182  f000				  -	      dey
    183  f000				  -	      bne	SNES_SIGNAL_LOOP
    184  f000				  -	      lda	SWCHA
    185  f000				  -	      ora	SWCHA_DIRMASK,x
    186  f000				  -	      sta	SWCHA
    187  f000				  -	      rts
    188  f000				  -s2a_joyshiftcount
    189  f000				  -	      .byte	7,3
    190  f000				  -snes2atarimoduleend
    191  f000				  -	      echo	"  (snes2atari module is using ",[(snes2atarimoduleend-snes2atarimodulestart)]d," bytes of rom)"
    192  f000					      endif		; SNES2ATARISUPPORT
    193  f000
    194  f000
------- FILE simple.bas.asm
   1883  f000					      endif
   1884  f000					      ifnconst	included.mega7800.asm
------- FILE mega7800.asm LEVEL 2 PASS 3
      0  f000					      include	mega7800.asm
      1  f000							; Provided under the CC0 license. See the included LICENSE.txt for details.
      2  f000
      3  f000				   mega7800handlerstart
      4  f000				   mega7800handler
      5  f000				  -	      ifconst	MEGA7800SUPPORT
      6  f000				  -
      7  f000				  -			; ** stuff the joyick directions into the shadow register
      8  f000				  -	      lda	sSWCHA	; clear previous dirs for this pad, from
      9  f000				  -	      ora	SWCHA_DIRMASK,x	; our sSWCHA nibble.
     10  f000				  -	      sta	sSWCHA
     11  f000				  -	      lda	SWCHA	; load the actual joystick dirs, ensuring
     12  f000				  -	      ora	SWCHA_DIRMASK+1,x	; we don't change the other nibble.
     13  f000				  -	      and	sSWCHA
     14  f000				  -	      sta	sSWCHA
     15  f000				  -
     16  f000				  -			; x=0 for left port, x=1 for right
     17  f000				  -
     18  f000				  -	      lda	#0
     19  f000				  -	      sta	inttemp5	; temporary button-state storage
     20  f000				  -	      sta	inttemp6	; temporary button-state storage
     21  f000				  -
     22  f000				  -	      lda	CTLSWA
     23  f000				  -	      and	SWCHA_DIRMASK+1,x	; preserve other port nibble
     24  f000				  -	      ora	MEGA_INIT,x
     25  f000				  -	      sta	CTLSWA	; enable pins UP/DOWN to work as outputs
     26  f000				  -
     27  f000				  -			; the controller type bits take a few cycles to get set after we start
     28  f000				  -			; an extended read, so we'll start the first extended read early...
     29  f000				  -	      lda	SWCHA
     30  f000				  -	      and	SWCHA_DIRMASK+1,x	; preserve other port nibble
     31  f000				  -	      sta	SWCHA	; all bits are low, which STARTS the extended read
     32  f000				  -	      nop
     33  f000				  -	      nop
     34  f000				  -
     35  f000				  -			; first read  will be pad state (mega7800 connect and controller type)
     36  f000				  -			; second read will be 3 button support (SACB)
     37  f000				  -			; third read  will be 6 button support (MXYZ)
     38  f000				  -
     39  f000				  -	      ldy	#5	; read 6x states, with the first 2x being the controller type
     40  f000				  -m7readloop
     41  f000				  -	      lda	SWCHA
     42  f000				  -	      and	SWCHA_DIRMASK+1,x	; preserve other port nibble
     43  f000				  -	      sta	SWCHA	; all bits are low, which STARTS the read
     44  f000				  -
     45  f000				  -	      lda	SWCHA
     46  f000				  -	      cpx	#1
     47  f000				  -	      bne	m7skipp1shift
     48  f000				  -	      asl
     49  f000				  -	      asl
     50  f000				  -	      asl
     51  f000				  -	      asl
     52  f000				  -m7skipp1shift
     53  f000				  -	      asl		; button bit 1 into carry
     54  f000				  -	      rol	inttemp6
     55  f000				  -	      rol	inttemp5
     56  f000				  -	      asl		; button bit 0 into carry
     57  f000				  -	      rol	inttemp6
     58  f000				  -	      rol	inttemp5
     59  f000				  -
     60  f000				  -	      lda	SWCHA
     61  f000				  -	      and	SWCHA_DIRMASK+1,x	; preserve other port nibble
     62  f000				  -	      ora	MEGA_NEXT,x
     63  f000				  -	      sta	SWCHA
     64  f000				  -
     65  f000				  -	      dey
     66  f000				  -	      bpl	m7readloop
     67  f000				  -
     68  f000				  -	      lda	CTLSWA
     69  f000				  -	      and	SWCHA_DIRMASK+1,x	; preserve other port nibble
     70  f000				  -	      sta	CTLSWA	; set this port back to input
     71  f000				  -
     72  f000				  -			; if mega7800 isn't detected this frame, unpress any buttons...
     73  f000				  -	      lda	inttemp5
     74  f000				  -	      and	#%00000011
     75  f000				  -	      beq	m7skipscuttle
     76  f000				  -	      lda	#$ff
     77  f000				  -	      sta	inttemp6
     78  f000				  -	      ifconst	MULTIBUTTON
     79  f000				  -			; the controller isn't present... revert to proline
     80  f000				  -	      lda	#1	; proline
     81  f000				  -	      sta	port0control,x
     82  f000				  -	      rts
     83  f000				  -	      endif		; MULTIBUTTON
     84  f000				  -m7skipscuttle
     85  f000				  -	      ifconst	MULTIBUTTON
     86  f000				  -	      lda	inttemp5
     87  f000				  -	      lsr
     88  f000				  -	      lsr
     89  f000				  -	      and	#3
     90  f000				  -	      tay
     91  f000				  -	      lda	megabuttons,y
     92  f000				  -	      sta	multibuttoncount0,x
     93  f000				  -	      endif		; MULTIBUTTON
     94  f000				  -
     95  f000				  -	      lda	inttemp5
     96  f000				  -	      sta	mega7800state0,x
     97  f000				  -	      lda	inttemp6
     98  f000				  -	      sta	mega7800data0,x
     99  f000				  -
    100  f000				  -	      ifconst	MULTIBUTTON
    101  f000				  -			; now update the genric multi-button bits...
    102  f000				  -	      ldy	#7
    103  f000				  -m7shuffleloop
    104  f000				  -	      lda	inttemp6
    105  f000				  -	      and	m7reorder,y
    106  f000				  -	      clc
    107  f000				  -	      adc	#$FF	; bit value in carry
    108  f000				  -	      rol	inttemp5
    109  f000				  -	      dey
    110  f000				  -	      bpl	m7shuffleloop
    111  f000				  -	      lda	inttemp5
    112  f000				  -	      eor	#%11000000
    113  f000				  -	      sta	sINPT1,x
    114  f000				  -	      rts
    115  f000				  -
    116  f000				  -megabuttons
    117  f000				  -	      .byte	6,2,3,2
    118  f000				  -m7reorder
    119  f000				  -			;	  S	     M	       Z	 Y
    120  f000				  -	      .byte	%00100000,%00000010,%00000100,%00001000
    121  f000				  -			;	  X	     C	       A	 B
    122  f000				  -	      .byte	%00000001,%10000000,%00010000,%01000000
    123  f000				  -	      else		;  !MULTIBUTTON
    124  f000				  -	      rts
    125  f000				  -	      endif		; !MULTIBUTTON
    126  f000				  -
    127  f000				  -MEGA_INIT
    128  f000				  -	      .byte	%00110000,%00000011
    129  f000				  -MEGA_NEXT
    130  f000				  -	      .byte	%00100000,%00000010
    131  f000				  -
    132  f000				  -mega7800handlerend
    133  f000				  -	      echo	"  (mega7800 module is using ",[(mega7800handlerend-mega7800handlerstart)]d," bytes of rom)"
    134  f000				  -
    135  f000					      endif		; MEGA7800SUPPORT
    136  f000
------- FILE simple.bas.asm
   1886  f000					      endif
   1887  f000					      ifnconst	included.tracker.asm
------- FILE tracker.asm LEVEL 2 PASS 3
      0  f000					      include	tracker.asm
      1  f000							; Provided under the CC0 license. See the included LICENSE.txt for details.
      2  f000
      3  f000
      4  f000				  -	      ifconst	MUSICTRACKER
      5  f000				  -
      6  f000				  -trackerstart
      7  f000				  -
      8  f000				  -			; ** songtempo lists how many 256ths of a frame a 16th note lasts
      9  f000				  -			; ** the player operates on a 16th note grid.
     10  f000				  -
     11  f000				  -servicesongover
     12  f000				  -	      rts
     13  f000				  -servicesong
     14  f000				  -	      ifconst	PAUSESILENT
     15  f000				  -	      lda	pausestate
     16  f000				  -	      bne	servicesongover
     17  f000				  -	      endif
     18  f000				  -	      lda	songtempo
     19  f000				  -	      beq	servicesongover	; ** if song is off/paused then return
     20  f000				  -servicesongcontinue
     21  f000				  -	      lda	sfxschedulelock
     22  f000				  -	      sta	sfxschedulemissed
     23  f000				  -	      bne	servicesongover
     24  f000				  -	      lda	songtempo
     25  f000				  -	      clc
     26  f000				  -	      adc	songtick	; add songtempo to songtick until it rolls over
     27  f000				  -	      sta	songtick	; this is how we break away from 50/60Hz timing.
     28  f000				  -	      bcc	servicesongover
     29  f000				  -			; ** if we're here a new 16th note has passed
     30  f000				  -			; ** check if a new note is due on any of the 4 channels
     31  f000				  -servicesongredo
     32  f000				  -	      ldx	#3
     33  f000				  -checkchannelloop
     34  f000				  -	      dec	songchannel1busywait,x
     35  f000				  -	      bpl	carryoncheckingchannel
     36  f000				  -	      txa
     37  f000				  -	      pha		; save X for the loop
     38  f000				  -	      jsr	processsongdata
     39  f000				  -	      pla		; restore X for the loop
     40  f000				  -	      tax
     41  f000				  -carryoncheckingchannel
     42  f000				  -	      dex
     43  f000				  -	      bpl	checkchannelloop
     44  f000				  -	      lda	inactivechannelcount
     45  f000				  -	      cmp	#15
     46  f000				  -	      bne	skipstopsong
     47  f000				  -	      lda	songloops
     48  f000				  -	      bne	doasongloop
     49  f000				  -			;lda #0
     50  f000				  -	      sta	songtempo	; all channels are done. stop the song
     51  f000				  -	      rts
     52  f000				  -doasongloop
     53  f000				  -	      bmi	skipsongloopadjust
     54  f000				  -	      dec	songloops
     55  f000				  -skipsongloopadjust
     56  f000				  -	      jsr	setsongchannels
     57  f000				  -	      jmp	servicesongredo
     58  f000				  -skipstopsong
     59  f000				  -	      rts
     60  f000				  -
     61  f000				  -processsongdata
     62  f000				  -			; channel needs processing
     63  f000				  -			; X=channel #
     64  f000				  -
     65  f000				  -	      txa
     66  f000				  -	      clc
     67  f000				  -	      adc	songchannel1stackdepth,x	; stack depth value will be 0, 4, or 8
     68  f000				  -	      tay
     69  f000				  -
     70  f000				  -
     71  f000				  -			; ** indirect x is cumbersome with mult-byte commands.
     72  f000				  -			; ** setup a pointer to the song data for indirect y addressing.
     73  f000				  -	      lda	songchannel1layer1lo,y
     74  f000				  -	      sta	songdatalo
     75  f000				  -	      lda	songchannel1layer1hi,y
     76  f000				  -	      sta	songdatahi
     77  f000				  -			;ora songdatalo
     78  f000				  -	      bne	channelhasdata
     79  f000				  -			;channel data is pointing at $0000
     80  f000				  -	      lda	#$7F
     81  f000				  -	      sta	songchannel1busywait,x	; skip a bunch of notes
     82  f000				  -setchannelcountbits
     83  f000				  -	      lda	channel2bits,x
     84  f000				  -	      ora	inactivechannelcount
     85  f000				  -	      sta	inactivechannelcount
     86  f000				  -	      rts
     87  f000				  -channelhasdata
     88  f000				  -
     89  f000				  -	      sty	songstackindex
     90  f000				  -	      ldy	#0
     91  f000				  -	      lda	(songdatalo),y	; ** load in the next byte of song data, so we can decode it
     92  f000				  -	      cmp	#$ff
     93  f000				  -	      bne	carryoncheckingdatatype	; ** $ff=pattern end marker
     94  f000				  -	      jmp	handlechannelEOD
     95  f000				  -
     96  f000				  -carryoncheckingdatatype
     97  f000				  -	      and	#$F0
     98  f000				  -	      cmp	#$C0
     99  f000				  -	      beq	handlechannelrest	; 0000XXXX=rest
    100  f000				  -	      cmp	#$F0
    101  f000				  -	      beq	handlemultibytecommand
    102  f000				  -	      cmp	#$D0
    103  f000				  -	      beq	handlesemiup
    104  f000				  -	      cmp	#$E0
    105  f000				  -	      beq	handlesemidown
    106  f000				  -handlenotedata
    107  f000				  -			; ** TODO: note playing is a terrible choice for fall-through
    108  f000				  -
    109  f000				  -			; ** its simple note data, prepare arguments for schedulesfx
    110  f000				  -
    111  f000				  -			; ** set the note length
    112  f000				  -	      lda	(songdatalo),y
    113  f000				  -	      and	#$0F
    114  f000				  -	      sta	songchannel1busywait,x
    115  f000				  -
    116  f000				  -			; ** load the instrument
    117  f000				  -	      lda	songchannel1instrumentlo,x
    118  f000				  -	      sta	sfxinstrumentlo
    119  f000				  -	      lda	songchannel1instrumenthi,x
    120  f000				  -	      sta	sfxinstrumenthi
    121  f000				  -
    122  f000				  -			; ** get the note, and transpose
    123  f000				  -	      lda	(songdatalo),y
    124  f000				  -	      lsr
    125  f000				  -	      lsr
    126  f000				  -	      lsr
    127  f000				  -	      lsr
    128  f000				  -	      clc
    129  f000				  -	      adc	songchannel1transpose,x	; ** add it to the transpose index
    130  f000				  -			; ** its up the respective SFX scheduler to handle and save the note data
    131  f000				  -	      sta	sfxnoteindex
    132  f000				  -
    133  f000				  -	      lda	#0
    134  f000				  -	      sta	sfxpitchoffset
    135  f000				  -
    136  f000				  -	      jsr	schedulesfx
    137  f000				  -skipnoteschedule
    138  f000				  -	      jmp	advancethesongpointer1byte	; advance to the next data byte and exit
    139  f000				  -
    140  f000				  -handlechannelrest
    141  f000				  -			; ** set the note length
    142  f000				  -	      lda	(songdatalo),y
    143  f000				  -	      and	#$0F
    144  f000				  -	      sta	songchannel1busywait,x
    145  f000				  -	      jmp	advancethesongpointer1byte	; advance to the next data byte and exit
    146  f000				  -
    147  f000				  -handlesemiup
    148  f000				  -	      lda	(songdatalo),y	; ** reload the song data, so we can get at the lower nibble
    149  f000				  -	      and	#$0f	; ** since we need to mask the nibble of the subtracted value,
    150  f000				  -	      clc
    151  f000				  -handlesemidownentry
    152  f000				  -	      adc	songchannel1transpose,x	; ** add it to the transpose index
    153  f000				  -	      sta	songchannel1transpose,x
    154  f000				  -	      jsr	advancethesongpointer1byte
    155  f000				  -	      jmp	processsongdata	; semi doesn't have note length, so process the next data byte...
    156  f000				  -
    157  f000				  -handlesemidown
    158  f000				  -	      lda	(songdatalo),y	; ** reload the song data, so we can get at the lower nibble
    159  f000				  -	      and	#$0f	; ** since we need to mask the nibble of the subtracted value,
    160  f000				  -	      eor	#$ff	; ** its easier if we negate it, and then add it instead.
    161  f000				  -	      sec
    162  f000				  -	      jmp	handlesemidownentry
    163  f000				  -
    164  f000				  -handlemultibytecommand
    165  f000				  -	      lda	(songdatalo),y	; ** reload the song data, so we can get at the lower nibble
    166  f000				  -	      and	#$0f	; ** since we need to mask the nibble of the subtracted value,
    167  f000				  -	      cmp	#$08	; ** load new instrument?
    168  f000				  -	      bne	nothandleinstrumentchange
    169  f000				  -handleinstrumentchange
    170  f000				  -	      iny
    171  f000				  -	      lda	(songdatalo),y
    172  f000				  -	      sta	songchannel1instrumentlo,x
    173  f000				  -	      iny
    174  f000				  -	      lda	(songdatalo),y
    175  f000				  -	      sta	songchannel1instrumenthi,x
    176  f000				  -	      lda	#3
    177  f000				  -	      jsr	advancethesongpointerNbytes	; advance 3 bytes
    178  f000				  -	      jmp	processsongdata
    179  f000				  -
    180  f000				  -nothandleinstrumentchange
    181  f000				  -	      cmp	#$09	; ** absolute tempo change?
    182  f000				  -	      bne	nothandletempochange
    183  f000				  -	      lda	#0
    184  f000				  -	      sta	songtempo
    185  f000				  -handlerelativetempochange
    186  f000				  -	      iny
    187  f000				  -	      lda	(songdatalo),y
    188  f000				  -	      clc
    189  f000				  -	      adc	songtempo
    190  f000				  -	      sta	songtempo
    191  f000				  -	      lda	#2
    192  f000				  -	      jsr	advancethesongpointerNbytes	; advance 2 bytes
    193  f000				  -	      jmp	processsongdata
    194  f000				  -
    195  f000				  -nothandletempochange
    196  f000				  -	      cmp	#$0A	; ** relative tempo change?:
    197  f000				  -	      beq	handlerelativetempochange
    198  f000				  -	      cmp	#$0B	; ** octave/semi change?
    199  f000				  -	      beq	handleoctavesemichange
    200  f000				  -handlepatterndata
    201  f000				  -			; ** if we're here its a pattern/loop "subroutine"
    202  f000				  -			; ** move the channel's "stack" pointer and populate the new stack level
    203  f000				  -
    204  f000				  -	      lda	#4
    205  f000				  -	      clc
    206  f000				  -	      adc	songchannel1stackdepth,x
    207  f000				  -	      sta	songchannel1stackdepth,x	; stack depth value will be 0, 4, or 8
    208  f000				  -
    209  f000				  -	      stx	inttemp6	; about to invalidate x. save it.
    210  f000				  -	      lda	songstackindex
    211  f000				  -	      adc	#4
    212  f000				  -	      tax
    213  f000				  -
    214  f000				  -	      lda	(songdatalo),y
    215  f000				  -	      and	#$7
    216  f000				  -	      sta	songchannel1layer1loops,x
    217  f000				  -	      iny
    218  f000				  -	      lda	(songdatalo),y
    219  f000				  -	      sta	songchannel1layer1lo,x
    220  f000				  -	      iny
    221  f000				  -	      lda	(songdatalo),y
    222  f000				  -	      sta	songchannel1layer1hi,x
    223  f000				  -
    224  f000				  -	      ldx	inttemp6	; restore x with the channel #
    225  f000				  -
    226  f000				  -			; ** advance will operate on the old stack level, since we didn't store the updated songstackindex...
    227  f000				  -	      lda	#3
    228  f000				  -	      jsr	advancethesongpointerNbytes	; advance 3 bytes
    229  f000				  -
    230  f000				  -			; ** ...but the new stack level will be correctly picked up when we process the next byte.
    231  f000				  -	      jmp	processsongdata
    232  f000				  -
    233  f000				  -handlechannelEOD
    234  f000				  -			; ** check if there are loops remaining on the pattern
    235  f000				  -	      stx	inttemp6
    236  f000				  -	      ldx	songstackindex
    237  f000				  -	      dec	songchannel1layer1loops,x
    238  f000				  -	      bmi	handlechannelEODnoloop
    239  f000				  -			; ** loops are remaining. set the pattern pointer to the pattern start, which is contained after the EOD
    240  f000				  -	      iny
    241  f000				  -	      lda	(songdatalo),y
    242  f000				  -	      sta	songchannel1layer1lo,x
    243  f000				  -	      iny
    244  f000				  -	      lda	(songdatalo),y
    245  f000				  -	      sta	songchannel1layer1hi,x
    246  f000				  -	      ldx	inttemp6
    247  f000				  -	      jmp	processsongdata	; EOD handling doesn't have note length, so process the next data byte...
    248  f000				  -
    249  f000				  -handlechannelEODnoloop
    250  f000				  -			; this pattern/loop is done playing. "pop" the stack
    251  f000				  -	      ldx	inttemp6
    252  f000				  -	      lda	songchannel1stackdepth,x
    253  f000				  -	      beq	handlerootchannelEOD
    254  f000				  -	      sec
    255  f000				  -	      sbc	#4
    256  f000				  -	      sta	songchannel1stackdepth,x
    257  f000				  -	      jmp	processsongdata	; EOD handling doesn't have note length, so process the next data byte...
    258  f000				  -
    259  f000				  -handlerootchannelEOD
    260  f000				  -			; this channel is done. point it to $ff data so we no longer process this channel.
    261  f000				  -	      lda	#0
    262  f000				  -	      sta	songchannel1layer1lo,x
    263  f000				  -	      sta	songchannel1layer1hi,x
    264  f000				  -	      sta	songchannel1busywait,x
    265  f000				  -	      jmp	setchannelcountbits
    266  f000				  -	      rts
    267  f000				  -
    268  f000				  -nothandlepatternchange
    269  f000				  -handleoctavesemichange
    270  f000				  -	      iny
    271  f000				  -	      lda	(songdatalo),y
    272  f000				  -	      sta	songchannel1transpose,x
    273  f000				  -	      lda	#2
    274  f000				  -	      jsr	advancethesongpointerNbytes	; advance 2 bytes
    275  f000				  -	      jmp	processsongdata
    276  f000				  -
    277  f000				  -advancethesongpointer1byte
    278  f000				  -	      txa
    279  f000				  -	      ldx	songstackindex
    280  f000				  -	      inc	songchannel1layer1lo,x
    281  f000				  -	      bne	skiphiadvancethesongpointer1byte
    282  f000				  -	      inc	songchannel1layer1hi,x
    283  f000				  -skiphiadvancethesongpointer1byte
    284  f000				  -	      tax
    285  f000				  -	      rts
    286  f000				  -
    287  f000				  -advancethesongpointerNbytes
    288  f000				  -			; entered with A=# of byte to advance
    289  f000				  -	      stx	inttemp6
    290  f000				  -	      ldx	songstackindex
    291  f000				  -	      clc
    292  f000				  -	      adc	songchannel1layer1lo,x
    293  f000				  -	      sta	songchannel1layer1lo,x
    294  f000				  -	      lda	#0
    295  f000				  -	      adc	songchannel1layer1hi,x
    296  f000				  -	      sta	songchannel1layer1hi,x
    297  f000				  -	      ldx	inttemp6
    298  f000				  -	      rts
    299  f000				  -
    300  f000				  -clearsongmemory
    301  f000				  -	      lda	#0
    302  f000				  -	      ldx	#(songchannel4instrumenthi-songchannel1layer1lo)
    303  f000				  -clearsongmemoryloop1
    304  f000				  -	      sta	songchannel1layer1lo,x
    305  f000				  -	      dex
    306  f000				  -	      bpl	clearsongmemoryloop1
    307  f000				  -
    308  f000				  -	      ldx	#(songchannel4stackdepth-songchannel1layer1loops)
    309  f000				  -clearsongmemoryloop2
    310  f000				  -	      sta	songchannel1layer1loops,x
    311  f000				  -	      dex
    312  f000				  -	      bpl	clearsongmemoryloop2
    313  f000				  -
    314  f000				  -	      lda	#$ff
    315  f000				  -	      ldx	#3
    316  f000				  -clearsongmemoryloop3
    317  f000				  -	      sta	songchannel1busywait,x
    318  f000				  -	      dex
    319  f000				  -	      bpl	clearsongmemoryloop3
    320  f000				  -	      rts
    321  f000				  -
    322  f000				  -setsongchannels
    323  f000				  -	      jsr	clearsongmemory
    324  f000				  -	      ldy	#7
    325  f000				  -	      ldx	#3
    326  f000				  -setsongchannelsloop
    327  f000				  -	      lda	(songpointerlo),y
    328  f000				  -	      sta	songchannel1layer1hi,x
    329  f000				  -	      dey
    330  f000				  -	      lda	(songpointerlo),y
    331  f000				  -	      sta	songchannel1layer1lo,x
    332  f000				  -	      dex
    333  f000				  -	      dey
    334  f000				  -	      bpl	setsongchannelsloop
    335  f000				  -	      rts
    336  f000				  -
    337  f000				  -channel2bits
    338  f000				  -	      .byte	1,2,4,8
    339  f000				  -
    340  f000				  -tiatrackeroctavenotes
    341  f000				  -	      ifconst	BUZZBASS
    342  f000				  -LOWC       =	15
    343  f000				  -	      else
    344  f000				  -LOWC       =	14
    345  f000				  -	      endif
    346  f000				  -			; ****** ELECTRONIC (0 to 11)
    347  f000				  -	      .byte	LOWC,20	; c0	 16.1Hz
    348  f000				  -	      .byte	LOWC,18	; c#0
    349  f000				  -	      .byte	LOWC,17	; d0
    350  f000				  -	      .byte	LOWC,16	; d#0
    351  f000				  -	      .byte	LOWC,15	; e0
    352  f000				  -	      .byte	LOWC,14	; f0  (very off)
    353  f000				  -	      .byte	LOWC,14	; f#0
    354  f000				  -	      .byte	LOWC,13	; g0
    355  f000				  -	      .byte	LOWC,12	; g#0
    356  f000				  -	      .byte	LOWC,11	; a0
    357  f000				  -	      .byte	LOWC,11	; a#0 (very off)
    358  f000				  -	      .byte	LOWC,10	; b0	 30.7Hz
    359  f000				  -
    360  f000				  -			; ****** SLIGHTLY BUZZY (12 to 23)
    361  f000				  -	      .byte	6,30	; c1	 32.7Hz
    362  f000				  -	      .byte	6,28	; c#1
    363  f000				  -	      .byte	6,27	; d1
    364  f000				  -	      .byte	6,25	; d#1
    365  f000				  -	      .byte	6,24	; e1
    366  f000				  -	      .byte	6,22	; f1
    367  f000				  -	      .byte	6,21	; f#1
    368  f000				  -	      .byte	6,20	; g1
    369  f000				  -	      .byte	6,18	; g#1
    370  f000				  -	      .byte	6,17	; a1
    371  f000				  -	      .byte	6,16	; a#1
    372  f000				  -	      .byte	6,15	; b1	 63.4Hz
    373  f000				  -
    374  f000				  -			; ****** BUZZY (24 to 39)
    375  f000				  -	      .byte	1,31	; c2	 65.5
    376  f000				  -	      .byte	1,30	; c#2	 67.6
    377  f000				  -	      .byte	1,27	; d2	 72.3
    378  f000				  -	      .byte	1,26	; d#2	 77.6
    379  f000				  -	      .byte	1,24	; e2
    380  f000				  -	      .byte	1,23	; f2
    381  f000				  -	      .byte	1,22	; f#2
    382  f000				  -	      .byte	1,20	; g2
    383  f000				  -	      .byte	1,19	; g#2
    384  f000				  -	      .byte	1,18	; a2
    385  f000				  -	      .byte	1,17	; a#2
    386  f000				  -	      .byte	1,16	; b2
    387  f000				  -	      .byte	1,15	; c3	126.8Hz
    388  f000				  -	      .byte	1,14	; c#3
    389  f000				  -	      .byte	1,13	; d3	149.7Hz
    390  f000				  -	      .byte	1,12	; d#3	161.2Hz (very off)
    391  f000				  -			; ****** PURE (40 to 71) - best key is A3 Major
    392  f000				  -	      .byte	12,31	; e3	163.8Hz
    393  f000				  -	      .byte	12,29	; f3
    394  f000				  -	      .byte	12,28	; f#3
    395  f000				  -	      .byte	12,26	; g3
    396  f000				  -	      .byte	12,24	; g#3
    397  f000				  -	      .byte	12,23	; a3  songs in key of A benefit from Perceptual Tuning
    398  f000				  -	      .byte	12,22	; a#3
    399  f000				  -	      .byte	12,20	; b3
    400  f000				  -	      .byte	12,19	; c4  (middle C)
    401  f000				  -	      .byte	12,18	; c#4
    402  f000				  -	      .byte	12,17	; d4
    403  f000				  -	      .byte	12,16	; d#4
    404  f000				  -	      .byte	12,15	; e4
    405  f000				  -	      .byte	12,14	; f4
    406  f000				  -	      .byte	12,13	; f#4
    407  f000				  -	      .byte	12,12	; g4  (very off)
    408  f000				  -	      .byte	12,12	; g#4
    409  f000				  -	      .byte	12,11	; a4
    410  f000				  -	      .byte	12,10	; a#4
    411  f000				  -	      .byte	4,31	; b4
    412  f000				  -	      .byte	4,29	; c5
    413  f000				  -	      .byte	4,28	; c#5
    414  f000				  -	      .byte	4,26	; d5
    415  f000				  -	      .byte	4,24	; d#5
    416  f000				  -	      .byte	4,23	; e5
    417  f000				  -	      .byte	4,22	; f5
    418  f000				  -	      .byte	4,20	; f#5
    419  f000				  -	      .byte	4,19	; g5
    420  f000				  -	      .byte	4,18	; g#5
    421  f000				  -	      .byte	4,17	; a5
    422  f000				  -	      .byte	4,16	; a#5
    423  f000				  -	      .byte	4,15	; b5
    424  f000				  -
    425  f000				  -			; ****** TUNED WIND (72 to 83)
    426  f000				  -	      .byte	8,30	; c
    427  f000				  -	      .byte	8,28	; c#
    428  f000				  -	      .byte	8,27	; d
    429  f000				  -	      .byte	8,25	; d#
    430  f000				  -	      .byte	8,24	; e
    431  f000				  -	      .byte	8,22	; f
    432  f000				  -	      .byte	8,21	; f#
    433  f000				  -	      .byte	8,20	; g
    434  f000				  -	      .byte	8,18	; g#
    435  f000				  -	      .byte	8,17	; a
    436  f000				  -	      .byte	8,16	; a#
    437  f000				  -	      .byte	8,15	; b
    438  f000				  -
    439  f000				  -	      include	"tiadrumkit.asm"
    440  f000				  -
    441  f000				  -trackerend
    442  f000				  -
    443  f000				  -	      echo	"  (tracker module is using ",[(trackerend-trackerstart)]d," bytes)"
    444  f000				  -
    445  f000					      endif		;MUSICTRACKER
------- FILE simple.bas.asm
   1889  f000					      endif
   1890  f000					      ifnconst	included.hiscore.asm
------- FILE hiscore.asm LEVEL 2 PASS 3
      0  f000					      include	hiscore.asm
      1  f000							; Provided under the CC0 license. See the included LICENSE.txt for details.
      2  f000
      3  f000				  -	      ifconst	HSSUPPORT
      4  f000				  -
      5  f000				  -	      ifconst	BANKSETROM
      6  f000				  -	      ifconst	isBANKSETBANK
      7  f000				  -HSCHARSHERE =	1
      8  f000				  -	      endif
      9  f000				  -	      else		; !BANKSETROM so embed the character strings
     10  f000				  -HSCHARSHERE =	1
     11  f000				  -	      endif
     12  f000				  -
     13  f000				  -	      ifnconst	isBANKSETBANK
     14  f000				  -hiscorestart
     15  f000				  -
     16  f000				  -detectatarivoxeeprom
     17  f000				  -hiscoremodulestart
     18  f000				  -			; do a test to see if atarivox eeprom can be accessed, and save results
     19  f000				  -	      jsr	AVoxDetect
     20  f000				  -	      eor	#$ff	; invert for easy 7800basic if...then logic
     21  f000				  -	      sta	avoxdetected
     22  f000				  -	      lda	#$0
     23  f000				  -	      sta	SWACNT
     24  f000				  -	      lda	avoxdetected
     25  f000				  -	      rts
     26  f000				  -
     27  f000				  -detecthsc
     28  f000				  -			; check for the HSC ROM signature...
     29  f000				  -	      lda	XCTRL1s
     30  f000				  -	      ora	#%00001100
     31  f000				  -	      sta	XCTRL1s
     32  f000				  -	      sta	XCTRL1
     33  f000				  -
     34  f000				  -	      lda	$3900
     35  f000				  -	      eor	#$C6
     36  f000				  -	      bne	detecthscfail
     37  f000				  -	      lda	$3904
     38  f000				  -	      eor	#$FE
     39  f000				  -	      bne	detecthscfail
     40  f000				  -
     41  f000				  -			; check if it's initialized...
     42  f000				  -	      ldy	#0
     43  f000				  -	      lda	#$ff
     44  f000				  -checkhscinit
     45  f000				  -	      and	$1000,y
     46  f000				  -	      dey
     47  f000				  -	      bne	checkhscinit
     48  f000				  -	      cmp	#$ff
     49  f000				  -	      beq	dominimalhscinit
     50  f000				  -			; Y is 0
     51  f000				  -	      lda	#0
     52  f000				  -checkhscinit2
     53  f000				  -	      ora	$1000,y
     54  f000				  -	      dey
     55  f000				  -	      bne	checkhscinit2
     56  f000				  -	      cmp	#0
     57  f000				  -	      bne	hscisalreadyinit
     58  f000				  -dominimalhscinit
     59  f000				  -			; if we're here, we need to do a minimal HSC init...
     60  f000				  -	      ldy	#$28
     61  f000				  -hscinitloop1
     62  f000				  -	      lda	hscheader,y
     63  f000				  -	      sta	$1000,y
     64  f000				  -	      dey
     65  f000				  -	      bpl	hscinitloop1
     66  f000				  -	      ldy	#$89
     67  f000				  -	      lda	#$7F
     68  f000				  -hscinitloop2
     69  f000				  -	      sta	$10B3,y
     70  f000				  -	      dey
     71  f000				  -	      cpy	#$ff
     72  f000				  -	      bne	hscinitloop2
     73  f000				  -hscisalreadyinit
     74  f000				  -	      lda	#$ff
     75  f000				  -	      rts
     76  f000				  -hscheader
     77  f000				  -	      .byte	$00,$00,$68,$83,$AA,$55,$9C,$FF,$07,$12,$02,$1F,$00,$00,$00,$00
     78  f000				  -	      .byte	$00,$00,$00,$00,$00,$00,$00,$00,$00,$00,$00,$00,$00,$00,$00,$00
     79  f000				  -	      .byte	$00,$00,$00,$00,$00,$00,$00,$00,$03
     80  f000				  -detecthscfail
     81  f000				  -	      lda	XCTRL1s
     82  f000				  -	      and	#%11110111
     83  f000				  -	      sta	XCTRL1s
     84  f000				  -	      lda	#0
     85  f000				  -	      rts
     86  f000				  -	      endif		; isBANKSETBANK
     87  f000				  -
     88  f000				  -	      ifnconst	hiscorefont
     89  f000				  -	      echo	""
     90  f000				  -	      echo	"WARNING: High score support is enabled, but the hiscorefont.png was"
     91  f000				  -	      echo	" NOT imported with incgraphic. The high score display code"
     92  f000				  -	      echo	" has been omitted from this build."
     93  f000				  -	      echo	""
     94  f000				  -	      else		; hiscorefont
     95  f000				  -	      ifnconst	isBANKSETBANK
     96  f000				  -hscdrawscreen
     97  f000				  -
     98  f000				  -			; we use 20 lines on a 24 line display
     99  f000				  -			; HSSCOREY to dynamically centers based on
    100  f000				  -			;HSSCOREY = 0
    101  f000				  -HSSCOREY   =	((WZONECOUNT*WZONEHEIGHT/8)-22)/2
    102  f000				  -HSCURSORY  =	((HSSCOREY/(WZONEHEIGHT/8))*WZONEHEIGHT)
    103  f000				  -
    104  f000				  -	      ifconst	HSSCORESIZE
    105  f000				  -SCORESIZE  =	HSSCORESIZE
    106  f000				  -	      else
    107  f000				  -SCORESIZE  =	6
    108  f000				  -	      endif
    109  f000				  -
    110  f000				  -	      jsr	mutetia
    111  f000				  -	      ifconst	pokeysupport
    112  f000				  -	      jsr	mutepokey
    113  f000				  -	      endif		; pokeysupport
    114  f000				  -
    115  f000				  -			;save shadow registers for later return...
    116  f000				  -	      lda	sCTRL
    117  f000				  -	      pha
    118  f000				  -	      lda	sCHARBASE
    119  f000				  -	      pha
    120  f000				  -
    121  f000				  -	      jsr	blacken320colors
    122  f000				  -	      jsr	drawoverwait
    123  f000				  -	      jsr	drawwait
    124  f000				  -	      jsr	hiscorecleardlmem
    125  f000				  -	      jsr	clearscreen
    126  f000				  -
    127  f000				  -	      lda	#$60
    128  f000				  -	      sta	charactermode
    129  f000				  -
    130  f000				  -			;set the character base to the HSC font
    131  f000				  -	      lda	#>hiscorefont
    132  f000				  -	      sta	CHARBASE
    133  f000				  -	      sta	sCHARBASE
    134  f000				  -	      lda	#%01000011	;Enable DMA, mode=320A
    135  f000				  -	      sta	CTRL
    136  f000				  -	      sta	sCTRL
    137  f000				  -
    138  f000				  -	      lda	#60
    139  f000				  -	      sta	hsjoydebounce
    140  f000				  -
    141  f000				  -	      lda	#0
    142  f000				  -	      sta	hscursorx
    143  f000				  -	      sta	framecounter
    144  f000				  -
    145  f000				  -	      ifnconst	HSCOLORCHASESTART
    146  f000				  -	      lda	#$8D	; default is blue. why not?
    147  f000				  -	      else
    148  f000				  -	      lda	#HSCOLORCHASESTART
    149  f000				  -	      endif
    150  f000				  -	      sta	hscolorchaseindex
    151  f000				  -	      lda	#$0F
    152  f000				  -	      sta	P0C2	; base text is white
    153  f000				  -	      jsr	hschasecolors
    154  f000				  -
    155  f000				  -			; ** plot all of the initials
    156  f000				  -	      lda	#<HSRAMInitials
    157  f000				  -	      sta	temp1	; charmaplo
    158  f000				  -	      lda	#>HSRAMInitials
    159  f000				  -	      sta	temp2	; charmaphi
    160  f000				  -	      lda	#32+29	; palette=0-29 | 32-(width=3)
    161  f000				  -	      sta	temp3	; palette/width
    162  f000				  -	      lda	#104
    163  f000				  -	      sta	temp4	; X
    164  f000				  -	      lda	#((HSSCOREY+6)/(WZONEHEIGHT/8))
    165  f000				  -	      sta	temp5	; Y
    166  f000				  -plothsinitialsloop
    167  f000				  -	      jsr	plotcharacters
    168  f000				  -	      clc
    169  f000				  -	      lda	temp3
    170  f000				  -	      adc	#32
    171  f000				  -	      sta	temp3
    172  f000				  -	      inc	temp5
    173  f000				  -	      if	WZONEHEIGHT = 8
    174  f000				  -	      inc	temp5
    175  f000				  -	      endif
    176  f000				  -	      clc
    177  f000				  -	      lda	#3
    178  f000				  -	      adc	temp1
    179  f000				  -	      sta	temp1
    180  f000				  -	      cmp	#(<(HSRAMInitials+15))
    181  f000				  -	      bcc	plothsinitialsloop
    182  f000				  -
    183  f000				  -	      ifconst	HSGAMENAMELEN
    184  f000				  -			;plot the game name...
    185  f000				  -	      lda	#<HSGAMENAMEtable
    186  f000				  -	      sta	temp1	; charmaplo
    187  f000				  -	      lda	#>HSGAMENAMEtable
    188  f000				  -	      sta	temp2	; charmaphi
    189  f000				  -	      lda	#(32-HSGAMENAMELEN)	; palette=0*29 | 32-(width=3)
    190  f000				  -	      sta	temp3	; palette/width
    191  f000				  -	      lda	#(80-(HSGAMENAMELEN*2))
    192  f000				  -	      sta	temp4	; X
    193  f000				  -	      lda	#((HSSCOREY+0)/(WZONEHEIGHT/8))
    194  f000				  -	      sta	temp5	; Y
    195  f000				  -	      jsr	plotcharacters
    196  f000				  -	      endif		; HSGAMENAMELEN
    197  f000				  -
    198  f000				  -			;plot "difficulty"...
    199  f000				  -	      ldy	gamedifficulty
    200  f000				  -	      ifnconst	HSNOLEVELNAMES
    201  f000				  -	      lda	highscoredifficultytextlo,y
    202  f000				  -	      sta	temp1
    203  f000				  -	      lda	highscoredifficultytexthi,y
    204  f000				  -	      sta	temp2
    205  f000				  -	      sec
    206  f000				  -	      lda	#32
    207  f000				  -	      sbc	highscoredifficultytextlen,y
    208  f000				  -	      sta	temp3	; palette/width
    209  f000				  -	      sec
    210  f000				  -	      lda	#40
    211  f000				  -	      sbc	highscoredifficultytextlen,y
    212  f000				  -	      asl
    213  f000				  -	      sta	temp4	; X
    214  f000				  -	      else
    215  f000				  -	      lda	#<HSHIGHSCOREStext
    216  f000				  -	      sta	temp1	; charmaplo
    217  f000				  -	      lda	#>HSHIGHSCOREStext
    218  f000				  -	      sta	temp2	; charmaphi
    219  f000				  -	      lda	#(32-11)	; palette=0*29 | 32-(width=3)
    220  f000				  -	      sta	temp3	; palette/width
    221  f000				  -	      lda	#(80-(11*2))
    222  f000				  -	      sta	temp4	; X
    223  f000				  -	      endif		; HSNOLEVELNAMES
    224  f000				  -
    225  f000				  -	      lda	#((HSSCOREY+2)/(WZONEHEIGHT/8))
    226  f000				  -	      sta	temp5	; Y
    227  f000				  -	      jsr	plotcharacters
    228  f000				  -	      ldy	hsdisplaymode	; 0=attact mode, 1=player eval, 2=player 1 eval, 3=player 2 player eval, 4=player 2 player evel (joy1)
    229  f000				  -	      bne	carronwithscoreevaluation
    230  f000				  -	      jmp	donoscoreevaluation
    231  f000				  -carronwithscoreevaluation
    232  f000				  -	      dey
    233  f000				  -	      lda	highscorelabeltextlo,y
    234  f000				  -	      sta	temp1
    235  f000				  -	      lda	highscorelabeltexthi,y
    236  f000				  -	      sta	temp2
    237  f000				  -	      sec
    238  f000				  -	      lda	#(32-15)	; palette=0*29 | 32-(width=3)
    239  f000				  -	      sta	temp3	; palette/width
    240  f000				  -	      lda	highscorelabeladjust1,y
    241  f000				  -	      sta	temp4	; X
    242  f000				  -	      lda	#((HSSCOREY+18)/(WZONEHEIGHT/8))
    243  f000				  -	      sta	temp5	; Y
    244  f000				  -	      jsr	plotcharacters
    245  f000				  -
    246  f000				  -	      ldy	hsdisplaymode	; 0=attact mode, 1=player eval, 2=player 1 eval, 3=player 2 player eval, 4=player 2 player evel (joy1)
    247  f000				  -	      dey
    248  f000				  -			;plot the current player score...
    249  f000				  -	      lda	#(32-SCORESIZE)	; palette=0*32
    250  f000				  -	      sta	temp3	; palette/width
    251  f000				  -	      lda	highscorelabeladjust2,y
    252  f000				  -	      sta	temp4	; X
    253  f000				  -	      lda	#((HSSCOREY+18)/(WZONEHEIGHT/8))
    254  f000				  -	      sta	temp5	; Y
    255  f000				  -
    256  f000				  -	      lda	scorevarlo,y
    257  f000				  -	      sta	temp7	; score variable lo
    258  f000				  -	      lda	scorevarhi,y
    259  f000				  -	      sta	temp8	; score variable hi
    260  f000				  -
    261  f000				  -	      lda	#(hiscorefont_mode | %01100000)	; charactermode
    262  f000				  -	      sta	temp9
    263  f000				  -
    264  f000				  -	      lda	#<(hiscorefont+33)	; +33 to get to '0' character
    265  f000				  -	      sta	temp1	; charmaplo
    266  f000				  -	      lda	#>(hiscorefont+33)
    267  f000				  -	      sta	temp2	; charmaphi
    268  f000				  -	      lda	#SCORESIZE
    269  f000				  -	      sta	temp6
    270  f000				  -	      ifnconst	DOUBLEWIDE
    271  f000				  -	      jsr	plotvalue
    272  f000				  -	      else
    273  f000				  -	      jsr	plotvaluedw
    274  f000				  -	      endif
    275  f000				  -
    276  f000				  -USED_PLOTVALUE =	1	; ensure that plotvalue gets compiled in
    277  f000				  -
    278  f000				  -	      ifconst	HSGAMERANKS
    279  f000				  -
    280  f000				  -	      ldx	#$ff	; start at 0 after the inx...
    281  f000				  -comparescore2rankloop
    282  f000				  -	      inx
    283  f000				  -	      ldy	#0
    284  f000				  -	      lda	rankvalue_0,x
    285  f000				  -	      cmp	(temp7),y
    286  f000				  -	      bcc	score2rankloopdone
    287  f000				  -	      bne	comparescore2rankloop
    288  f000				  -	      iny
    289  f000				  -	      lda	rankvalue_1,x
    290  f000				  -	      cmp	(temp7),y
    291  f000				  -	      bcc	score2rankloopdone
    292  f000				  -	      bne	comparescore2rankloop
    293  f000				  -	      iny
    294  f000				  -	      lda	(temp7),y
    295  f000				  -	      cmp	rankvalue_2,x
    296  f000				  -	      bcs	score2rankloopdone
    297  f000				  -	      jmp	comparescore2rankloop
    298  f000				  -score2rankloopdone
    299  f000				  -	      stx	hsnewscorerank
    300  f000				  -
    301  f000				  -	      lda	ranklabello,x
    302  f000				  -	      sta	temp1
    303  f000				  -	      lda	ranklabelhi,x
    304  f000				  -	      sta	temp2
    305  f000				  -	      sec
    306  f000				  -	      lda	#32	; palette=0*29 | 32-(width=3)
    307  f000				  -	      sbc	ranklabellengths,x
    308  f000				  -	      sta	temp3	; palette/width
    309  f000				  -	      sec
    310  f000				  -	      lda	#(40+6)
    311  f000				  -	      sbc	ranklabellengths,x
    312  f000				  -	      asl
    313  f000				  -	      sta	temp4	; X
    314  f000				  -	      lda	#((HSSCOREY+20)/(WZONEHEIGHT/8))
    315  f000				  -	      sta	temp5	; Y
    316  f000				  -	      jsr	plotcharacters
    317  f000				  -
    318  f000				  -	      ldx	hsnewscorerank
    319  f000				  -
    320  f000				  -	      lda	#<highscoreranklabel
    321  f000				  -	      sta	temp1
    322  f000				  -	      lda	#>highscoreranklabel
    323  f000				  -	      sta	temp2
    324  f000				  -
    325  f000				  -	      lda	#(32-5)	; palette=0*29 | 32-(width=3)
    326  f000				  -	      sta	temp3	; palette/width
    327  f000				  -	      lda	#(40-6)
    328  f000				  -	      sec
    329  f000				  -	      sbc	ranklabellengths,x
    330  f000				  -	      asl
    331  f000				  -	      sta	temp4	; X
    332  f000				  -	      lda	#((HSSCOREY+20)/(WZONEHEIGHT/8))
    333  f000				  -	      sta	temp5	; Y
    334  f000				  -	      jsr	plotcharacters
    335  f000				  -	      endif		; HSGAMERANKS
    336  f000				  -
    337  f000				  -
    338  f000				  -			; ** which line did this player beat?
    339  f000				  -	      lda	#$ff
    340  f000				  -	      sta	hsnewscoreline
    341  f000				  -	      ldx	#$fd
    342  f000				  -comparescoreadd2x
    343  f000				  -	      inx
    344  f000				  -comparescoreadd1x
    345  f000				  -	      inx
    346  f000				  -comparescore2lineloop
    347  f000				  -	      inc	hsnewscoreline
    348  f000				  -	      inx		; initialrun, x=0
    349  f000				  -	      cpx	#15
    350  f000				  -	      beq	nohighscoreforyou
    351  f000				  -	      ldy	#0
    352  f000				  -	      lda	HSRAMScores,x
    353  f000				  -	      cmp	(temp7),y	; first score digit
    354  f000				  -	      bcc	score2lineloopdonedel1x
    355  f000				  -	      bne	comparescoreadd2x
    356  f000				  -	      iny
    357  f000				  -	      inx
    358  f000				  -	      lda	HSRAMScores,x
    359  f000				  -	      cmp	(temp7),y
    360  f000				  -	      bcc	score2lineloopdonedel2x
    361  f000				  -	      bne	comparescoreadd1x
    362  f000				  -	      iny
    363  f000				  -	      inx
    364  f000				  -	      lda	(temp7),y
    365  f000				  -	      cmp	HSRAMScores,x
    366  f000				  -	      bcs	score2lineloopdonedel3x
    367  f000				  -	      jmp	comparescore2lineloop
    368  f000				  -nohighscoreforyou
    369  f000				  -	      lda	#$ff
    370  f000				  -	      sta	hsnewscoreline
    371  f000				  -	      sta	countdownseconds
    372  f000				  -	      jmp	donoscoreevaluation
    373  f000				  -score2lineloopdonedel3x
    374  f000				  -	      dex
    375  f000				  -score2lineloopdonedel2x
    376  f000				  -	      dex
    377  f000				  -score2lineloopdonedel1x
    378  f000				  -	      dex
    379  f000				  -
    380  f000				  -			; 0 1 2
    381  f000				  -			; 3 4 5
    382  f000				  -			; 6 7 8
    383  f000				  -			; 9 0 1
    384  f000				  -			; 2 3 4
    385  f000				  -
    386  f000				  -	      stx	temp9
    387  f000				  -	      cpx	#11
    388  f000				  -	      beq	postsortscoresuploop
    389  f000				  -	      ldx	#11
    390  f000				  -sortscoresuploop
    391  f000				  -	      lda	HSRAMScores,x
    392  f000				  -	      sta	HSRAMScores+3,x
    393  f000				  -	      lda	HSRAMInitials,x
    394  f000				  -	      sta	HSRAMInitials+3,x
    395  f000				  -	      dex
    396  f000				  -	      cpx	temp9
    397  f000				  -	      bne	sortscoresuploop
    398  f000				  -postsortscoresuploop
    399  f000				  -
    400  f000				  -			;stick the score and cleared initials in the slot...
    401  f000				  -	      inx
    402  f000				  -	      ldy	#0
    403  f000				  -	      sty	hsinitialhold
    404  f000				  -	      lda	(temp7),y
    405  f000				  -	      sta	HSRAMScores,x
    406  f000				  -	      iny
    407  f000				  -	      lda	(temp7),y
    408  f000				  -	      sta	HSRAMScores+1,x
    409  f000				  -	      iny
    410  f000				  -	      lda	(temp7),y
    411  f000				  -	      sta	HSRAMScores+2,x
    412  f000				  -	      lda	#0
    413  f000				  -	      sta	HSRAMInitials,x
    414  f000				  -	      lda	#29
    415  f000				  -	      sta	HSRAMInitials+1,x
    416  f000				  -	      sta	HSRAMInitials+2,x
    417  f000				  -
    418  f000				  -	      stx	hsinitialpos
    419  f000				  -
    420  f000				  -	      ifconst	vox_highscore
    421  f000				  -	      lda	<#vox_highscore
    422  f000				  -	      sta	speech_addr
    423  f000				  -	      lda	>#vox_highscore
    424  f000				  -	      sta	speech_addr+1
    425  f000				  -	      endif		; vox_highscore
    426  f000				  -	      ifconst	sfx_highscore
    427  f000				  -	      lda	<#sfx_highscore
    428  f000				  -	      sta	temp1
    429  f000				  -	      lda	>#sfx_highscore
    430  f000				  -	      sta	temp2
    431  f000				  -	      lda	#0
    432  f000				  -	      sta	temp3
    433  f000				  -	      jsr	schedulesfx
    434  f000				  -	      endif		; sfx_highscore
    435  f000				  -	      ifconst	songdatastart_song_highscore
    436  f000				  -	      lda	#<songchanneltable_song_highscore
    437  f000				  -	      sta	songpointerlo
    438  f000				  -	      lda	#>songchanneltable_song_highscore
    439  f000				  -	      sta	songpointerhi
    440  f000				  -	      lda	#73
    441  f000				  -	      sta	songtempo
    442  f000				  -	      jsr	setsongchannels
    443  f000				  -	      endif		; songdatastart_song_highscore
    444  f000				  -
    445  f000				  -
    446  f000				  -donoscoreevaluation
    447  f000				  -
    448  f000				  -	      lda	#(32+(32-SCORESIZE))	; palette=0*32 | 32-(width=6)
    449  f000				  -	      sta	temp3	; palette/width
    450  f000				  -	      lda	#(72+(4*(6-SCORESIZE)))
    451  f000				  -	      sta	temp4	; X
    452  f000				  -	      lda	#((HSSCOREY+6)/(WZONEHEIGHT/8))
    453  f000				  -	      sta	temp5	; Y
    454  f000				  -	      lda	#<HSRAMScores
    455  f000				  -	      sta	temp7	; score variable lo
    456  f000				  -	      lda	#>HSRAMScores
    457  f000				  -	      sta	temp8	; score variable hi
    458  f000				  -	      lda	#(hiscorefont_mode | %01100000)	; charactermode
    459  f000				  -	      sta	temp9
    460  f000				  -plothsscoresloop
    461  f000				  -	      lda	#<(hiscorefont+33)	; +33 to get to '0' character
    462  f000				  -	      sta	temp1	; charmaplo
    463  f000				  -	      lda	#>(hiscorefont+33)
    464  f000				  -	      sta	temp2	; charmaphi
    465  f000				  -	      lda	#6
    466  f000				  -	      sta	temp6
    467  f000				  -	      ifnconst	DOUBLEWIDE
    468  f000				  -	      jsr	plotvalue
    469  f000				  -	      else
    470  f000				  -	      jsr	plotvaluedw
    471  f000				  -	      endif
    472  f000				  -	      clc
    473  f000				  -	      lda	temp3
    474  f000				  -	      adc	#32
    475  f000				  -	      sta	temp3
    476  f000				  -	      inc	temp5
    477  f000				  -	      if	WZONEHEIGHT = 8
    478  f000				  -	      inc	temp5
    479  f000				  -	      endif
    480  f000				  -	      clc
    481  f000				  -	      lda	#3
    482  f000				  -	      adc	temp7
    483  f000				  -	      sta	temp7
    484  f000				  -	      cmp	#(<(HSRAMScores+15))
    485  f000				  -	      bcc	plothsscoresloop
    486  f000				  -plothsindex
    487  f000				  -	      lda	#32+31	; palette=0*32 | 32-(width=1)
    488  f000				  -	      sta	temp3	; palette/width
    489  f000				  -	      lda	#44
    490  f000				  -	      sta	temp4	; X
    491  f000				  -	      lda	#((HSSCOREY+6)/(WZONEHEIGHT/8))
    492  f000				  -	      sta	temp5	; Y
    493  f000				  -	      lda	#<hsgameslotnumbers
    494  f000				  -	      sta	temp7	; score variable lo
    495  f000				  -	      lda	#>hsgameslotnumbers
    496  f000				  -	      sta	temp8	; score variable hi
    497  f000				  -	      lda	#(hiscorefont_mode | %01100000)	; charactermode
    498  f000				  -	      sta	temp9
    499  f000				  -plothsindexloop
    500  f000				  -	      lda	#<(hiscorefont+33)
    501  f000				  -	      sta	temp1	; charmaplo
    502  f000				  -	      lda	#>(hiscorefont+33)
    503  f000				  -	      sta	temp2	; charmaphi
    504  f000				  -	      lda	#1
    505  f000				  -	      sta	temp6	; number of characters
    506  f000				  -	      ifnconst	DOUBLEWIDE
    507  f000				  -	      jsr	plotvalue
    508  f000				  -	      else
    509  f000				  -	      jsr	plotvaluedw
    510  f000				  -	      endif
    511  f000				  -	      clc
    512  f000				  -	      lda	temp3
    513  f000				  -	      adc	#32
    514  f000				  -	      sta	temp3
    515  f000				  -	      inc	temp5
    516  f000				  -	      if	WZONEHEIGHT = 8
    517  f000				  -	      inc	temp5
    518  f000				  -	      endif
    519  f000				  -	      inc	temp7
    520  f000				  -	      lda	temp7
    521  f000				  -	      cmp	#(<(hsgameslotnumbers+5))
    522  f000				  -	      bcc	plothsindexloop
    523  f000				  -
    524  f000				  -	      jsr	savescreen
    525  f000				  -	      ifnconst	HSSECONDS
    526  f000				  -	      lda	#6
    527  f000				  -	      else
    528  f000				  -	      lda	#HSSECONDS
    529  f000				  -	      endif
    530  f000				  -
    531  f000				  -	      sta	countdownseconds
    532  f000				  -
    533  f000				  -keepdisplayinghs
    534  f000				  -	      jsr	restorescreen
    535  f000				  -
    536  f000				  -	      jsr	setuphsinpt1
    537  f000				  -
    538  f000				  -	      lda	hsnewscoreline
    539  f000				  -	      bpl	carryonkeepdisplayinghs
    540  f000				  -	      jmp	skipenterscorecontrol
    541  f000				  -carryonkeepdisplayinghs
    542  f000				  -
    543  f000				  -
    544  f000				  -	      ifnconst	HSSECONDS
    545  f000				  -	      lda	#6
    546  f000				  -	      else
    547  f000				  -	      lda	#HSSECONDS
    548  f000				  -	      endif
    549  f000				  -
    550  f000				  -	      sta	countdownseconds
    551  f000				  -
    552  f000				  -			;plot the "cursor" initial sprite...
    553  f000				  -	      lda	hsinitialhold
    554  f000				  -
    555  f000				  -	      sta	temp1
    556  f000				  -	      lda	#>(hiscorefont+32)
    557  f000				  -	      sta	temp2
    558  f000				  -	      lda	#31	; palette=0*32 | 32-(width=1)
    559  f000				  -	      sta	temp3	; palette/width
    560  f000				  -	      lda	hscursorx
    561  f000				  -	      asl
    562  f000				  -	      asl
    563  f000				  -	      clc
    564  f000				  -	      adc	#104
    565  f000				  -	      sta	temp4	; X
    566  f000				  -	      lda	hsnewscoreline
    567  f000				  -	      asl
    568  f000				  -	      asl
    569  f000				  -	      asl
    570  f000				  -	      asl
    571  f000				  -	      adc	#((3*16)+HSCURSORY)
    572  f000				  -	      sta	temp5	; Y
    573  f000				  -	      lda	#%01000000
    574  f000				  -	      sta	temp6
    575  f000				  -	      jsr	plotsprite
    576  f000				  -
    577  f000				  -	      ldx	hscursorx
    578  f000				  -	      ldy	hsdisplaymode
    579  f000				  -	      ifnconst	.HSup
    580  f000				  -	      lda	sSWCHA
    581  f000				  -	      cpy	#3
    582  f000				  -	      bne	hsskipadjustjoystick1
    583  f000				  -	      asl
    584  f000				  -	      asl
    585  f000				  -	      asl
    586  f000				  -	      asl
    587  f000				  -hsskipadjustjoystick1
    588  f000				  -	      sta	hsswcha
    589  f000				  -	      else		; there are user-defined routines!
    590  f000				  -	      jsr	.HSdown
    591  f000				  -	      lda	hsreturn	; b0
    592  f000				  -	      asl
    593  f000				  -	      pha
    594  f000				  -	      jsr	.HSup
    595  f000				  -	      pla
    596  f000				  -	      ora	hsreturn
    597  f000				  -	      asl
    598  f000				  -	      asl
    599  f000				  -	      asl
    600  f000				  -	      asl
    601  f000				  -	      eor	#$FF
    602  f000				  -	      sta	hsswcha
    603  f000				  -	      endif		; .HSup
    604  f000				  -	      lda	SWCHB
    605  f000				  -	      and	#%00000010
    606  f000				  -	      bne	hsskipselectswitch
    607  f000				  -	      lda	#%00010000
    608  f000				  -	      sta	hsswcha
    609  f000				  -	      bne	hsdodebouncecheck
    610  f000				  -hsskipselectswitch
    611  f000				  -	      lda	hsswcha
    612  f000				  -	      and	#%00110000
    613  f000				  -	      cmp	#%00110000
    614  f000				  -	      beq	hsjoystickskipped
    615  f000				  -hsdodebouncecheck
    616  f000				  -	      lda	hsjoydebounce
    617  f000				  -	      beq	hsdontdebounce
    618  f000				  -	      jmp	hspostjoystick
    619  f000				  -hsdontdebounce
    620  f000				  -	      ldx	#1	; small tick sound
    621  f000				  -	      jsr	playhssfx
    622  f000				  -	      lda	hsswcha
    623  f000				  -	      and	#%00110000
    624  f000				  -	      ldx	hscursorx
    625  f000				  -	      cmp	#%00100000	; check down
    626  f000				  -	      bne	hsjoycheckup
    627  f000				  -	      ldy	hsinitialhold
    628  f000				  -	      cpx	#0
    629  f000				  -	      bne	skipavoid31_1
    630  f000				  -	      cpy	#0	; if we're about to change to the <- char (#31) then double-decrement to skip over it
    631  f000				  -	      bne	skipavoid31_1
    632  f000				  -	      dey
    633  f000				  -skipavoid31_1
    634  f000				  -	      dey
    635  f000				  -	      jmp	hssetdebounce
    636  f000				  -hsjoycheckup
    637  f000				  -	      cmp	#%00010000	; check up
    638  f000				  -	      bne	hsjoystickskipped
    639  f000				  -	      ldy	hsinitialhold
    640  f000				  -	      cpx	#0
    641  f000				  -	      bne	skipavoid31_2
    642  f000				  -	      cpy	#30	; if we're about to change to the <- char (#31) then double-increment to skip over it
    643  f000				  -	      bne	skipavoid31_2
    644  f000				  -	      iny
    645  f000				  -skipavoid31_2
    646  f000				  -	      iny
    647  f000				  -hssetdebounce
    648  f000				  -	      tya
    649  f000				  -	      and	#31
    650  f000				  -	      sta	hsinitialhold
    651  f000				  -	      lda	#15
    652  f000				  -	      sta	hsjoydebounce
    653  f000				  -	      bne	hspostjoystick
    654  f000				  -hsjoystickskipped
    655  f000				  -			; check the fire button only when the stick isn't engaged
    656  f000				  -	      lda	hsinpt1
    657  f000				  -	      bpl	hsbuttonskipped
    658  f000				  -	      lda	hsjoydebounce
    659  f000				  -	      bne	hspostjoystick
    660  f000				  -hsfiredontdebounce
    661  f000				  -	      lda	hsinitialhold
    662  f000				  -	      cmp	#31
    663  f000				  -	      beq	hsmovecursorback
    664  f000				  -	      inc	hscursorx
    665  f000				  -	      inc	hsinitialpos
    666  f000				  -	      lda	hscursorx
    667  f000				  -	      cmp	#3
    668  f000				  -	      bne	skiphsentryisdone
    669  f000				  -	      lda	#0
    670  f000				  -	      sta	framecounter
    671  f000				  -	      lda	#$ff
    672  f000				  -	      sta	hsnewscoreline
    673  f000				  -	      dec	hsinitialpos
    674  f000				  -	      bne	skiphsentryisdone
    675  f000				  -hsmovecursorback
    676  f000				  -	      lda	hscursorx
    677  f000				  -	      beq	skiphsmovecursorback
    678  f000				  -	      lda	#29
    679  f000				  -	      ldx	hsinitialpos
    680  f000				  -	      sta	HSRAMInitials,x
    681  f000				  -	      dec	hsinitialpos
    682  f000				  -	      dec	hscursorx
    683  f000				  -	      dex
    684  f000				  -	      lda	HSRAMInitials,x
    685  f000				  -	      sta	hsinitialhold
    686  f000				  -skiphsmovecursorback
    687  f000				  -skiphsentryisdone
    688  f000				  -	      ldx	#0
    689  f000				  -	      jsr	playhssfx
    690  f000				  -	      lda	#20
    691  f000				  -	      sta	hsjoydebounce
    692  f000				  -	      bne	hspostjoystick
    693  f000				  -
    694  f000				  -hsbuttonskipped
    695  f000				  -	      lda	#0
    696  f000				  -	      sta	hsjoydebounce
    697  f000				  -hspostjoystick
    698  f000				  -
    699  f000				  -	      ldx	hsinitialpos
    700  f000				  -	      lda	hsinitialhold
    701  f000				  -	      sta	HSRAMInitials,x
    702  f000				  -
    703  f000				  -	      jmp	skiphschasecolors
    704  f000				  -
    705  f000				  -skipenterscorecontrol
    706  f000				  -	      jsr	hschasecolors
    707  f000				  -	      jsr	setuphsinpt1
    708  f000				  -	      lda	hsjoydebounce
    709  f000				  -	      bne	skiphschasecolors
    710  f000				  -	      lda	hsinpt1
    711  f000				  -	      bmi	returnfromhs
    712  f000				  -skiphschasecolors
    713  f000				  -
    714  f000				  -	      jsr	drawscreen
    715  f000				  -
    716  f000				  -	      lda	countdownseconds
    717  f000				  -	      beq	returnfromhs
    718  f000				  -	      jmp	keepdisplayinghs
    719  f000				  -returnfromhs
    720  f000				  -
    721  f000				  -	      ifconst	songdatastart_song_highscore
    722  f000				  -	      lda	hsdisplaymode
    723  f000				  -	      beq	skipclearHSCsong
    724  f000				  -	      lda	#0
    725  f000				  -	      sta	songtempo
    726  f000				  -skipclearHSCsong
    727  f000				  -	      endif
    728  f000				  -	      jsr	drawwait
    729  f000				  -	      jsr	clearscreen
    730  f000				  -	      lda	#0
    731  f000				  -	      ldy	#7
    732  f000				  -	      jsr	blacken320colors
    733  f000				  -			;lda ssCHARBASE
    734  f000				  -	      pla
    735  f000				  -	      sta	sCHARBASE
    736  f000				  -			;lda ssCTRL
    737  f000				  -	      pla
    738  f000				  -	      sta	sCTRL
    739  f000				  -	      rts
    740  f000				  -
    741  f000				  -setuphsinpt1
    742  f000				  -	      lda	#$ff
    743  f000				  -	      sta	hsinpt1
    744  f000				  -	      lda	hsjoydebounce
    745  f000				  -	      beq	skipdebounceadjust
    746  f000				  -	      dec	hsjoydebounce
    747  f000				  -	      bne	skipstorefirebuttonstatus
    748  f000				  -skipdebounceadjust
    749  f000				  -	      lda	SWCHB
    750  f000				  -	      and	#%00000001
    751  f000				  -	      bne	hscheckresetover
    752  f000				  -	      lda	#$ff
    753  f000				  -	      sta	hsinpt1
    754  f000				  -	      rts
    755  f000				  -hscheckresetover
    756  f000				  -	      ifnconst	.HSselect
    757  f000				  -	      ldx	hsdisplaymode
    758  f000				  -	      cpx	#3
    759  f000				  -	      bne	hsskipadjustjoyfire1
    760  f000				  -	      lda	sINPT3
    761  f000				  -	      jmp	hsskipadjustjoyfire1done
    762  f000				  -hsskipadjustjoyfire1
    763  f000				  -	      lda	sINPT1
    764  f000				  -hsskipadjustjoyfire1done
    765  f000				  -	      sta	hsinpt1
    766  f000				  -	      else		; there are user-defined routines!
    767  f000				  -	      jsr	.HSselect
    768  f000				  -	      lda	hsreturn
    769  f000				  -	      ror		; carry
    770  f000				  -	      ror		; b7
    771  f000				  -	      sta	hsinpt1
    772  f000				  -	      endif		; .HSselect
    773  f000				  -skipstorefirebuttonstatus
    774  f000				  -	      rts
    775  f000				  -
    776  f000				  -blacken320colors
    777  f000				  -	      ldy	#7
    778  f000				  -blacken320colorsloop
    779  f000				  -	      sta	P0C2,y
    780  f000				  -	      dey
    781  f000				  -	      bpl	blacken320colorsloop
    782  f000				  -	      rts
    783  f000				  -
    784  f000				  -hschasecolors
    785  f000				  -	      lda	framecounter
    786  f000				  -	      and	#3
    787  f000				  -	      bne	hschasecolorsreturn
    788  f000				  -	      inc	hscolorchaseindex
    789  f000				  -	      lda	hscolorchaseindex
    790  f000				  -
    791  f000				  -	      sta	P5C2
    792  f000				  -	      sbc	#$02
    793  f000				  -	      sta	P4C2
    794  f000				  -	      sbc	#$02
    795  f000				  -	      sta	P3C2
    796  f000				  -	      sbc	#$02
    797  f000				  -	      sta	P2C2
    798  f000				  -	      sbc	#$02
    799  f000				  -	      sta	P1C2
    800  f000				  -hschasecolorsreturn
    801  f000				  -	      rts
    802  f000				  -
    803  f000				  -playhssfx
    804  f000				  -	      lda	hssfx_lo,x
    805  f000				  -	      sta	temp1
    806  f000				  -	      lda	hssfx_hi,x
    807  f000				  -	      sta	temp2
    808  f000				  -	      lda	#0
    809  f000				  -	      sta	temp3
    810  f000				  -	      jmp	schedulesfx
    811  f000				  -
    812  f000				  -hssfx_lo
    813  f000				  -	      .byte	<sfx_hsletterpositionchange, <sfx_hslettertick
    814  f000				  -hssfx_hi
    815  f000				  -	      .byte	>sfx_hsletterpositionchange, >sfx_hslettertick
    816  f000				  -
    817  f000				  -sfx_hsletterpositionchange
    818  f000				  -	      .byte	$10,$18,$00
    819  f000				  -	      .byte	$02,$06,$08
    820  f000				  -	      .byte	$02,$06,$04
    821  f000				  -	      .byte	$00,$00,$00
    822  f000				  -sfx_hslettertick
    823  f000				  -	      .byte	$10,$18,$00
    824  f000				  -	      .byte	$00,$00,$0a
    825  f000				  -	      .byte	$00,$00,$00
    826  f000				  -
    827  f000				  -highscorelabeladjust1
    828  f000				  -	      .byte	(80-(14*2)-(SCORESIZE*2)),(80-(16*2)-(SCORESIZE*2)),(80-(16*2)-(SCORESIZE*2)),(80-(16*2)-(SCORESIZE*2))
    829  f000				  -highscorelabeladjust2
    830  f000				  -	      .byte	(80+(14*2)-(SCORESIZE*2)),(80+(16*2)-(SCORESIZE*2)),(80+(16*2)-(SCORESIZE*2)),(80+(16*2)-(SCORESIZE*2))
    831  f000				  -
    832  f000				  -scorevarlo
    833  f000				  -	      .byte	<(score0+((6-SCORESIZE)/2)),<(score0+((6-SCORESIZE)/2)),<(score1+((6-SCORESIZE)/2)),<(score1+((6-SCORESIZE)/2))
    834  f000				  -scorevarhi
    835  f000				  -	      .byte	>(score0+((6-SCORESIZE)/2)),>(score0+((6-SCORESIZE)/2)),>(score1+((6-SCORESIZE)/2)),>(score1+((6-SCORESIZE)/2))
    836  f000				  -
    837  f000				  -	      endif		; !isBANKSETBANK
    838  f000				  -
    839  f000				  -	      ifnconst	HSNOLEVELNAMES
    840  f000				  -	      ifnconst	isBANKSETBANK
    841  f000				  -highscoredifficultytextlo
    842  f000				  -	      .byte	<easylevelname, <mediumlevelname, <hardlevelname, <expertlevelname
    843  f000				  -highscoredifficultytexthi
    844  f000				  -	      .byte	>easylevelname, >mediumlevelname, >hardlevelname, >expertlevelname
    845  f000				  -	      endif		; !isBANKSETBANK
    846  f000				  -
    847  f000				  -	      ifnconst	HSCUSTOMLEVELNAMES
    848  f000				  -	      ifnconst	isBANKSETBANK
    849  f000				  -highscoredifficultytextlen
    850  f000				  -	      .byte	22, 30, 26, 24
    851  f000				  -	      endif		; !isBANKSETBANK
    852  f000				  -
    853  f000				  -	      ifconst	HSCHARSHERE
    854  f000				  -
    855  f000				  -easylevelname
    856  f000				  -	      .byte	$04,$00,$12,$18,$1d,$0b,$04,$15,$04,$0b,$1d,$07,$08,$06,$07,$1d,$12,$02,$0e,$11,$04,$12
    857  f000				  -mediumlevelname
    858  f000				  -	      .byte	$08,$0d,$13,$04,$11,$0c,$04,$03,$08,$00,$13,$04,$1d,$0b,$04,$15,$04,$0b,$1d,$07,$08,$06,$07,$1d,$12,$02,$0e,$11,$04,$12
    859  f000				  -hardlevelname
    860  f000				  -	      .byte	$00,$03,$15,$00,$0d,$02,$04,$03,$1d,$0b,$04,$15,$04,$0b,$1d,$07,$08,$06,$07,$1d,$12,$02,$0e,$11,$04,$12
    861  f000				  -expertlevelname
    862  f000				  -	      .byte	$04,$17,$0f,$04,$11,$13,$1d,$0b,$04,$15,$04,$0b,$1d,$07,$08,$06,$07,$1d,$12,$02,$0e,$11,$04,$12
    863  f000				  -	      endif		; HSCHARSHERE
    864  f000				  -	      else		; HSCUSTOMLEVELNAMES
    865  f000				  -	      include	"7800hsgamediffnames.asm"
    866  f000				  -	      endif		; HSCUSTOMLEVELNAMES
    867  f000				  -	      else		; HSNOLEVELNAMES
    868  f000				  -	      ifconst	HSCHARSHERE
    869  f000				  -HSHIGHSCOREStext
    870  f000				  -	      .byte	$07,$08,$06,$07,$1d,$12,$02,$0e,$11,$04,$12
    871  f000				  -	      endif		; HSCHARSHERE
    872  f000				  -	      endif		; HSNOLEVELNAMES
    873  f000				  -
    874  f000				  -	      ifnconst	isBANKSETBANK
    875  f000				  -highscorelabeltextlo
    876  f000				  -	      .byte	<player0label, <player1label, <player2label, <player2label
    877  f000				  -highscorelabeltexthi
    878  f000				  -	      .byte	>player0label, >player1label, >player2label, >player2label
    879  f000				  -	      endif		; !isBANKSETBANK
    880  f000				  -
    881  f000				  -	      ifconst	HSCHARSHERE
    882  f000				  -player0label
    883  f000				  -	      .byte	$0f,$0b,$00,$18,$04,$11,$1d,$12,$02,$0e,$11,$04,$1a,$1d,$1d
    884  f000				  -
    885  f000				  -player1label
    886  f000				  -	      .byte	$0f,$0b,$00,$18,$04,$11,$1d,$22,$1d,$12,$02,$0e,$11,$04,$1a
    887  f000				  -
    888  f000				  -player2label
    889  f000				  -	      .byte	$0f,$0b,$00,$18,$04,$11,$1d,$23,$1d,$12,$02,$0e,$11,$04,$1a
    890  f000				  -	      endif		; HSCHARSHERE
    891  f000				  -
    892  f000				  -
    893  f000				  -	      ifconst	HSGAMENAMELEN
    894  f000				  -	      ifconst	HSCHARSHERE
    895  f000				  -HSGAMENAMEtable
    896  f000				  -	      include	"7800hsgamename.asm"
    897  f000				  -	      endif		; HSCHARSHERE
    898  f000				  -	      endif		; HSGAMENAMELEN
    899  f000				  -	      ifconst	HSGAMERANKS
    900  f000				  -	      include	"7800hsgameranks.asm"
    901  f000				  -	      ifconst	HSCHARSHERE
    902  f000				  -highscoreranklabel
    903  f000				  -	      .byte	$11,$00,$0d,$0a,$1a
    904  f000				  -	      endif		; HSCHARSHERE
    905  f000				  -	      endif		; HSGAMERANKS
    906  f000				  -
    907  f000				  -			;ensure our table doesn't wrap a page...
    908  f000				  -	      if	((<*)>251)
    909  f000				  -	      align	256
    910  f000				  -	      endif
    911  f000				  -hsgameslotnumbers
    912  f000				  -	      .byte	33,34,35,36,37
    913  f000				  -	      endif		; hiscorefont
    914  f000				  -
    915  f000				  -
    916  f000				  -	      ifnconst	isBANKSETBANK
    917  f000				  -loaddifficultytable
    918  f000				  -	      lda	gamedifficulty
    919  f000				  -	      and	#$03	; ensure the user hasn't selected an invalid difficulty
    920  f000				  -	      sta	gamedifficulty
    921  f000				  -	      cmp	hsdifficulty	; check game difficulty is the same as RAM table
    922  f000				  -	      bne	loaddifficultytablecontinue1
    923  f000				  -	      rts		; this high score difficulty table is already loaded
    924  f000				  -loaddifficultytablecontinue1
    925  f000				  -	      lda	gamedifficulty
    926  f000				  -	      sta	hsdifficulty
    927  f000				  -			;we need to check the device for the table
    928  f000				  -	      lda	hsdevice
    929  f000				  -	      bne	loaddifficultytablecontinue2
    930  f000				  -			; there's no save device. clear out this table.
    931  f000				  -	      jmp	cleardifficultytablemem
    932  f000				  -loaddifficultytablecontinue2
    933  f000				  -	      lda	hsdevice
    934  f000				  -	      and	#1
    935  f000				  -	      beq	memdeviceisntHSC
    936  f000				  -	      jmp	loaddifficultytableHSC
    937  f000				  -memdeviceisntHSC
    938  f000				  -	      jmp	loaddifficultytableAVOX
    939  f000				  -
    940  f000				  -savedifficultytable
    941  f000				  -			;*** we need to check which device we should use...
    942  f000				  -	      lda	hsdevice
    943  f000				  -	      bne	savedifficultytablerealdevice
    944  f000				  -	      rts		; its a ram device
    945  f000				  -savedifficultytablerealdevice
    946  f000				  -	      and	#1
    947  f000				  -	      beq	savememdeviceisntHSC
    948  f000				  -	      jmp	savedifficultytableHSC
    949  f000				  -savememdeviceisntHSC
    950  f000				  -	      jmp	savedifficultytableAVOX
    951  f000				  -
    952  f000				  -savedifficultytableAVOX
    953  f000				  -			; the load call already setup the memory structure and atarivox memory location
    954  f000				  -	      jsr	savealoadedHSCtablecontinue
    955  f000				  -savedifficultytableAVOXskipconvert
    956  f000				  -	      lda	#HSIDHI
    957  f000				  -	      sta	eeprombuffer
    958  f000				  -	      lda	#HSIDLO
    959  f000				  -	      sta	eeprombuffer+1
    960  f000				  -	      lda	hsdifficulty
    961  f000				  -	      sta	eeprombuffer+2
    962  f000				  -	      lda	#32
    963  f000				  -	      jsr	AVoxWriteBytes
    964  f000				  -	      rts
    965  f000				  -
    966  f000				  -savedifficultytableHSC
    967  f000				  -			;we always load a table before reaching here, so the
    968  f000				  -			;memory structures from the load should be intact...
    969  f000				  -	      ldy	hsgameslot
    970  f000				  -	      bpl	savealoadedHSCtable
    971  f000				  -	      rts
    972  f000				  -savealoadedHSCtable
    973  f000				  -	      lda	HSCGameDifficulty,y
    974  f000				  -	      cmp	#$7F
    975  f000				  -	      bne	savealoadedHSCtablecontinue
    976  f000				  -	      jsr	initializeHSCtableentry
    977  f000				  -savealoadedHSCtablecontinue
    978  f000				  -			;convert our RAM table to HSC format and write it out...
    979  f000				  -	      ldy	#0
    980  f000				  -	      ldx	#0
    981  f000				  -savedifficultytableScores
    982  f000				  -
    983  f000				  -	      lda	HSRAMInitials,x
    984  f000				  -	      sta	temp3
    985  f000				  -	      lda	HSRAMInitials+1,x
    986  f000				  -	      sta	temp4
    987  f000				  -	      lda	HSRAMInitials+2,x
    988  f000				  -	      sta	temp5
    989  f000				  -	      jsr	encodeHSCInitials	; takes 3 byte initials from temp3,4,5 and stores 2 byte initials in temp1,2
    990  f000				  -
    991  f000				  -	      lda	temp1
    992  f000				  -	      sta	(HSGameTableLo),y
    993  f000				  -	      iny
    994  f000				  -	      lda	temp2
    995  f000				  -	      sta	(HSGameTableLo),y
    996  f000				  -	      iny
    997  f000				  -
    998  f000				  -	      lda	HSRAMScores,x
    999  f000				  -	      sta	(HSGameTableLo),y
   1000  f000				  -	      iny
   1001  f000				  -	      lda	HSRAMScores+1,x
   1002  f000				  -	      sta	(HSGameTableLo),y
   1003  f000				  -	      iny
   1004  f000				  -	      lda	HSRAMScores+2,x
   1005  f000				  -	      sta	(HSGameTableLo),y
   1006  f000				  -	      iny
   1007  f000				  -	      inx
   1008  f000				  -	      inx
   1009  f000				  -	      inx		; +3
   1010  f000				  -	      cpx	#15
   1011  f000				  -	      bne	savedifficultytableScores
   1012  f000				  -	      rts
   1013  f000				  -
   1014  f000				  -loaddifficultytableHSC
   1015  f000				  -			; routine responsible for loading the difficulty table from HSC
   1016  f000				  -	      jsr	findindexHSC
   1017  f000				  -	      ldy	hsgameslot
   1018  f000				  -	      lda	HSCGameDifficulty,y
   1019  f000				  -	      cmp	#$7F
   1020  f000				  -	      bne	loaddifficultytableHSCcontinue
   1021  f000				  -			;there was an error. use a new RAM table instead...
   1022  f000				  -	      jsr	initializeHSCtableentry
   1023  f000				  -	      jmp	cleardifficultytablemem
   1024  f000				  -loaddifficultytableHSCcontinue
   1025  f000				  -			; parse the data into the HS memory...
   1026  f000				  -	      ldy	#0
   1027  f000				  -	      ldx	#0
   1028  f000				  -loaddifficultytableScores
   1029  f000				  -	      lda	(HSGameTableLo),y
   1030  f000				  -	      sta	temp1
   1031  f000				  -	      iny
   1032  f000				  -	      lda	(HSGameTableLo),y
   1033  f000				  -	      sta	temp2
   1034  f000				  -	      jsr	decodeHSCInitials	; takes 2 byte initials from temp1,2 and stores 3 byte initials in temp3,4,5
   1035  f000				  -	      iny
   1036  f000				  -	      lda	(HSGameTableLo),y
   1037  f000				  -	      sta	HSRAMScores,x
   1038  f000				  -	      lda	temp3
   1039  f000				  -	      sta	HSRAMInitials,x
   1040  f000				  -	      inx
   1041  f000				  -	      iny
   1042  f000				  -	      lda	(HSGameTableLo),y
   1043  f000				  -	      sta	HSRAMScores,x
   1044  f000				  -	      lda	temp4
   1045  f000				  -	      sta	HSRAMInitials,x
   1046  f000				  -	      inx
   1047  f000				  -	      iny
   1048  f000				  -	      lda	(HSGameTableLo),y
   1049  f000				  -	      sta	HSRAMScores,x
   1050  f000				  -	      lda	temp5
   1051  f000				  -	      sta	HSRAMInitials,x
   1052  f000				  -	      inx
   1053  f000				  -	      iny
   1054  f000				  -	      cpx	#15
   1055  f000				  -	      bne	loaddifficultytableScores
   1056  f000				  -	      ldx	#14
   1057  f000				  -	      lda	#$ff
   1058  f000				  -validatescoresloop
   1059  f000				  -	      and	HSRAMScores,x
   1060  f000				  -	      dex
   1061  f000				  -	      bpl	validatescoresloop
   1062  f000				  -	      cmp	#$ff
   1063  f000				  -	      bne	exitloaddifficultytableScores
   1064  f000				  -	      jmp	cleardifficultytablemem
   1065  f000				  -exitloaddifficultytableScores
   1066  f000				  -	      rts
   1067  f000				  -
   1068  f000				  -decodeHSCInitials
   1069  f000				  -			; takes 2 byte initials from temp1,2 and stores 3 byte initials in temp3,4,5
   1070  f000				  -			; 2 bytes are packed in the form: 22211111 22_33333
   1071  f000				  -	      lda	#0
   1072  f000				  -	      sta	temp4
   1073  f000				  -	      lda	temp1
   1074  f000				  -	      and	#%00011111
   1075  f000				  -	      sta	temp3
   1076  f000				  -
   1077  f000				  -	      lda	temp2
   1078  f000				  -	      and	#%00011111
   1079  f000				  -	      sta	temp5
   1080  f000				  -
   1081  f000				  -	      lda	temp1
   1082  f000				  -	      asl
   1083  f000				  -	      rol	temp4
   1084  f000				  -	      asl
   1085  f000				  -	      rol	temp4
   1086  f000				  -	      asl
   1087  f000				  -	      rol	temp4
   1088  f000				  -	      lda	temp2
   1089  f000				  -	      asl
   1090  f000				  -	      rol	temp4
   1091  f000				  -	      asl
   1092  f000				  -	      rol	temp4
   1093  f000				  -	      rts
   1094  f000				  -encodeHSCInitials
   1095  f000				  -			; takes 3 byte initials from temp3,4,5 and stores 2 byte initials in temp1,2
   1096  f000				  -			; 2 bytes are packed in the form: 22211111 22_33333
   1097  f000				  -			; start with packing temp1...
   1098  f000				  -	      lda	temp4
   1099  f000				  -	      and	#%00011100
   1100  f000				  -	      sta	temp1
   1101  f000				  -	      asl	temp1
   1102  f000				  -	      asl	temp1
   1103  f000				  -	      asl	temp1
   1104  f000				  -	      lda	temp3
   1105  f000				  -	      and	#%00011111
   1106  f000				  -	      ora	temp1
   1107  f000				  -	      sta	temp1
   1108  f000				  -			; ...temp1 is now packed, on to temp2...
   1109  f000				  -	      lda	temp5
   1110  f000				  -	      asl
   1111  f000				  -	      asl
   1112  f000				  -	      ror	temp4
   1113  f000				  -	      ror
   1114  f000				  -	      ror	temp4
   1115  f000				  -	      ror
   1116  f000				  -	      sta	temp2
   1117  f000				  -	      rts
   1118  f000				  -
   1119  f000				  -findindexHSCerror
   1120  f000				  -			;the HSC is stuffed. return the bad slot flag
   1121  f000				  -	      ldy	#$ff
   1122  f000				  -	      sty	hsgameslot
   1123  f000				  -	      rts
   1124  f000				  -
   1125  f000				  -findindexHSC
   1126  f000				  -HSCGameID1 =	$1029
   1127  f000				  -HSCGameID2 =	$106E
   1128  f000				  -HSCGameDifficulty =	$10B3
   1129  f000				  -HSCGameIndex =	$10F8
   1130  f000				  -			; routine responsible for finding the game index from HSC
   1131  f000				  -			; call with x=0 to create a new table if none exist, call with x=$ff to avoid creating new tables
   1132  f000				  -			; the HS loading routine will use x=$ff, the HS saving routine will use x=0
   1133  f000				  -	      ldy	#69	; start +1 to account for the dey
   1134  f000				  -findindexHSCloop
   1135  f000				  -	      dey
   1136  f000				  -	      bmi	findindexHSCerror
   1137  f000				  -	      lda	HSCGameDifficulty,y
   1138  f000				  -	      cmp	#$7F
   1139  f000				  -	      beq	findourindexHSC
   1140  f000				  -	      cmp	gamedifficulty
   1141  f000				  -	      bne	findindexHSCloop
   1142  f000				  -	      lda	HSCGameID1,y
   1143  f000				  -	      cmp	#HSIDHI
   1144  f000				  -	      bne	findindexHSCloop
   1145  f000				  -	      lda	HSCGameID2,y
   1146  f000				  -	      cmp	#HSIDLO
   1147  f000				  -	      bne	findindexHSCloop
   1148  f000				  -findourindexHSC
   1149  f000				  -			; if we're here we found our index in the table
   1150  f000				  -			; or we found the first empty one
   1151  f000				  -	      sty	hsgameslot
   1152  f000				  -	      jsr	setupHSCGamepointer	; setup the pointer to the HS Table for this game...
   1153  f000				  -	      rts
   1154  f000				  -
   1155  f000				  -
   1156  f000				  -initializeHSCtableentry
   1157  f000				  -	      ldy	hsgameslot
   1158  f000				  -			; we need to make a new entry...
   1159  f000				  -	      lda	#HSIDHI
   1160  f000				  -	      sta	HSCGameID1,y
   1161  f000				  -	      lda	#HSIDLO
   1162  f000				  -	      sta	HSCGameID2,y
   1163  f000				  -	      lda	gamedifficulty
   1164  f000				  -	      sta	HSCGameDifficulty,y
   1165  f000				  -	      ldx	#0
   1166  f000				  -fixHSDGameDifficultylistLoop
   1167  f000				  -	      inx
   1168  f000				  -	      txa
   1169  f000				  -	      sta	HSCGameIndex,y
   1170  f000				  -	      iny
   1171  f000				  -	      cpy	#69
   1172  f000				  -	      bne	fixHSDGameDifficultylistLoop
   1173  f000				  -	      rts
   1174  f000				  -
   1175  f000				  -setupHSCGamepointer
   1176  f000				  -			; this routines sets (HSGameTableLo) pointing to the game's HS table
   1177  f000				  -	      lda	#$17
   1178  f000				  -	      sta	HSGameTableHi
   1179  f000				  -	      lda	#$FA
   1180  f000				  -	      sta	HSGameTableLo
   1181  f000				  -setupHSCGamepointerLoop
   1182  f000				  -	      lda	HSGameTableLo
   1183  f000				  -	      sec
   1184  f000				  -	      sbc	#25
   1185  f000				  -	      sta	HSGameTableLo
   1186  f000				  -	      lda	HSGameTableHi
   1187  f000				  -	      sbc	#0
   1188  f000				  -	      sta	HSGameTableHi
   1189  f000				  -	      iny
   1190  f000				  -	      cpy	#69
   1191  f000				  -	      bne	setupHSCGamepointerLoop
   1192  f000				  -	      rts
   1193  f000				  -
   1194  f000				  -loaddifficultytableAVOX
   1195  f000				  -			; routine responsible for loading the difficulty table from Avox
   1196  f000				  -			; we reuse HSC routines to format data to/from our Avox RAM buffer...
   1197  f000				  -	      lda	#>(eeprombuffer+3)
   1198  f000				  -	      sta	HSGameTableHi
   1199  f000				  -	      lda	#<(eeprombuffer+3)
   1200  f000				  -	      sta	HSGameTableLo
   1201  f000				  -
   1202  f000				  -			; the start location in EEPROM, subtract 32...
   1203  f000				  -	      lda	#$5F
   1204  f000				  -	      sta	HSVoxHi
   1205  f000				  -	      lda	#$E0
   1206  f000				  -	      sta	HSVoxLo
   1207  f000				  -	      lda	#0
   1208  f000				  -	      sta	temp1
   1209  f000				  -loaddifficultytableAVOXloop
   1210  f000				  -	      inc	temp1
   1211  f000				  -	      beq	loaddifficultytableAVOXfull
   1212  f000				  -	      clc
   1213  f000				  -	      lda	HSVoxLo
   1214  f000				  -	      adc	#32
   1215  f000				  -	      sta	HSVoxLo
   1216  f000				  -	      lda	HSVoxHi
   1217  f000				  -	      adc	#0
   1218  f000				  -	      sta	HSVoxHi
   1219  f000				  -	      lda	#3
   1220  f000				  -	      jsr	AVoxReadBytes	; read in 3 bytes, ID1,ID2,Difficulty
   1221  f000				  -	      lda	eeprombuffer
   1222  f000				  -	      cmp	#$FF
   1223  f000				  -	      beq	loaddifficultytableAVOXempty
   1224  f000				  -	      cmp	#HSIDHI
   1225  f000				  -	      bne	loaddifficultytableAVOXloop
   1226  f000				  -	      lda	eeprombuffer+1
   1227  f000				  -	      cmp	#HSIDLO
   1228  f000				  -	      bne	loaddifficultytableAVOXloop
   1229  f000				  -	      lda	eeprombuffer+2
   1230  f000				  -	      cmp	gamedifficulty
   1231  f000				  -	      bne	loaddifficultytableAVOXloop
   1232  f000				  -loaddifficultytableAVOXdone
   1233  f000				  -	      lda	#32
   1234  f000				  -	      jsr	AVoxReadBytes
   1235  f000				  -	      jsr	loaddifficultytableHSCcontinue
   1236  f000				  -	      rts
   1237  f000				  -loaddifficultytableAVOXfull
   1238  f000				  -	      lda	#0
   1239  f000				  -	      sta	hsdevice	; looks like all 255 entries are taken... disable it.
   1240  f000				  -loaddifficultytableAVOXempty
   1241  f000				  -	      jmp	cleardifficultytablemem
   1242  f000				  -	      rts
   1243  f000				  -
   1244  f000				  -cleardifficultytablemem
   1245  f000				  -	      ldy	#29
   1246  f000				  -	      lda	#0
   1247  f000				  -cleardifficultytablememloop
   1248  f000				  -	      sta	HSRAMTable,y
   1249  f000				  -	      dey
   1250  f000				  -	      bpl	cleardifficultytablememloop
   1251  f000				  -	      rts
   1252  f000				  -hiscoremoduleend
   1253  f000				  -
   1254  f000				  -hiscorecleardlmem
   1255  f000				  -	      ldx	#(WZONECOUNT-1)
   1256  f000				  -hiscorecleardlmemloop1
   1257  f000				  -	      lda	DLPOINTL,x
   1258  f000				  -	      sta	dlpnt
   1259  f000				  -	      lda	DLPOINTH,x
   1260  f000				  -	      sta	dlpnt+1
   1261  f000				  -	      lda	#0
   1262  f000				  -	      ldy	#17
   1263  f000				  -hiscorecleardlmemloop2
   1264  f000				  -	      sta	(dlpnt),y
   1265  f000				  -	      dey
   1266  f000				  -	      bpl	hiscorecleardlmemloop2
   1267  f000				  -	      dex
   1268  f000				  -	      bpl	hiscorecleardlmemloop1
   1269  f000				  -	      rts
   1270  f000				  -
   1271  f000				  -	      ifconst	DOUBLEWIDE
   1272  f000				  -plotvaluedw
   1273  f000				  -plotdigitcount =	temp6
   1274  f000				  -	      lda	#0
   1275  f000				  -	      tay
   1276  f000				  -	      ldx	valbufend
   1277  f000				  -
   1278  f000				  -	      lda	plotdigitcount
   1279  f000				  -	      and	#1
   1280  f000				  -	      beq	pvnibble2chardw
   1281  f000				  -	      lda	#0
   1282  f000				  -	      sta	VALBUFFER,x	; just in case we skip this digit
   1283  f000				  -	      beq	pvnibble2char_skipnibbledw
   1284  f000				  -
   1285  f000				  -pvnibble2chardw
   1286  f000				  -			; high nibble...
   1287  f000				  -	      lda	(temp7),y
   1288  f000				  -	      and	#$f0
   1289  f000				  -	      lsr
   1290  f000				  -	      lsr
   1291  f000				  -	      lsr
   1292  f000				  -	      lsr
   1293  f000				  -
   1294  f000				  -	      clc
   1295  f000				  -	      adc	temp1	; add the offset to character graphics to our value
   1296  f000				  -	      sta	VALBUFFER,x
   1297  f000				  -	      inx
   1298  f000				  -	      dec	plotdigitcount
   1299  f000				  -pvnibble2char_skipnibbledw
   1300  f000				  -			; low nibble...
   1301  f000				  -	      lda	(temp7),y
   1302  f000				  -	      and	#$0f
   1303  f000				  -	      clc
   1304  f000				  -	      adc	temp1	; add the offset to character graphics to our value
   1305  f000				  -	      sta	VALBUFFER,x
   1306  f000				  -	      inx
   1307  f000				  -	      iny
   1308  f000				  -
   1309  f000				  -	      dec	plotdigitcount
   1310  f000				  -	      bne	pvnibble2chardw
   1311  f000				  -			;point to the start of our valuebuffer
   1312  f000				  -	      clc
   1313  f000				  -	      lda	#<VALBUFFER
   1314  f000				  -	      adc	valbufend
   1315  f000				  -	      sta	temp1
   1316  f000				  -	      lda	#>VALBUFFER
   1317  f000				  -	      adc	#0
   1318  f000				  -	      sta	temp2
   1319  f000				  -
   1320  f000				  -			;advance valbufend to the end of our value buffer
   1321  f000				  -	      stx	valbufend
   1322  f000				  -
   1323  f000				  -	      ifnconst	plotvalueonscreen
   1324  f000				  -	      jmp	plotcharacters
   1325  f000				  -	      else
   1326  f000				  -	      jmp	plotcharacterslive
   1327  f000				  -	      endif
   1328  f000				  -	      endif		; DOUBLEWIDE
   1329  f000				  -
   1330  f000				  -hiscoreend
   1331  f000				  -	      echo	" (hiscore module is using ",[(hiscoreend-hiscorestart)]d," bytes)"
   1332  f000				  -	      endif		; !isBANKSETBANK
   1333  f000					      endif		; HSSUPPORT
   1334  f000
------- FILE simple.bas.asm
   1892  f000					      endif
   1893  f000					      ifnconst	included.fourbitfade.asm
------- FILE fourbitfade.asm LEVEL 2 PASS 3
      0  f000					      include	fourbitfade.asm
      1  f000							; ** fourbit fade, which is useful for audio levels and brightness fades
      2  f000							; ** input:  A=value to fade, fourbitfadevalue=global fade value
      3  f000							; **	      N.B. the global fade value is in the upper nibble. i.e. $Fx-0x
      4  f000							; ** output: A=faded value in lo nibble. orig top nibble is preserved,
      5  f000							; **	      other registers are preserved
      6  f000
      7  f000				  -	      ifconst	FOURBITFADE
      8  f000				  -
      9  f000				  -			; non-interrupt routine
     10  f000				  -
     11  f000				  -fourbitfade
     12  f000				  -	      sty	fourbittemp1
     13  f000				  -	      pha
     14  f000				  -	      and	#$0F
     15  f000				  -	      ora	fourbitfadevalue
     16  f000				  -	      tay
     17  f000				  -	      pla
     18  f000				  -	      and	#$F0
     19  f000				  -	      ora	fourbitfadelut,y
     20  f000				  -	      ldy	fourbittemp1	; restore Y
     21  f000				  -	      rts
     22  f000				  -
     23  f000				  -			; interrupt routine
     24  f000				  -
     25  f000				  -fourbitfadeint
     26  f000				  -	      sty	fourbittemp1int
     27  f000				  -	      pha
     28  f000				  -	      and	#$0F
     29  f000				  -	      ora	fourbitfadevalueint
     30  f000				  -	      tay
     31  f000				  -	      pla
     32  f000				  -	      and	#$F0
     33  f000				  -	      ora	fourbitfadelut,y
     34  f000				  -	      ldy	fourbittemp1int	; restore Y
     35  f000				  -	      rts
     36  f000				  -
     37  f000				  -fourbitfadelut
     38  f000				  -	      .byte	$00,$00,$00,$00,$00,$00,$00,$00,$00,$00,$00,$00,$00,$00,$00,$00
     39  f000				  -	      .byte	$00,$00,$00,$00,$00,$00,$00,$00,$01,$01,$01,$01,$01,$01,$01,$01
     40  f000				  -	      .byte	$00,$00,$00,$00,$00,$00,$01,$01,$01,$01,$01,$02,$02,$02,$02,$02
     41  f000				  -	      .byte	$00,$00,$00,$00,$01,$01,$01,$01,$02,$02,$02,$02,$03,$03,$03,$03
     42  f000				  -	      .byte	$00,$00,$00,$00,$01,$01,$01,$02,$02,$02,$03,$03,$03,$04,$04,$04
     43  f000				  -	      .byte	$00,$00,$00,$01,$01,$01,$02,$02,$03,$03,$03,$04,$04,$04,$05,$05
     44  f000				  -	      .byte	$00,$00,$00,$01,$01,$02,$02,$03,$03,$03,$04,$04,$05,$05,$06,$06
     45  f000				  -	      .byte	$00,$00,$01,$01,$02,$02,$03,$03,$04,$04,$05,$05,$06,$06,$07,$07
     46  f000				  -	      .byte	$00,$00,$01,$01,$02,$02,$03,$03,$04,$05,$05,$06,$06,$07,$07,$08
     47  f000				  -	      .byte	$00,$00,$01,$01,$02,$03,$03,$04,$05,$05,$06,$06,$07,$08,$08,$09
     48  f000				  -	      .byte	$00,$00,$01,$02,$02,$03,$04,$04,$05,$06,$06,$07,$08,$08,$09,$0a
     49  f000				  -	      .byte	$00,$00,$01,$02,$03,$03,$04,$05,$06,$06,$07,$08,$09,$09,$0a,$0b
     50  f000				  -	      .byte	$00,$00,$01,$02,$03,$04,$04,$05,$06,$07,$08,$08,$09,$0a,$0b,$0c
     51  f000				  -	      .byte	$00,$00,$01,$02,$03,$04,$05,$06,$07,$07,$08,$09,$0a,$0b,$0c,$0d
     52  f000				  -	      .byte	$00,$00,$01,$02,$03,$04,$05,$06,$07,$08,$09,$0a,$0b,$0c,$0d,$0e
     53  f000				  -	      .byte	$00,$01,$02,$03,$04,$05,$06,$07,$08,$09,$0a,$0b,$0c,$0d,$0e,$0f
     54  f000				  -
     55  f000				  -fourbitfadeend
     56  f000				  -
     57  f000				  -	      echo	"  (fourbitfade module is using ",[(fourbitfadeend-fourbitfade)]d," bytes of rom)"
     58  f000				  -
     59  f000					      endif
------- FILE simple.bas.asm
   1895  f000					      endif
   1896  f000					      ifnconst	included.plotsprite4.asm
------- FILE plotsprite4.asm LEVEL 2 PASS 3
      0  f000					      include	plotsprite4.asm
      1  f000							; Provided under the CC0 license. See the included LICENSE.txt for details.
      2  f000
      3  f000				  -	      ifconst	PLOTSP4
      4  f000				  -
      5  f000				  -plotsprite4
      6  f000				  -	      ifnconst	NODRAWWAIT
      7  f000				  -	      ifconst	DOUBLEBUFFER
      8  f000				  -	      lda	doublebufferstate
      9  f000				  -	      bne	skipplotsprite4wait
     10  f000				  -	      endif		; DOUBLEBUFFER
     11  f000				  -	      ifconst	DEBUGWAITCOLOR
     12  f000				  -	      lda	#$41
     13  f000				  -	      sta	BACKGRND
     14  f000				  -	      endif
     15  f000				  -plotsprite4wait
     16  f000				  -	      lda	visibleover
     17  f000				  -	      bne	plotsprite4wait
     18  f000				  -skipplotsprite4wait
     19  f000				  -	      ifconst	DEBUGWAITCOLOR
     20  f000				  -	      lda	#$0
     21  f000				  -	      sta	BACKGRND
     22  f000				  -	      endif
     23  f000				  -	      endif
     24  f000				  -
     25  f000				  -			;arguments:
     26  f000				  -			; temp1=lo graphicdata
     27  f000				  -			; temp2=hi graphicdata
     28  f000				  -			; temp3=palette | width byte
     29  f000				  -			; temp4=x
     30  f000				  -			; temp5=y
     31  f000				  -
     32  f000				  -	      lda	temp5	;Y position
     33  f000				  -	      lsr		; 2 - Divide by 8 or 16
     34  f000				  -	      lsr		; 2
     35  f000				  -	      lsr		; 2
     36  f000				  -	      if	WZONEHEIGHT = 16
     37  f000				  -	      lsr		; 2
     38  f000				  -	      endif
     39  f000				  -
     40  f000				  -	      tax
     41  f000				  -
     42  f000				  -	      ifnconst	NOLIMITCHECKING
     43  f000				  -
     44  f000				  -			; the next block allows for vertical masking, and ensures we don't overwrite non-DL memory
     45  f000				  -
     46  f000				  -	      cmp	#WZONECOUNT
     47  f000				  -
     48  f000				  -	      bcc	continueplotsprite41	; the sprite is fully on-screen, so carry on...
     49  f000				  -			; otherwise, check to see if the bottom half is in zone 0...
     50  f000				  -
     51  f000				  -	      if	WZONEHEIGHT = 16
     52  f000				  -	      cmp	#15
     53  f000				  -	      else
     54  f000				  -	      cmp	#31
     55  f000				  -	      endif
     56  f000				  -
     57  f000				  -	      bne	exitplotsprite41
     58  f000				  -	      ldx	#0
     59  f000				  -	      jmp	continueplotsprite42
     60  f000				  -exitplotsprite41
     61  f000				  -	      rts
     62  f000				  -	      endif
     63  f000				  -
     64  f000				  -continueplotsprite41
     65  f000				  -
     66  f000				  -	      ifconst	VSCROLL
     67  f000				  -	      ldy	Xx3,x
     68  f000				  -	      lda	DLLMEM+11,y
     69  f000				  -	      else		; !VSCROLL
     70  f000				  -	      lda	DLPOINTL,x	;Get pointer to DL that this sprite starts in
     71  f000				  -	      endif		; !VSCROLL
     72  f000				  -	      ifconst	DOUBLEBUFFER
     73  f000				  -	      clc
     74  f000				  -	      adc	doublebufferdloffset
     75  f000				  -	      endif		; DOUBLEBUFFER
     76  f000				  -	      sta	dlpnt
     77  f000				  -	      ifconst	VSCROLL
     78  f000				  -	      lda	DLLMEM+10,y
     79  f000				  -	      else		; !VSCROLL
     80  f000				  -	      lda	DLPOINTH,x
     81  f000				  -	      endif		; !VSCROLL
     82  f000				  -	      ifconst	DOUBLEBUFFER
     83  f000				  -	      adc	#0
     84  f000				  -	      endif		; DOUBLEBUFFER
     85  f000				  -	      sta	dlpnt+1
     86  f000				  -
     87  f000				  -			;Create DL entry for upper part of sprite
     88  f000				  -
     89  f000				  -	      ldy	dlend,x	;Get the index to the end of this DL
     90  f000				  -
     91  f000				  -	      ifconst	CHECKOVERWRITE
     92  f000				  -	      cpy	#DLLASTOBJ
     93  f000				  -	      beq	checkcontinueplotsprite42
     94  f000				  -continueplotsprite41a
     95  f000				  -	      endif
     96  f000				  -
     97  f000				  -	      lda	temp1	; graphic data, lo byte
     98  f000				  -	      sta	(dlpnt),y	;Low byte of data address
     99  f000				  -
    100  f000				  -	      iny
    101  f000				  -	      lda	temp3	;palette|width
    102  f000				  -	      sta	(dlpnt),y
    103  f000				  -
    104  f000				  -	      iny
    105  f000				  -	      lda	temp5	;Y position
    106  f000				  -	      and	#(WZONEHEIGHT - 1)
    107  f000				  -	      cmp	#1	; clear carry if our sprite is just in this zone
    108  f000				  -	      ora	temp2	; graphic data, hi byte
    109  f000				  -	      sta	(dlpnt),y
    110  f000				  -
    111  f000				  -	      iny
    112  f000				  -	      lda	temp4	;Horizontal position
    113  f000				  -	      sta	(dlpnt),y
    114  f000				  -
    115  f000				  -	      iny
    116  f000				  -	      sty	dlend,x
    117  f000				  -
    118  f000				  -	      ifconst	ALWAYSTERMINATE
    119  f000				  -	      iny
    120  f000				  -	      lda	#0
    121  f000				  -	      sta	(dlpnt),y
    122  f000				  -	      endif
    123  f000				  -
    124  f000				  -checkcontinueplotsprite42
    125  f000				  -
    126  f000				  -	      bcc	doneSPDL4	;branch if the sprite was fully in the last zone
    127  f000				  -
    128  f000				  -			;Create DL entry for lower part of sprite
    129  f000				  -
    130  f000				  -	      inx		;Next region
    131  f000				  -
    132  f000				  -	      ifnconst	NOLIMITCHECKING
    133  f000				  -	      cpx	#WZONECOUNT
    134  f000				  -
    135  f000				  -	      bcc	continueplotsprite42	; the second half of the sprite is fully on-screen, so carry on...
    136  f000				  -	      rts
    137  f000				  -continueplotsprite42
    138  f000				  -	      endif
    139  f000				  -
    140  f000				  -	      ifconst	VSCROLL
    141  f000				  -	      ldy	Xx3,x
    142  f000				  -	      lda	DLLMEM+11,y
    143  f000				  -	      else		; !VSCROLL
    144  f000				  -	      lda	DLPOINTL,x	;Get pointer to next DL
    145  f000				  -	      endif		; !VSCROLL
    146  f000				  -	      ifconst	DOUBLEBUFFER
    147  f000				  -	      clc
    148  f000				  -	      adc	doublebufferdloffset
    149  f000				  -	      endif		; DOUBLEBUFFER
    150  f000				  -	      sta	dlpnt
    151  f000				  -	      ifconst	VSCROLL
    152  f000				  -	      lda	DLLMEM+10,y
    153  f000				  -	      else		; !VSCROLL
    154  f000				  -	      lda	DLPOINTH,x
    155  f000				  -	      endif		; !VSCROLL
    156  f000				  -	      ifconst	DOUBLEBUFFER
    157  f000				  -	      adc	#0
    158  f000				  -	      endif		; DOUBLEBUFFER
    159  f000				  -	      sta	dlpnt+1
    160  f000				  -	      ldy	dlend,x	;Get the index to the end of this DL
    161  f000				  -
    162  f000				  -	      ifconst	CHECKOVERWRITE
    163  f000				  -	      cpy	#DLLASTOBJ
    164  f000				  -	      bne	continueplotsprite42a
    165  f000				  -	      rts
    166  f000				  -continueplotsprite42a
    167  f000				  -	      endif
    168  f000				  -
    169  f000				  -	      lda	temp1	; graphic data, lo byte
    170  f000				  -	      sta	(dlpnt),y
    171  f000				  -
    172  f000				  -	      iny
    173  f000				  -	      lda	temp3	;palette|width
    174  f000				  -	      sta	(dlpnt),y
    175  f000				  -
    176  f000				  -	      iny
    177  f000				  -	      lda	temp5	;Y position
    178  f000				  -	      anc	#(WZONEHEIGHT - 1)	; undocumented. A=A&IMM, then move bit 7 into carry
    179  f000				  -	      ora	temp2	; graphic data, hi byte
    180  f000				  -	      sbc	#(WZONEHEIGHT-1)	; start at the DMA hole. -1 because carry is clear
    181  f000				  -	      sta	(dlpnt),y
    182  f000				  -
    183  f000				  -	      iny
    184  f000				  -	      lda	temp4	;Horizontal position
    185  f000				  -	      sta	(dlpnt),y
    186  f000				  -
    187  f000				  -	      iny
    188  f000				  -	      sty	dlend,x
    189  f000				  -
    190  f000				  -	      ifconst	ALWAYSTERMINATE
    191  f000				  -	      iny
    192  f000				  -	      lda	#0
    193  f000				  -	      sta	(dlpnt),y
    194  f000				  -	      endif
    195  f000				  -
    196  f000				  -doneSPDL4
    197  f000				  -	      rts
    198  f000				  -
    199  f000					      endif		; PLOTSP4
------- FILE simple.bas.asm
   1898  f000					      endif
   1899  f000					      ifnconst	included.lzsa1compression.asm
------- FILE lzsa1compression.asm LEVEL 2 PASS 3
      0  f000					      include	lzsa1compression.asm
      1  f000							; ***************************************************************************
      2  f000							; ***************************************************************************
      3  f000							;
      4  f000							; lzsa1_6502.s
      5  f000							;
      6  f000							; NMOS 6502 decompressor for data stored in Emmanuel Marty's LZSA1 format.
      7  f000							;
      8  f000							; Decompresses a raw LZSA1 block, created with the command-line lzsa utility:
      9  f000							;     lzsa -r <original_file> <compressed_file>
     10  f000							;
     11  f000							; in:
     12  f000							; * LZSA_SRC_LO and LZSA_SRC_HI contain the compressed raw block address
     13  f000							; * LZSA_DST_LO and LZSA_DST_HI contain the destination buffer address
     14  f000							;
     15  f000							; out:
     16  f000							; * the destination buffer will contain the decompressed data
     17  f000							; * LZSA_DST_LO and LZSA_DST_HI contain the last decompressed byte address +1
     18  f000							;
     19  f000							; ***************************************************************************
     20  f000							;
     21  f000							; This code is written for the ACME assembler.
     22  f000							;
     23  f000							; The code is 165 bytes for the small version, and 191 bytes for the normal.
     24  f000							;
     25  f000							; Copyright John Brandwood 2021.
     26  f000							;
     27  f000							; Changes intruduced by Mike Saarna, 2023:
     28  f000							;    -converted to DASM format.
     29  f000							;    -generalised memory locations, for easier incorporation into 7800basic
     30  f000							;    -removed self-modifying code, for execution from rom.
     31  f000							;    -added LZSAFASTCOPYBYTE optimisation ; +24 bytes rom, ~10% quicker
     32  f000							;
     33  f000							; get the original unmodified code from:
     34  f000							; https://raw.githubusercontent.com/emmanuel-marty/lzsa
     35  f000							;
     36  f000							; Distributed under the Boost Software License, Version 1.0.
     37  f000							; (See accompanying file LICENSE_1_0.txt or copy at
     38  f000							; http://www.boost.org/LICENSE_1_0.txt)
     39  f000							;
     40  f000							; ***************************************************************************
     41  f000							; ***************************************************************************
     42  f000
     43  f000
     44  f000
     45  f000							; ***************************************************************************
     46  f000							; ***************************************************************************
     47  f000							;
     48  f000							; Decompression Options & Macros
     49  f000							;
     50  f000
     51  f000							;
     52  f000							; Choose size over decompression speed (within sane limits)?
     53  f000							;
     54  f000
     55  f000		       00 00	   LZSA_SMALL_SIZE =	0
     56  f000		       00 01	   LZSAFASTCOPYBYTE =	1	; +24 bytes rom, ~10% quicker
     57  f000
     58  f000							; ***************************************************************************
     59  f000							; ***************************************************************************
     60  f000							;
     61  f000							; ZP memory allocations... (temp1-temp9 are 7800basic ZP locations)
     62  f000		       00 42	   LSZA1ZPRAM =	temp1
     63  f000		       00 42	   lzsa_winptr =	LSZA1ZPRAM	; 1 word (temp1+temp2)
     64  f000		       00 44	   lzsa_srcptr =	LSZA1ZPRAM + 2	; 1 word (temp3+temp4)
     65  f000		       00 46	   lzsa_dstptr =	LSZA1ZPRAM + 4	; 1 word (temp5+temp6)
     66  f000
     67  f000							; Doesn't need to be ZP allocations...
     68  f000		       00 48	   LSZA1TEMPRAM =	temp7
     69  f000		       00 48	   lzsa_cmdbuf =	LSZA1TEMPRAM	; 1 byte (temp7)
     70  f000		       00 49	   lzsa_cp_npages =	LSZA1TEMPRAM + 1	; 1 byte (temp8)
     71  f000		       00 4a	   lzsa_lz_npages =	LSZA1TEMPRAM + 2	; 1 byte (temp9)
     72  f000
     73  f000							; Alternate names for previous allocations...
     74  f000		       00 42	   lzsa_offset =	lzsa_winptr
     75  f000		       00 44	   LZSA_SRC_LO =	lzsa_srcptr
     76  f000		       00 45	   LZSA_SRC_HI =	lzsa_srcptr+1
     77  f000		       00 46	   LZSA_DST_LO =	lzsa_dstptr
     78  f000		       00 47	   LZSA_DST_HI =	lzsa_dstptr+1
     79  f000
     80  f000				  -	      ifconst	lzsa1support
     81  f000				  -
     82  f000				  -lzsa1modulestart
     83  f000				  -
     84  f000				  -	      if	LZSAFASTCOPYBYTE = 1
     85  f000				  -.cp_fixpointer
     86  f000				  -			; the optimised pointer adjustment fails if .cp_byte copied a whole page.
     87  f000				  -			; so we deal with it as a special case here, out of the regular .cp_byte flow.
     88  f000				  -			; this only happens rarely.
     89  f000				  -	      inc	lzsa_srcptr+1	; CC
     90  f000				  -	      inc	lzsa_dstptr+1
     91  f000				  -	      bcc	.cp_skip3	; always taken
     92  f000				  -			; each of these happen infrequently (~1 in 256 byte copies)
     93  f000				  -.cp_fixsrc1
     94  f000				  -	      inc	lzsa_srcptr+1
     95  f000				  -	      clc
     96  f000				  -	      bcc	.cp_skip1
     97  f000				  -.cp_fixsrc2
     98  f000				  -	      inc	lzsa_dstptr+1
     99  f000				  -	      clc
    100  f000				  -	      bcc	.cp_skip2
    101  f000				  -	      endif
    102  f000				  -
    103  f000				  -			; ***************************************************************************
    104  f000				  -			; ***************************************************************************
    105  f000				  -			;
    106  f000				  -			; lzsa1_unpack - Decompress data stored in Emmanuel Marty's LZSA1 format.
    107  f000				  -			;
    108  f000				  -			; Args: lzsa_srcptr = ptr to compessed data
    109  f000				  -			; Args: lzsa_dstptr = ptr to output buffer
    110  f000				  -			;
    111  f000				  -
    112  f000				  -
    113  f000				  -DECOMPRESS_LZSA1_FAST
    114  f000				  -lzsa1_unpack
    115  f000				  -	      ldy	#0	; Initialize source index.
    116  f000				  -	      ldx	#0	; Initialize hi-byte of length.
    117  f000				  -	      stx	lzsa_cp_npages
    118  f000				  -	      stx	lzsa_lz_npages
    119  f000				  -
    120  f000				  -			;
    121  f000				  -			; Copy bytes from compressed source data.
    122  f000				  -			;
    123  f000				  -			; N.B. X=0 is expected and guaranteed when we get here.
    124  f000				  -			;
    125  f000				  -
    126  f000				  -.cp_length
    127  f000				  -	      if	LZSA_SMALL_SIZE = 1
    128  f000				  -
    129  f000				  -	      jsr	.get_byte
    130  f000				  -
    131  f000				  -	      else		; !LZSA_SMALL_SIZE
    132  f000				  -
    133  f000				  -	      lda	(lzsa_srcptr),y
    134  f000				  -	      inc	lzsa_srcptr+0
    135  f000				  -	      bne	.cp_skip0
    136  f000				  -	      inc	lzsa_srcptr+1
    137  f000				  -
    138  f000				  -	      endif		; !LZSA_SMALL_SIZE
    139  f000				  -
    140  f000				  -.cp_skip0
    141  f000				  -	      sta	lzsa_cmdbuf	; Preserve this for later.
    142  f000				  -	      and	#$70	; Extract literal length.
    143  f000				  -	      lsr		; Set CC before ...
    144  f000				  -	      beq	.lz_offset	; Skip directly to match?
    145  f000				  -
    146  f000				  -	      lsr		; Get 3-bit literal length.
    147  f000				  -	      lsr
    148  f000				  -	      lsr
    149  f000				  -	      cmp	#$07	; Extended length?
    150  f000				  -	      bcc	.cp_got_len
    151  f000				  -
    152  f000				  -	      jsr	.get_length	; X=0, CS from CMP, returns CC.
    153  f000				  -	      stx	lzsa_cp_npages	; Hi-byte of length.
    154  f000				  -
    155  f000				  -.cp_got_len
    156  f000				  -	      tax		; Lo-byte of length.
    157  f000				  -
    158  f000				  -	      if	LZSAFASTCOPYBYTE = 0
    159  f000				  -
    160  f000				  -.cp_byte		; CC throughout the execution of this .cp_page loop.
    161  f000				  -	      lda	(lzsa_srcptr),y	; 5
    162  f000				  -	      sta	(lzsa_dstptr),y	; 5
    163  f000				  -	      inc	lzsa_srcptr+0	; 5
    164  f000				  -	      bne	.cp_skip1	; 3
    165  f000				  -	      inc	lzsa_srcptr+1
    166  f000				  -.cp_skip1
    167  f000				  -	      inc	lzsa_dstptr+0	; 5
    168  f000				  -	      bne	.cp_skip2	; 3
    169  f000				  -	      inc	lzsa_dstptr+1
    170  f000				  -.cp_skip2
    171  f000				  -	      dex		; 2
    172  f000				  -	      bne	.cp_byte	; 3
    173  f000				  -			;  ~29 cycles overall for X=1
    174  f000				  -			;  ~58 cycles overall for X=2
    175  f000				  -			;  ~87 cycles overall for X=3
    176  f000				  -			; ...
    177  f000				  -			; ~174 cycles overall for X=6
    178  f000				  -
    179  f000				  -	      else		; LZSAFASTCOPYBYTE != 0
    180  f000				  -
    181  f000				  -			; according to 7800heat, this loop is hot. It runs on average ~6x.
    182  f000				  -
    183  f000				  -.cp_byte		; CC throughout the execution of this .cp_page loop.
    184  f000				  -	      lda	(lzsa_srcptr),y	; 5+
    185  f000				  -	      sta	(lzsa_dstptr),y	; 5+
    186  f000				  -	      iny		; 2
    187  f000				  -	      dex		; 2
    188  f000				  -	      bne	.cp_byte	; 3/2
    189  f000				  -			; ~17 cycles each iteration
    190  f000				  -	      tya		; 2
    191  f000				  -	      beq	.cp_fixpointer	; 2 unlikely branch - only if we copied a full page
    192  f000				  -	      adc	lzsa_srcptr+0	; 3
    193  f000				  -	      sta	lzsa_srcptr+0	; 3
    194  f000				  -	      bcs	.cp_fixsrc1	; 2 (typical)
    195  f000				  -.cp_skip1
    196  f000				  -	      tya		; 2
    197  f000				  -	      adc	lzsa_dstptr+0	; 3
    198  f000				  -	      sta	lzsa_dstptr+0	; 3
    199  f000				  -	      bcs	.cp_fixsrc2	; 2 (typical)
    200  f000				  -.cp_skip2
    201  f000				  -	      ldy	#0	; 2
    202  f000				  -.cp_skip3
    203  f000				  -			; ~24 cycles overhead, typical
    204  f000				  -
    205  f000				  -			; ~41	cycles for X=1 (+12  cycles vs non-optimized)
    206  f000				  -			; ~58	cycles for X=2 (  0  cycles vs non-optimized)
    207  f000				  -			; ~75	cycles for X=3 (-12  cycles vs non-optimized)
    208  f000				  -			; ...
    209  f000				  -			; ~126 cycles for X=6 (-48  cycles vs non-optimized)
    210  f000				  -	      endif		; ! LZSAFASTCOPYBYTE = 0
    211  f000				  -
    212  f000				  -.cp_npages
    213  f000				  -	      lda	lzsa_cp_npages	; Any full pages left to copy?
    214  f000				  -	      beq	.lz_offset
    215  f000				  -
    216  f000				  -	      dec	lzsa_cp_npages	; Unlikely, so can be slow.
    217  f000				  -	      bcc	.cp_byte	; Always true!
    218  f000				  -
    219  f000				  -	      if	LZSA_SMALL_SIZE = 1
    220  f000				  -
    221  f000				  -			; Copy bytes from decompressed window.
    222  f000				  -			;
    223  f000				  -			; Shorter but slower version.
    224  f000				  -			;
    225  f000				  -			; N.B. X=0 is expected and guaranteed when we get here.
    226  f000				  -			;
    227  f000				  -
    228  f000				  -.lz_offset
    229  f000				  -	      jsr	.get_byte	; Get offset-lo.
    230  f000				  -
    231  f000				  -.offset_lo
    232  f000				  -	      adc	lzsa_dstptr+0	; Always CC from .cp_page loop.
    233  f000				  -	      sta	lzsa_winptr+0
    234  f000				  -
    235  f000				  -	      lda	#$FF
    236  f000				  -	      bit	lzsa_cmdbuf
    237  f000				  -	      bpl	.offset_hi
    238  f000				  -
    239  f000				  -	      jsr	.get_byte	; Get offset-hi.
    240  f000				  -
    241  f000				  -.offset_hi
    242  f000				  -	      adc	lzsa_dstptr+1	; lzsa_winptr < lzsa_dstptr, so
    243  f000				  -	      sta	lzsa_winptr+1	; always leaves CS.
    244  f000				  -
    245  f000				  -.lz_length
    246  f000				  -	      lda	lzsa_cmdbuf	; X=0 from previous loop.
    247  f000				  -	      and	#$0F
    248  f000				  -	      adc	#$03 - 1	; CS from previous ADC.
    249  f000				  -	      cmp	#$12	; Extended length?
    250  f000				  -	      bcc	.lz_got_len
    251  f000				  -
    252  f000				  -	      jsr	.get_length	; CS from CMP, X=0, returns CC.
    253  f000				  -	      stx	lzsa_lz_npages	; Hi-byte of length.
    254  f000				  -
    255  f000				  -.lz_got_len
    256  f000				  -	      tax		; Lo-byte of length.
    257  f000				  -
    258  f000				  -.lz_byte
    259  f000				  -	      lda	(lzsa_winptr),y	; CC throughout the execution of
    260  f000				  -	      sta	(lzsa_dstptr),y	; of this .lz_page loop.
    261  f000				  -	      inc	lzsa_winptr+0
    262  f000				  -	      bne	.lz_skip1
    263  f000				  -	      inc	lzsa_winptr+1
    264  f000				  -.lz_skip1
    265  f000				  -	      inc	lzsa_dstptr+0
    266  f000				  -	      bne	.lz_skip2
    267  f000				  -	      inc	lzsa_dstptr+1
    268  f000				  -.lz_skip2
    269  f000				  -	      dex
    270  f000				  -	      bne	.lz_byte
    271  f000				  -.lz_npages
    272  f000				  -	      lda	lzsa_lz_npages	; Any full pages left to copy?
    273  f000				  -	      beq	.cp_length
    274  f000				  -
    275  f000				  -	      dec	lzsa_lz_npages	; Unlikely, so can be slow.
    276  f000				  -	      bcc	.lz_byte	; Always true!
    277  f000				  -
    278  f000				  -	      else		; !LZSA_SMALL_SIZE
    279  f000				  -
    280  f000				  -			;
    281  f000				  -			; Copy bytes from decompressed window.
    282  f000				  -			;
    283  f000				  -			; Longer but faster.
    284  f000				  -			;
    285  f000				  -			; N.B. X=0 is expected and guaranteed when we get here.
    286  f000				  -			;
    287  f000				  -
    288  f000				  -.lz_offset
    289  f000				  -	      lda	(lzsa_srcptr),y	; Get offset-lo.
    290  f000				  -	      inc	lzsa_srcptr+0
    291  f000				  -	      bne	.offset_lo
    292  f000				  -	      inc	lzsa_srcptr+1
    293  f000				  -
    294  f000				  -.offset_lo
    295  f000				  -	      sta	lzsa_offset+0
    296  f000				  -
    297  f000				  -	      lda	#$FF	; Get offset-hi.
    298  f000				  -	      bit	lzsa_cmdbuf
    299  f000				  -	      bpl	.offset_hi
    300  f000				  -
    301  f000				  -	      lda	(lzsa_srcptr),y
    302  f000				  -	      inc	lzsa_srcptr+0
    303  f000				  -	      bne	.offset_hi
    304  f000				  -	      inc	lzsa_srcptr+1
    305  f000				  -
    306  f000				  -.offset_hi
    307  f000				  -	      sta	lzsa_offset+1
    308  f000				  -
    309  f000				  -.lz_length
    310  f000				  -	      lda	lzsa_cmdbuf	; X=0 from previous loop.
    311  f000				  -	      and	#$0F
    312  f000				  -	      adc	#$03	; Always CC from .cp_page loop.
    313  f000				  -	      cmp	#$12	; Extended length?
    314  f000				  -	      bcc	.got_lz_len
    315  f000				  -
    316  f000				  -	      jsr	.get_length	; X=0, CS from CMP, returns CC.
    317  f000				  -
    318  f000				  -.got_lz_len
    319  f000				  -	      inx		; Hi-byte of length+256.
    320  f000				  -
    321  f000				  -	      eor	#$FF	; Negate the lo-byte of length
    322  f000				  -	      tay
    323  f000				  -	      eor	#$FF
    324  f000				  -
    325  f000				  -.get_lz_dst
    326  f000				  -	      adc	lzsa_dstptr+0	; Calc address of partial page.
    327  f000				  -	      sta	lzsa_dstptr+0	; Always CC from previous CMP.
    328  f000				  -	      iny
    329  f000				  -	      bcs	.get_lz_win
    330  f000				  -	      beq	.get_lz_win	; Is lo-byte of length zero?
    331  f000				  -	      dec	lzsa_dstptr+1
    332  f000				  -
    333  f000				  -.get_lz_win
    334  f000				  -	      clc		; Calc address of match.
    335  f000				  -	      adc	lzsa_offset+0	; N.B. Offset is negative!
    336  f000				  -	      sta	lzsa_winptr+0
    337  f000				  -	      lda	lzsa_dstptr+1
    338  f000				  -	      adc	lzsa_offset+1
    339  f000				  -	      sta	lzsa_winptr+1
    340  f000				  -
    341  f000				  -			; according to 7800heat, this loop is hot. It runs on average ~7.5x.
    342  f000				  -			; TODO: see if there's a chance to unroll it.
    343  f000				  -.lz_byte
    344  f000				  -	      lda	(lzsa_winptr),y
    345  f000				  -	      sta	(lzsa_dstptr),y
    346  f000				  -	      iny
    347  f000				  -	      bne	.lz_byte
    348  f000				  -
    349  f000				  -	      inc	lzsa_dstptr+1
    350  f000				  -	      dex		; Any full pages left to copy?
    351  f000				  -	      bne	.lz_more
    352  f000				  -
    353  f000				  -	      jmp	.cp_length	; Loop around to the beginning.
    354  f000				  -
    355  f000				  -.lz_more
    356  f000				  -	      inc	lzsa_winptr+1	; Unlikely, so can be slow.
    357  f000				  -	      bne	.lz_byte	; Always true!
    358  f000				  -
    359  f000				  -	      endif		; !LZSA_SMALL_SIZE
    360  f000				  -
    361  f000				  -			;
    362  f000				  -			; Get 16-bit length in X:A register pair, return with CC.
    363  f000				  -			;
    364  f000				  -			; N.B. X=0 is expected and guaranteed when we get here.
    365  f000				  -			;
    366  f000				  -
    367  f000				  -.get_length
    368  f000				  -	      clc		; Add on the next byte to get
    369  f000				  -	      adc	(lzsa_srcptr),y	; the length.
    370  f000				  -	      inc	lzsa_srcptr+0
    371  f000				  -	      bne	.skip_inc
    372  f000				  -	      inc	lzsa_srcptr+1
    373  f000				  -.skip_inc
    374  f000				  -
    375  f000				  -	      bcc	.got_length	; No overflow means done.
    376  f000				  -	      clc		; MUST return CC!
    377  f000				  -	      tax		; Preserve overflow value.
    378  f000				  -
    379  f000				  -.extra_byte
    380  f000				  -	      jsr	.get_byte	; So rare, this can be slow!
    381  f000				  -	      pha
    382  f000				  -	      txa		; Overflow to 256 or 257?
    383  f000				  -	      beq	.extra_word
    384  f000				  -
    385  f000				  -.check_length
    386  f000				  -	      pla		; Length-lo.
    387  f000				  -	      bne	.got_length	; Check for zero.
    388  f000				  -	      dex		; Do one less page loop if so.
    389  f000				  -.got_length
    390  f000				  -	      rts
    391  f000				  -
    392  f000				  -.extra_word
    393  f000				  -	      jsr	.get_byte	; So rare, this can be slow!
    394  f000				  -	      tax
    395  f000				  -	      bne	.check_length	; Length-hi == 0 at EOF.
    396  f000				  -
    397  f000				  -.finished
    398  f000				  -	      pla		; Length-lo.
    399  f000				  -	      pla		; Decompression completed, pop
    400  f000				  -	      pla		; return address.
    401  f000				  -	      rts
    402  f000				  -
    403  f000				  -.get_byte
    404  f000				  -	      lda	(lzsa_srcptr),y	; Subroutine version for when
    405  f000				  -	      inc	lzsa_srcptr+0	; inlining isn't advantageous.
    406  f000				  -	      bne	.got_byte
    407  f000				  -	      inc	lzsa_srcptr+1	; Inc & test for bank overflow.
    408  f000				  -.got_byte
    409  f000				  -	      rts
    410  f000				  -
    411  f000				  -lzsa1moduleend
    412  f000				  -
    413  f000				  -	      echo	"  (lzsa1compression module is using ",[(lzsa1moduleend-lzsa1modulestart)]d," bytes of rom)"
    414  f000				  -
    415  f000					      endif		; lzsa1support
------- FILE simple.bas.asm
   1901  f000					      endif
   1902  f000							; Provided under the CC0 license. See the included LICENSE.txt for details.
   1903  f000
   1904  f000							;standard routimes needed for pretty much all games
   1905  f000
   1906  f000							; some definitions used with "set debug color"
   1907  f000		       00 91	   DEBUGCALC  =	$91
   1908  f000		       00 41	   DEBUGWASTE =	$41
   1909  f000		       00 c1	   DEBUGDRAW  =	$C1
   1910  f000
   1911  f000							;NMI and IRQ handlers
   1912  f000				   NMI
   1913  f000							;VISIBLEOVER is 255 while the screen is drawn, and 0 right after the visible screen is done.
   1914  f000		       48		      pha		; save A
   1915  f001		       d8		      cld
   1916  f002		       a5 4d		      lda	visibleover
   1917  f004		       49 ff		      eor	#255
   1918  f006		       85 4d		      sta	visibleover
   1919  f008				  -	      ifconst	DEBUGINTERRUPT
   1920  f008				  -	      and	#$93
   1921  f008				  -	      sta	BACKGRND
   1922  f008					      endif
   1923  f008		       8a		      txa		; save X
   1924  f009		       48		      pha
   1925  f00a		       98		      tya		; save Y
   1926  f00b		       48		      pha
   1927  f00c		       ce b2 01 	      dec	interruptindex
   1928  f00f		       d0 03		      bne	skipreallyoffvisible
   1929  f011		       4c 6b f0 	      jmp	reallyoffvisible
   1930  f014				   skipreallyoffvisible
   1931  f014		       a5 4d		      lda	visibleover
   1932  f016		       d0 03		      bne	carryontopscreenroutine
   1933  f018				  -	      ifconst	.bottomscreenroutine
   1934  f018				  -	      lda	interrupthold
   1935  f018				  -	      beq	skipbottomroutine
   1936  f018				  -	      jsr	.bottomscreenroutine
   1937  f018				  -skipbottomroutine
   1938  f018					      endif
   1939  f018		       4c 79 f0 	      jmp	NMIexit
   1940  f01b				   carryontopscreenroutine
   1941  f01b				  -	      ifconst	.topscreenroutine
   1942  f01b				  -	      lda	interrupthold
   1943  f01b				  -	      beq	skiptoproutine
   1944  f01b				  -	      jsr	.topscreenroutine
   1945  f01b				  -skiptoproutine
   1946  f01b					      endif
   1947  f01b					      ifnconst	CANARYOFF
   1948  f01b		       ad c2 01 	      lda	canary
   1949  f01e		       f0 07		      beq	skipcanarytriggered
   1950  f020		       a9 45		      lda	#$45
   1951  f022		       85 20		      sta	BACKGRND
   1952  f024		       4c 63 f0 	      jmp	skipbrkolorset	; common crash dump routine, if available
   1953  f027				   skipcanarytriggered
   1954  f027					      endif
   1955  f027
   1956  f027		       ee 3e 21 	      inc	frameslost	; this is balanced with a "dec frameslost" when drawscreen is called.
   1957  f02a
   1958  f02a							; ** Other important routines that need to regularly run, and can run onscreen.
   1959  f02a							; ** Atarivox can't go here, because Maria might interrupt it while it's bit-banging.
   1960  f02a
   1961  f02a				  -	      ifconst	LONGCONTROLLERREAD
   1962  f02a				  -longcontrollerreads		; ** controllers that take a lot of time to read. We use much of the visible screen here.
   1963  f02a				  -	      ldy	port1control
   1964  f02a				  -	      lda	longreadtype,y
   1965  f02a				  -	      beq	LLRET1
   1966  f02a				  -	      tay
   1967  f02a				  -	      lda	longreadroutinehiP1,y
   1968  f02a				  -	      sta	inttemp4
   1969  f02a				  -	      lda	longreadroutineloP1,y
   1970  f02a				  -	      sta	inttemp3
   1971  f02a				  -	      jmp	(inttemp3)
   1972  f02a				  -LLRET1
   1973  f02a				  -	      ldy	port0control
   1974  f02a				  -	      lda	longreadtype,y
   1975  f02a				  -	      beq	LLRET0
   1976  f02a				  -	      tay
   1977  f02a				  -	      lda	longreadroutinehiP0,y
   1978  f02a				  -	      sta	inttemp4
   1979  f02a				  -	      lda	longreadroutineloP0,y
   1980  f02a				  -	      sta	inttemp3
   1981  f02a				  -	      jmp	(inttemp3)
   1982  f02a				  -LLRET0
   1983  f02a				  -
   1984  f02a				  -
   1985  f02a				  -	      ifconst	PADDLERANGE
   1986  f02a				  -TIMEVAL    =	PADDLERANGE
   1987  f02a				  -	      else
   1988  f02a				  -TIMEVAL    =	160
   1989  f02a				  -	      endif
   1990  f02a				  -TIMEOFFSET =	10
   1991  f02a				  -
   1992  f02a					      endif		; LONGCONTROLLERREAD
   1993  f02a
   1994  f02a
   1995  f02a		       20 03 f2 	      jsr	servicesfxchannels
   1996  f02d				  -	      ifconst	MUSICTRACKER
   1997  f02d				  -	      jsr	servicesong
   1998  f02d					      endif		; MUSICTRACKER
   1999  f02d				  -	      ifconst	RMT
   2000  f02d				  -	      ifnconst	RMTOFFSPEED
   2001  f02d				  -	      ifconst	RMTPALSPEED
   2002  f02d				  -	      lda	ntscslowframe
   2003  f02d				  -	      bne	skiprasterupdate
   2004  f02d				  -	      endif
   2005  f02d				  -	      endif
   2006  f02d				  -	      lda	rasterpause
   2007  f02d				  -	      beq	skiprasterupdate
   2008  f02d				  -	      ifconst	PAUSESILENT
   2009  f02d				  -	      lda	pausestate
   2010  f02d				  -	      bne	skiprasterupdate
   2011  f02d				  -	      endif
   2012  f02d				  -	      jsr	RASTERMUSICTRACKER+3
   2013  f02d				  -skiprasterupdate
   2014  f02d				  -RMT_Iend
   2015  f02d					      endif
   2016  f02d
   2017  f02d		       ee a4 01 	      inc	framecounter
   2018  f030		       ad a4 01 	      lda	framecounter
   2019  f033		       29 3f		      and	#63
   2020  f035		       d0 08		      bne	skipcountdownseconds
   2021  f037		       ad a5 01 	      lda	countdownseconds
   2022  f03a		       f0 03		      beq	skipcountdownseconds
   2023  f03c		       ce a5 01 	      dec	countdownseconds
   2024  f03f				   skipcountdownseconds
   2025  f03f
   2026  f03f		       a2 01		      ldx	#1
   2027  f041				   buttonreadloop
   2028  f041		       8a		      txa
   2029  f042		       48		      pha
   2030  f043		       bc b8 01 	      ldy	port0control,x
   2031  f046		       b9 df f1 	      lda	buttonhandlerlo,y
   2032  f049		       85 da		      sta	inttemp3
   2033  f04b		       b9 d2 f1 	      lda	buttonhandlerhi,y
   2034  f04e		       85 db		      sta	inttemp4
   2035  f050		       05 da		      ora	inttemp3
   2036  f052		       f0 03		      beq	buttonreadloopreturn
   2037  f054		       6c da 00 	      jmp	(inttemp3)
   2038  f057				   buttonreadloopreturn
   2039  f057		       68		      pla
   2040  f058		       aa		      tax
   2041  f059		       ca		      dex
   2042  f05a		       10 e5		      bpl	buttonreadloop
   2043  f05c
   2044  f05c				  -	      ifconst	DOUBLEBUFFER
   2045  f05c				  -	      lda	doublebufferminimumframeindex
   2046  f05c				  -	      beq	skipdoublebufferminimumframeindexadjust
   2047  f05c				  -	      dec	doublebufferminimumframeindex
   2048  f05c				  -skipdoublebufferminimumframeindexadjust
   2049  f05c					      endif
   2050  f05c
   2051  f05c		       4c 79 f0 	      jmp	NMIexit
   2052  f05f
   2053  f05f				   IRQ			; the only source of non-nmi interrupt should be the BRK opcode.
   2054  f05f					      ifnconst	BREAKPROTECTOFF
   2055  f05f		       a9 1a		      lda	#$1A
   2056  f061		       85 20		      sta	BACKGRND
   2057  f063				   skipbrkolorset
   2058  f063				   skipbrkdetected
   2059  f063		       a9 60		      lda	#$60
   2060  f065		       8d 07 21 	      sta	sCTRL
   2061  f068		       85 3c		      sta	CTRL
   2062  f06a					      ifnconst	hiscorefont
   2063  f06a		       02		      .byte.b	$02	; KIL/JAM
   2064  f06b				  -	      else		; hiscorefont is present
   2065  f06b				  -	      ifconst	CRASHDUMP
   2066  f06b				  -	      bit	MSTAT
   2067  f06b				  -	      bpl	skipbrkdetected	; wait for vblank to ensure we're clear of NMI
   2068  f06b				  -
   2069  f06b				  -	      ifconst	dumpbankswitch
   2070  f06b				  -	      lda	dumpbankswitch
   2071  f06b				  -	      pha
   2072  f06b				  -	      endif
   2073  f06b				  -
   2074  f06b				  -			; bankswitch if needed, to get to the hiscore font
   2075  f06b				  -	      ifconst	bankswitchmode
   2076  f06b				  -	      ifconst	included.hiscore.asm.bank
   2077  f06b				  -	      ifconst	MCPDEVCART
   2078  f06b				  -	      lda	#($18 | included.hiscore.asm.bank)
   2079  f06b				  -	      sta	$3000
   2080  f06b				  -	      else
   2081  f06b				  -	      lda	#(included.hiscore.asm.bank)
   2082  f06b				  -	      sta	$8000
   2083  f06b				  -	      endif
   2084  f06b				  -	      endif		; included.hiscore.asm.bank
   2085  f06b				  -	      endif		; bankswitchmode
   2086  f06b				  -
   2087  f06b				  -	      ifconst	DOUBLEBUFFER
   2088  f06b				  -			;turn off double-buffering, if on...
   2089  f06b				  -	      lda	#>DLLMEM
   2090  f06b				  -	      sta	DPPH
   2091  f06b				  -	      lda	#<DLLMEM
   2092  f06b				  -	      sta	DPPL
   2093  f06b				  -	      endif
   2094  f06b				  -
   2095  f06b				  -	      lda	#$00
   2096  f06b				  -	      sta	P0C2
   2097  f06b				  -
   2098  f06b				  -			;update the second-from-top DL...
   2099  f06b				  -	      ldy	#8
   2100  f06b				  -NMIupdatetopDL
   2101  f06b				  -	      lda	show2700,y
   2102  f06b				  -	      sta	ZONE1ADDRESS,y
   2103  f06b				  -	      dey
   2104  f06b				  -	      bpl	NMIupdatetopDL
   2105  f06b				  -
   2106  f06b				  -			; the hiscore font is present, so we try to output the stack
   2107  f06b				  -	      ldy	#0
   2108  f06b				  -copystackloop
   2109  f06b				  -	      pla
   2110  f06b				  -	      pha
   2111  f06b				  -	      lsr
   2112  f06b				  -	      lsr
   2113  f06b				  -	      lsr
   2114  f06b				  -	      lsr
   2115  f06b				  -	      tax
   2116  f06b				  -	      lda	hiscorehexlut,x
   2117  f06b				  -	      sta	$2700,y
   2118  f06b				  -	      iny
   2119  f06b				  -
   2120  f06b				  -	      pla
   2121  f06b				  -	      and	#$0F
   2122  f06b				  -	      tax
   2123  f06b				  -	      lda	hiscorehexlut,x
   2124  f06b				  -	      sta	$2700,y
   2125  f06b				  -	      iny
   2126  f06b				  -
   2127  f06b				  -	      lda	#27	; period
   2128  f06b				  -	      sta	$2700,y
   2129  f06b				  -	      iny
   2130  f06b				  -
   2131  f06b				  -	      cpy	#30
   2132  f06b				  -	      bne	copystackloop
   2133  f06b				  -
   2134  f06b				  -	      lda	#>hiscorefont
   2135  f06b				  -	      sta	CHARBASE
   2136  f06b				  -	      sta	sCHARBASE
   2137  f06b				  -	      lda	#%01000011	;Enable DMA, mode=320A
   2138  f06b				  -	      sta	CTRL
   2139  f06b				  -	      sta	sCTRL
   2140  f06b				  -	      .byte	$02	; KIL/JAM
   2141  f06b				  -hiscorehexlut
   2142  f06b				  -			; 0 1 2 3 4 5 6 7 8 9 A B C D E F
   2143  f06b				  -	      .byte	33, 34, 35, 36, 37, 38, 39, 40, 41, 42, 0, 1, 2, 3, 4, 5
   2144  f06b				  -show2700
   2145  f06b				  -			; lo mode hi width=29 x EODL
   2146  f06b				  -	      .byte	$00, %01100000, $27, 3, 20, 0,0,0
   2147  f06b				  -	      else		; CRASHDUMP
   2148  f06b				  -	      .byte	$02	; KIL/JAM
   2149  f06b				  -	      endif		; crashdump
   2150  f06b					      endif		; hiscorefont
   2151  f06b				  -	      else
   2152  f06b				  -	      RTI
   2153  f06b					      endif
   2154  f06b
   2155  f06b				  -	      ifconst	LONGCONTROLLERREAD
   2156  f06b				  -
   2157  f06b				  -longreadtype
   2158  f06b				  -	      .byte	0, 0, 0, 1	; NONE PROLINE LIGHTGUN PADDLE
   2159  f06b				  -	      .byte	2, 0, 3, 0	; TRKBALL VCSSTICK DRIVING KEYPAD
   2160  f06b				  -	      .byte	3, 3, 0, 0	; STMOUSE AMOUSE ATARIVOX SNES
   2161  f06b				  -
   2162  f06b				  -longreadroutineloP0
   2163  f06b				  -	      .byte	<LLRET0	; 0 = no routine
   2164  f06b				  -	      .byte	<paddleport0update	; 1 = paddle
   2165  f06b				  -	      .byte	<trakball0update	; 2 = trakball
   2166  f06b				  -	      .byte	<mouse0update	; 3 = mouse
   2167  f06b				  -
   2168  f06b				  -longreadroutinehiP0
   2169  f06b				  -	      .byte	>LLRET0	; 0 = no routine
   2170  f06b				  -	      .byte	>paddleport0update	; 1 = paddle
   2171  f06b				  -	      .byte	>trakball0update	; 2 = trackball
   2172  f06b				  -	      .byte	>mouse0update	; 3 = mouse
   2173  f06b				  -
   2174  f06b				  -longreadroutineloP1
   2175  f06b				  -	      .byte	<LLRET1	; 0 = no routine
   2176  f06b				  -	      .byte	<paddleport1update	; 1 = paddle
   2177  f06b				  -	      .byte	<trakball1update	; 2 = trakball
   2178  f06b				  -	      .byte	<mouse1update	; 3 = mouse
   2179  f06b				  -
   2180  f06b				  -longreadroutinehiP1
   2181  f06b				  -	      .byte	>LLRET1	; 0 = no routine
   2182  f06b				  -	      .byte	>paddleport1update	; 1 = paddle
   2183  f06b				  -	      .byte	>trakball1update	; 2 = trackball
   2184  f06b				  -	      .byte	>mouse1update	; 3 = mouse
   2185  f06b				  -
   2186  f06b				  -
   2187  f06b				  -SETTIM64T
   2188  f06b				  -	      bne	skipdefaulttime
   2189  f06b				  -	      ifnconst	PADDLESMOOTHINGOFF
   2190  f06b				  -	      lda	#(TIMEVAL+TIMEOFFSET+1)
   2191  f06b				  -	      else
   2192  f06b				  -	      lda	#(TIMEVAL+TIMEOFFSET)
   2193  f06b				  -	      endif
   2194  f06b				  -skipdefaulttime
   2195  f06b				  -	      tay
   2196  f06b				  -	      dey
   2197  f06b				  -.setTIM64Tloop
   2198  f06b				  -	      sta	TIM64T
   2199  f06b				  -	      cpy	INTIM
   2200  f06b				  -	      bne	.setTIM64Tloop
   2201  f06b				  -	      rts
   2202  f06b					      endif		; LONGCONTROLLERREAD
   2203  f06b
   2204  f06b				   reallyoffvisible
   2205  f06b		       85 24		      sta	WSYNC
   2206  f06d
   2207  f06d		       a9 00		      lda	#0
   2208  f06f		       85 4d		      sta	visibleover
   2209  f071				  -	      ifconst	DEBUGINTERRUPT
   2210  f071				  -	      sta	BACKGRND
   2211  f071					      endif
   2212  f071
   2213  f071		       a9 03		      lda	#3
   2214  f073		       8d b2 01 	      sta	interruptindex
   2215  f076
   2216  f076		       20 4b f1 	      jsr	uninterruptableroutines
   2217  f079
   2218  f079				  -	      ifconst	.userinterrupt
   2219  f079				  -	      lda	interrupthold
   2220  f079				  -	      beq	skipuserintroutine
   2221  f079				  -	      jsr	.userinterrupt
   2222  f079				  -skipuserintroutine
   2223  f079					      endif
   2224  f079
   2225  f079				  -	      ifconst	KEYPADSUPPORT
   2226  f079				  -	      jsr	keypadcolumnread
   2227  f079				  -	      jsr	keypadrowselect
   2228  f079					      endif
   2229  f079
   2230  f079				   NMIexit
   2231  f079		       68		      pla
   2232  f07a		       a8		      tay
   2233  f07b		       68		      pla
   2234  f07c		       aa		      tax
   2235  f07d		       68		      pla
   2236  f07e		       40		      RTI
   2237  f07f
   2238  f07f				   clearscreen
   2239  f07f		       a2 0b		      ldx	#(WZONECOUNT-1)
   2240  f081		       a9 00		      lda	#0
   2241  f083				   clearscreenloop
   2242  f083		       95 65		      sta	dlend,x
   2243  f085		       ca		      dex
   2244  f086		       10 fb		      bpl	clearscreenloop
   2245  f088		       a9 00		      lda	#0
   2246  f08a		       8d ad 01 	      sta	valbufend	; clear the bcd value buffer
   2247  f08d		       8d ae 01 	      sta	valbufendsave
   2248  f090		       60		      rts
   2249  f091
   2250  f091				   restorescreen
   2251  f091		       a2 0b		      ldx	#(WZONECOUNT-1)
   2252  f093		       a9 00		      lda	#0
   2253  f095				   restorescreenloop
   2254  f095		       b5 82		      lda	dlendsave,x
   2255  f097		       95 65		      sta	dlend,x
   2256  f099		       ca		      dex
   2257  f09a		       10 f9		      bpl	restorescreenloop
   2258  f09c		       ad ae 01 	      lda	valbufendsave
   2259  f09f		       8d ad 01 	      sta	valbufend
   2260  f0a2		       60		      rts
   2261  f0a3
   2262  f0a3				   savescreen
   2263  f0a3		       a2 0b		      ldx	#(WZONECOUNT-1)
   2264  f0a5				   savescreenloop
   2265  f0a5		       b5 65		      lda	dlend,x
   2266  f0a7		       95 82		      sta	dlendsave,x
   2267  f0a9		       ca		      dex
   2268  f0aa		       10 f9		      bpl	savescreenloop
   2269  f0ac		       ad ad 01 	      lda	valbufend
   2270  f0af		       8d ae 01 	      sta	valbufendsave
   2271  f0b2				  -	      ifconst	DOUBLEBUFFER
   2272  f0b2				  -	      lda	doublebufferstate
   2273  f0b2				  -	      beq	savescreenrts
   2274  f0b2				  -	      lda	#1
   2275  f0b2				  -	      sta	doublebufferbufferdirty
   2276  f0b2				  -savescreenrts
   2277  f0b2					      endif		; DOUBLEBUFFER
   2278  f0b2		       60		      rts
   2279  f0b3
   2280  f0b3				   drawscreen
   2281  f0b3
   2282  f0b3				  -	      ifconst	interrupthold
   2283  f0b3				  -	      lda	#$FF
   2284  f0b3				  -	      sta	interrupthold	; if the user called drawscreen, we're ready for interrupts
   2285  f0b3					      endif
   2286  f0b3
   2287  f0b3		       a9 00		      lda	#0
   2288  f0b5		       85 42		      sta	temp1	; not B&W if we're here...
   2289  f0b7
   2290  f0b7				   drawscreenwait
   2291  f0b7		       a5 4d		      lda	visibleover
   2292  f0b9		       d0 fc		      bne	drawscreenwait	; make sure the visible screen isn't being drawn
   2293  f0bb
   2294  f0bb							;restore some registers in case the game changed them mid-screen...
   2295  f0bb		       ad 07 21 	      lda	sCTRL
   2296  f0be		       05 42		      ora	temp1
   2297  f0c0		       85 3c		      sta	CTRL
   2298  f0c2		       ad 0b 21 	      lda	sCHARBASE
   2299  f0c5		       85 34		      sta	CHARBASE
   2300  f0c7
   2301  f0c7							;ensure all of the display list is terminated...
   2302  f0c7		       20 31 f1 	      jsr	terminatedisplaylist
   2303  f0ca
   2304  f0ca					      ifnconst	pauseroutineoff
   2305  f0ca		       20 d5 f0 	      jsr	pauseroutine
   2306  f0cd					      endif		; pauseroutineoff
   2307  f0cd
   2308  f0cd							; Make sure the visible screen has *started* before we exit. That way we can rely on drawscreen
   2309  f0cd							; delaying a full frame, but still allowing time for basic calculations.
   2310  f0cd				   visiblescreenstartedwait
   2311  f0cd		       a5 4d		      lda	visibleover
   2312  f0cf		       f0 fc		      beq	visiblescreenstartedwait
   2313  f0d1				   visiblescreenstartedwaitdone
   2314  f0d1		       ce 3e 21 	      dec	frameslost	; ; this gets balanced with an "inc frameslost" by an NMI at the top of the screen
   2315  f0d4		       60		      rts
   2316  f0d5
   2317  f0d5					      ifnconst	pauseroutineoff
   2318  f0d5							; check to see if pause was pressed and released
   2319  f0d5				   pauseroutine
   2320  f0d5		       ad b3 01 	      lda	pausedisable
   2321  f0d8		       d0 47		      bne	leavepauseroutine
   2322  f0da		       a9 08		      lda	#8
   2323  f0dc		       2c 82 02 	      bit	SWCHB
   2324  f0df		       f0 22		      beq	pausepressed
   2325  f0e1
   2326  f0e1				  -	      ifconst	SNES0PAUSE
   2327  f0e1				  -	      lda	port0control
   2328  f0e1				  -	      cmp	#11
   2329  f0e1				  -	      bne	skipsnes0pause
   2330  f0e1				  -	      lda	snesdetected0
   2331  f0e1				  -	      beq	skipsnes0pause
   2332  f0e1				  -	      lda	snes2atari0hi
   2333  f0e1				  -	      and	#%00010000
   2334  f0e1				  -	      beq	pausepressed
   2335  f0e1				  -skipsnes0pause
   2336  f0e1					      endif
   2337  f0e1				  -	      ifconst	SNES1PAUSE
   2338  f0e1				  -
   2339  f0e1				  -	      lda	port1control
   2340  f0e1				  -	      cmp	#11
   2341  f0e1				  -	      bne	skipsnes1pause
   2342  f0e1				  -	      lda	snesdetected1
   2343  f0e1				  -	      beq	skipsnes1pause
   2344  f0e1				  -	      lda	snes2atari1hi
   2345  f0e1				  -	      and	#%00010000
   2346  f0e1				  -	      beq	pausepressed
   2347  f0e1				  -skipsnes1pause
   2348  f0e1					      endif
   2349  f0e1				  -	      ifconst	SNESNPAUSE
   2350  f0e1				  -	      ldx	snesport
   2351  f0e1				  -	      lda	port0control,x
   2352  f0e1				  -	      cmp	#11
   2353  f0e1				  -	      bne	skipsnesNpause
   2354  f0e1				  -	      lda	snesdetected0,x
   2355  f0e1				  -	      beq	skipsnesNpause
   2356  f0e1				  -	      lda	snes2atari0hi,x
   2357  f0e1				  -	      and	#%00010000
   2358  f0e1				  -	      beq	pausepressed
   2359  f0e1				  -skipsnesNpause
   2360  f0e1					      endif
   2361  f0e1				  -	      ifconst	MULTIBUTTONPAUSE
   2362  f0e1				  -	      ldx	#1
   2363  f0e1				  -multibuttonpauseloop
   2364  f0e1				  -	      lda	port0control,x
   2365  f0e1				  -	      cmp	#11
   2366  f0e1				  -	      bcc	multibuttonpauseloopbottom
   2367  f0e1				  -	      lda	sINPT1,x
   2368  f0e1				  -	      and	#1
   2369  f0e1				  -	      beq	pausepressed
   2370  f0e1				  -multibuttonpauseloopbottom
   2371  f0e1				  -	      dex
   2372  f0e1				  -	      bpl	multibuttonpauseloop
   2373  f0e1					      endif		; MULTIBUTTONPAUSE
   2374  f0e1
   2375  f0e1							;pause isn't pressed
   2376  f0e1		       a9 00		      lda	#0
   2377  f0e3		       8d ac 01 	      sta	pausebuttonflag	; clear pause hold state in case its set
   2378  f0e6
   2379  f0e6							;check if we're in an already paused state
   2380  f0e6		       ad 00 21 	      lda	pausestate
   2381  f0e9		       f0 36		      beq	leavepauseroutine	; nope, leave
   2382  f0eb
   2383  f0eb		       c9 01		      cmp	#1	; last frame was the start of pausing
   2384  f0ed		       f0 2b		      beq	enterpausestate2	; move from state 1 to 2
   2385  f0ef
   2386  f0ef		       c9 02		      cmp	#2
   2387  f0f1		       f0 34		      beq	carryonpausing
   2388  f0f3
   2389  f0f3							;pausestate must be >2, which means we're ending an unpause
   2390  f0f3		       a9 00		      lda	#0
   2391  f0f5		       8d ac 01 	      sta	pausebuttonflag
   2392  f0f8		       8d 00 21 	      sta	pausestate
   2393  f0fb		       ad 07 21 	      lda	sCTRL
   2394  f0fe		       85 3c		      sta	CTRL
   2395  f100		       4c 21 f1 	      jmp	leavepauseroutine
   2396  f103
   2397  f103				   pausepressed
   2398  f103							;pause is pressed
   2399  f103		       ad ac 01 	      lda	pausebuttonflag
   2400  f106		       c9 ff		      cmp	#$ff
   2401  f108		       f0 1d		      beq	carryonpausing
   2402  f10a
   2403  f10a							;its a new press, increment the state
   2404  f10a		       ee 00 21 	      inc	pausestate
   2405  f10d
   2406  f10d							;silence volume at the start and end of pausing
   2407  f10d		       a9 00		      lda	#0
   2408  f10f		       85 19		      sta	AUDV0
   2409  f111		       85 1a		      sta	AUDV1
   2410  f113
   2411  f113				  -	      ifconst	pokeysupport
   2412  f113				  -	      ldy	#7
   2413  f113				  -pausesilencepokeyaudioloop
   2414  f113				  -	      sta	(pokeybase),y
   2415  f113				  -	      dey
   2416  f113				  -	      bpl	pausesilencepokeyaudioloop
   2417  f113					      endif		; pokeysupport
   2418  f113
   2419  f113		       a9 ff		      lda	#$ff
   2420  f115		       8d ac 01 	      sta	pausebuttonflag
   2421  f118		       d0 0d		      bne	carryonpausing
   2422  f11a
   2423  f11a				   enterpausestate2
   2424  f11a		       a9 02		      lda	#2
   2425  f11c		       8d 00 21 	      sta	pausestate
   2426  f11f		       d0 06		      bne	carryonpausing
   2427  f121				   leavepauseroutine
   2428  f121		       ad 07 21 	      lda	sCTRL
   2429  f124		       85 3c		      sta	CTRL
   2430  f126		       60		      rts
   2431  f127				   carryonpausing
   2432  f127				  -	      ifconst	.pause
   2433  f127				  -	      jsr	.pause
   2434  f127					      endif		; .pause
   2435  f127		       ad 07 21 	      lda	sCTRL
   2436  f12a		       09 80		      ora	#%10000000	; turn off colorburst during pause...
   2437  f12c		       85 3c		      sta	CTRL
   2438  f12e		       4c d5 f0 	      jmp	pauseroutine
   2439  f131					      endif		; pauseroutineoff
   2440  f131
   2441  f131
   2442  f131				  -	      ifconst	DOUBLEBUFFER
   2443  f131				  -skipterminatedisplaylistreturn
   2444  f131				  -	      rts
   2445  f131					      endif		; DOUBLEBUFFER
   2446  f131				   terminatedisplaylist
   2447  f131				  -	      ifconst	DOUBLEBUFFER
   2448  f131				  -	      lda	doublebufferstate
   2449  f131				  -	      bne	skipterminatedisplaylistreturn	; double-buffering runs it's own DL termination code
   2450  f131					      endif		; DOUBLEBUFFER
   2451  f131				   terminatedisplaybuffer
   2452  f131							;add DL end entry on each DL
   2453  f131		       a2 0b		      ldx	#(WZONECOUNT-1)
   2454  f133				   dlendloop
   2455  f133				  -	      ifconst	VSCROLL
   2456  f133				  -	      ldy	Xx3,x
   2457  f133				  -	      lda	DLLMEM+11,y
   2458  f133					      else		; !VSCROLL
   2459  f133		       bd 14 f5 	      lda	DLPOINTL,x	;Get pointer to DL that this sprite starts in
   2460  f136					      endif		; !VSCROLL
   2461  f136				  -	      ifconst	DOUBLEBUFFER
   2462  f136				  -	      clc
   2463  f136				  -	      adc	doublebufferdloffset
   2464  f136					      endif		; DOUBLEBUFFER
   2465  f136		       85 63		      sta	dlpnt
   2466  f138				  -	      ifconst	VSCROLL
   2467  f138				  -	      lda	DLLMEM+10,y
   2468  f138					      else		; !VSCROLL
   2469  f138		       bd 08 f5 	      lda	DLPOINTH,x
   2470  f13b					      endif		; !VSCROLL
   2471  f13b				  -	      ifconst	DOUBLEBUFFER
   2472  f13b				  -	      adc	#0
   2473  f13b					      endif		; DOUBLEBUFFER
   2474  f13b		       85 64		      sta	dlpnt+1
   2475  f13d		       b4 65		      ldy	dlend,x
   2476  f13f		       a9 00		      lda	#$00
   2477  f141				   dlendmoreloops
   2478  f141		       c8		      iny
   2479  f142		       91 63		      sta	(dlpnt),y
   2480  f144				  -	      ifconst	FRAMESKIPGLITCHFIXWEAK
   2481  f144				  -	      cpy	#DLLASTOBJ+1
   2482  f144				  -	      beq	dlendthiszonedone
   2483  f144				  -	      iny
   2484  f144				  -	      iny
   2485  f144				  -	      iny
   2486  f144				  -	      iny
   2487  f144				  -	      iny
   2488  f144				  -	      sta	(dlpnt),y
   2489  f144				  -dlendthiszonedone
   2490  f144					      endif	FRAMESKIPGLITCHFIXWEAK
   2491  f144				  -	      ifconst	FRAMESKIPGLITCHFIX
   2492  f144				  -	      iny
   2493  f144				  -	      iny
   2494  f144				  -	      iny
   2495  f144				  -	      iny
   2496  f144				  -	      cpy	#DLLASTOBJ-1
   2497  f144				  -	      bcc	dlendmoreloops
   2498  f144					      endif		; FRAMESKIPGLITCHFIX
   2499  f144		       ca		      dex
   2500  f145		       10 ec		      bpl	dlendloop
   2501  f147
   2502  f147					      ifnconst	pauseroutineoff
   2503  f147		       20 d5 f0 	      jsr	pauseroutine
   2504  f14a					      endif		; pauseroutineoff
   2505  f14a		       60		      rts
   2506  f14b
   2507  f14b				   uninterruptableroutines
   2508  f14b							; this is for routines that must happen off the visible screen, each frame.
   2509  f14b
   2510  f14b				  -	      ifconst	AVOXVOICE
   2511  f14b				  -	      jsr	serviceatarivoxqueue
   2512  f14b					      endif
   2513  f14b				  -	      ifconst	MEGA7800SUPPORT
   2514  f14b				  -	      ldx	#1
   2515  f14b				  -mega7800polling
   2516  f14b				  -	      lda	port0control,x
   2517  f14b				  -	      cmp	#12	; mega7800
   2518  f14b				  -	      bne	mega7800handlercheck2
   2519  f14b				  -	      jsr	mega7800handler
   2520  f14b				  -	      jmp	mega7800handlerdone
   2521  f14b				  -mega7800handlercheck2
   2522  f14b				  -	      ifconst	MULTIBUTTON
   2523  f14b				  -	      cmp	#1	; proline
   2524  f14b				  -	      bne	mega7800handlerdone
   2525  f14b				  -	      lda	framecounter
   2526  f14b				  -	      eor	#7	; avoid the same frame as the snes2atari probe
   2527  f14b				  -	      and	#63
   2528  f14b				  -	      bne	mega7800handlerdone
   2529  f14b				  -	      lda	#12
   2530  f14b				  -	      sta	port0control,x
   2531  f14b				  -	      jsr	mega7800handler
   2532  f14b				  -	      endif		; MULTIBUTTON
   2533  f14b				  -mega7800handlerdone
   2534  f14b				  -	      dex
   2535  f14b				  -	      bpl	mega7800polling
   2536  f14b					      endif		; MEGA7800SUPPORT
   2537  f14b
   2538  f14b		       a9 00		      lda	#0
   2539  f14d		       8d b7 01 	      sta	palfastframe
   2540  f150		       8d b6 01 	      sta	ntscslowframe
   2541  f153		       ac b5 01 	      ldy	palframes
   2542  f156		       c8		      iny
   2543  f157		       ae 09 21 	      ldx	paldetected	; 0=ntsc 1=pal
   2544  f15a		       f0 06		      beq	ntsc2palskipcheck
   2545  f15c				   pal2ntscskipcheck
   2546  f15c		       c0 05		      cpy	#5	; every 5th frame, add a frame
   2547  f15e		       d0 0b		      bne	palframeskipdone
   2548  f160		       f0 04		      beq	frameskipdo
   2549  f162				   ntsc2palskipcheck
   2550  f162		       c0 06		      cpy	#6	; every 6th frame, drop a frame
   2551  f164		       d0 05		      bne	palframeskipdone
   2552  f166				   frameskipdo
   2553  f166		       fe b6 01 	      inc	ntscslowframe,x
   2554  f169		       a0 00		      ldy	#0
   2555  f16b				   palframeskipdone
   2556  f16b		       8c b5 01 	      sty	palframes
   2557  f16e				   skippalframeadjusting
   2558  f16e
   2559  f16e				  -	      ifconst	MUSICTRACKER
   2560  f16e				  -			; We normally run the servicesong routine from the top-screen interrupt, but if it
   2561  f16e				  -			; happens to interrupt the scheduling of a sound effect in the game code, we skip it.
   2562  f16e				  -			; If that happens, we try again here. Chances are very small we'll run into the same
   2563  f16e				  -			; problem twice, and if we do, we just drop a musical note or two.
   2564  f16e				  -	      lda	sfxschedulemissed
   2565  f16e				  -	      beq	servicesongwasnotmissed
   2566  f16e				  -	      jsr	servicesong
   2567  f16e				  -servicesongwasnotmissed
   2568  f16e					      endif		; MUSICTRACKER
   2569  f16e
   2570  f16e				  -	      ifconst	RMT
   2571  f16e				  -	      ifnconst	RMTPALSPEED
   2572  f16e				  -	      ifnconst	RMTOFFSPEED
   2573  f16e				  -	      ifconst	PAUSESILENT
   2574  f16e				  -	      lda	pausestate
   2575  f16e				  -	      bne	skiprasterupdate2
   2576  f16e				  -	      endif
   2577  f16e				  -	      lda	palfastframe
   2578  f16e				  -	      beq	skiprasterupdate2
   2579  f16e				  -	      lda	rasterpause
   2580  f16e				  -	      beq	skiprasterupdate2
   2581  f16e				  -	      jsr	RASTERMUSICTRACKER+3
   2582  f16e				  -skiprasterupdate2
   2583  f16e				  -	      endif
   2584  f16e				  -	      endif
   2585  f16e					      endif
   2586  f16e
   2587  f16e		       60		      rts
   2588  f16f
   2589  f16f				   serviceatarivoxqueue
   2590  f16f				  -	      ifconst	AVOXVOICE
   2591  f16f				  -	      lda	voxlock
   2592  f16f				  -	      bne	skipvoxprocessing	; the vox is in the middle of speech address update
   2593  f16f				  -skipvoxqueuesizedec
   2594  f16f				  -	      jmp	processavoxvoice
   2595  f16f				  -skipvoxprocessing
   2596  f16f				  -	      rts
   2597  f16f				  -
   2598  f16f				  -processavoxvoice
   2599  f16f				  -	      ifconst	HSSUPPORT
   2600  f16f				  -			; ** we skip speech if hi-score is on and no vox was detected
   2601  f16f				  -			; ** this is to avoid later collision with snes pads.
   2602  f16f				  -	      lda	hsdevice
   2603  f16f				  -	      and	#2
   2604  f16f				  -	      beq	processavoxvoicereturn
   2605  f16f				  -	      endif		; HSSUPPORT
   2606  f16f				  -	      lda	avoxenable
   2607  f16f				  -	      bne	avoxfixport
   2608  f16f				  -	      SPKOUT	tempavox
   2609  f16f				  -	      rts
   2610  f16f				  -avoxfixport
   2611  f16f				  -	      lda	#0	; restore the port to all bits as inputs...
   2612  f16f				  -	      sta	CTLSWA
   2613  f16f				  -	      rts
   2614  f16f				  -silenceavoxvoice
   2615  f16f				  -	      SPEAK	avoxsilentdata
   2616  f16f				  -processavoxvoicereturn
   2617  f16f				  -	      rts
   2618  f16f				  -avoxsilentdata
   2619  f16f				  -	      .byte	31,255
   2620  f16f					      else
   2621  f16f		       60		      rts
   2622  f170					      endif		; AVOXVOICE
   2623  f170
   2624  f170				   prolinebuttonpadhandler
   2625  f170				  -	      ifconst	MULTIBUTTON
   2626  f170				  -	      lda	framecounter
   2627  f170				  -	      and	#63
   2628  f170				  -	      bne	jbhandlercont1
   2629  f170				  -	      jsr	setonebuttonmode
   2630  f170				  -	      lda	#11
   2631  f170				  -	      sta	port0control,x
   2632  f170				  -	      jsr	snes2atari_signal_go
   2633  f170				  -	      lda	port0control,x
   2634  f170				  -	      cmp	#1	; check if it's still a proline
   2635  f170				  -	      beq	jbhandlercont1
   2636  f170				  -	      jmp	buttonreadloopreturn
   2637  f170				  -jbhandlercont1
   2638  f170				  -	      lda	#2
   2639  f170				  -	      sta	multibuttoncount0,x
   2640  f170					      endif		; MULTIBUTTON
   2641  f170				   joybuttonpadhandler
   2642  f170		       ad 31 21 	      lda	sSWCHA	; clear previous dirs for this pad, from
   2643  f173		       1d c2 f1 	      ora	SWCHA_DIRMASK,x	; our sSWCHA nibble.
   2644  f176		       8d 31 21 	      sta	sSWCHA
   2645  f179		       ad 80 02 	      lda	SWCHA	; load th actual joystick dirs, ensuring
   2646  f17c		       1d c3 f1 	      ora	SWCHA_DIRMASK+1,x	; we don't change the other nibble.
   2647  f17f		       2d 31 21 	      and	sSWCHA
   2648  f182		       8d 31 21 	      sta	sSWCHA
   2649  f185				   joybuttonhandler
   2650  f185		       8a		      txa
   2651  f186		       0a		      asl
   2652  f187		       a8		      tay
   2653  f188		       b9 08 00 	      lda	INPT0,y
   2654  f18b		       4a		      lsr
   2655  f18c							;ora #%00111111
   2656  f18c		       9d 02 21 	      sta	sINPT1,x
   2657  f18f		       b9 09 00 	      lda	INPT1,y
   2658  f192		       29 80		      and	#%10000000
   2659  f194		       1d 02 21 	      ora	sINPT1,x
   2660  f197		       9d 02 21 	      sta	sINPT1,x
   2661  f19a
   2662  f19a		       b5 0c		      lda	INPT4,x
   2663  f19c		       30 19		      bmi	.skip1bjoyfirecheck
   2664  f19e							;one button joystick is down
   2665  f19e		       49 80		      eor	#%10000000
   2666  f1a0		       9d 02 21 	      sta	sINPT1,x
   2667  f1a3
   2668  f1a3		       ad b1 01 	      lda	joybuttonmode
   2669  f1a6		       3d 87 f4 	      and	thisjoy2buttonbit,x
   2670  f1a9		       f0 0c		      beq	.skip1bjoyfirecheck
   2671  f1ab		       ad b1 01 	      lda	joybuttonmode
   2672  f1ae		       1d 87 f4 	      ora	thisjoy2buttonbit,x
   2673  f1b1		       8d b1 01 	      sta	joybuttonmode
   2674  f1b4		       8d 82 02 	      sta	SWCHB
   2675  f1b7				   .skip1bjoyfirecheck
   2676  f1b7		       a9 3f		      lda	#%00111111
   2677  f1b9		       1d 02 21 	      ora	sINPT1,x
   2678  f1bc		       9d 02 21 	      sta	sINPT1,x	; ensure multibutton bits are hi
   2679  f1bf		       4c 57 f0 	      jmp	buttonreadloopreturn
   2680  f1c2
   2681  f1c2				   SWCHA_DIRMASK
   2682  f1c2							;  p0	p1  p0
   2683  f1c2		       f0 0f f0 	      .byte.b	$F0,$0F,$F0
   2684  f1c5
   2685  f1c5				   gunbuttonhandler		; outside of the conditional, so our button handler LUT is valid
   2686  f1c5				  -	      ifconst	LIGHTGUNSUPPORT
   2687  f1c5				  -	      cpx	#0
   2688  f1c5				  -	      bne	secondportgunhandler
   2689  f1c5				  -firstportgunhandler
   2690  f1c5				  -	      lda	SWCHA
   2691  f1c5				  -	      asl
   2692  f1c5				  -	      asl
   2693  f1c5				  -	      asl		; shift D4 to D7
   2694  f1c5				  -	      and	#%10000000
   2695  f1c5				  -	      eor	#%10000000
   2696  f1c5				  -	      sta	sINPT1
   2697  f1c5				  -	      jmp	buttonreadloopreturn
   2698  f1c5				  -secondportgunhandler
   2699  f1c5				  -	      lda	SWCHA
   2700  f1c5				  -	      lsr		; shift D0 into carry
   2701  f1c5				  -	      lsr		; shift carry into D7
   2702  f1c5				  -	      and	#%10000000
   2703  f1c5				  -	      eor	#%10000000
   2704  f1c5				  -	      sta	sINPT3
   2705  f1c5				  -	      jmp	buttonreadloopreturn
   2706  f1c5					      endif		; LIGHTGUNSUPPORT
   2707  f1c5
   2708  f1c5				   controlsusing2buttoncode
   2709  f1c5		       00		      .byte.b	0	; 00=no controller plugged in
   2710  f1c6		       01		      .byte.b	1	; 01=proline joystick
   2711  f1c7		       00		      .byte.b	0	; 02=lightgun
   2712  f1c8		       00		      .byte.b	0	; 03=paddle
   2713  f1c9		       01		      .byte.b	1	; 04=trakball
   2714  f1ca		       01		      .byte.b	1	; 05=vcs joystick
   2715  f1cb		       01		      .byte.b	1	; 06=driving control
   2716  f1cc		       00		      .byte.b	0	; 07=keypad control
   2717  f1cd		       00		      .byte.b	0	; 08=st mouse/cx80
   2718  f1ce		       00		      .byte.b	0	; 09=amiga mouse
   2719  f1cf		       01		      .byte.b	1	; 10=atarivox
   2720  f1d0		       00		      .byte.b	0	; 11=snes2atari
   2721  f1d1		       00		      .byte.b	0	; 12=mega7800
   2722  f1d2
   2723  f1d2				   buttonhandlerhi
   2724  f1d2		       00		      .byte.b	0	; 00=no controller plugged in
   2725  f1d3		       f1		      .byte.b	>prolinebuttonpadhandler	; 01=proline joystick
   2726  f1d4		       f1		      .byte.b	>gunbuttonhandler	; 02=lightgun
   2727  f1d5		       f4		      .byte.b	>paddlebuttonhandler	; 03=paddle
   2728  f1d6		       f1		      .byte.b	>joybuttonhandler	; 04=trakball
   2729  f1d7		       f1		      .byte.b	>joybuttonpadhandler	; 05=vcs joystick
   2730  f1d8		       f1		      .byte.b	>joybuttonhandler	; 06=driving control
   2731  f1d9		       00		      .byte.b	0	; 07=keypad
   2732  f1da		       f4		      .byte.b	>mousebuttonhandler	; 08=st mouse
   2733  f1db		       f4		      .byte.b	>mousebuttonhandler	; 09=amiga mouse
   2734  f1dc		       f1		      .byte.b	>joybuttonhandler	; 10=atarivox
   2735  f1dd		       f0		      .byte.b	>snes2atarihandler	; 11=snes
   2736  f1de		       00		      .byte.b	0	; 12=mega7800
   2737  f1df				   buttonhandlerlo
   2738  f1df		       00		      .byte.b	0	; 00=no controller plugged in
   2739  f1e0		       70		      .byte.b	<prolinebuttonpadhandler	; 01=proline joystick
   2740  f1e1		       c5		      .byte.b	<gunbuttonhandler	; 02=lightgun
   2741  f1e2		       57		      .byte.b	<paddlebuttonhandler	; 03=paddle
   2742  f1e3		       85		      .byte.b	<joybuttonhandler	; 04=trakball
   2743  f1e4		       70		      .byte.b	<joybuttonpadhandler	; 05=vcs joystick
   2744  f1e5		       85		      .byte.b	<joybuttonhandler	; 06=driving control
   2745  f1e6		       00		      .byte.b	0	; 07=keypad
   2746  f1e7		       57		      .byte.b	<mousebuttonhandler	; 08=st mouse
   2747  f1e8		       57		      .byte.b	<mousebuttonhandler	; 09=amiga mouse
   2748  f1e9		       85		      .byte.b	<joybuttonhandler	; 10=atarivox
   2749  f1ea		       00		      .byte.b	<snes2atarihandler	; 11=snes
   2750  f1eb		       00		      .byte.b	0	; 12=mega7800
   2751  f1ec
   2752  f1ec				   drawwait
   2753  f1ec		       24 4d		      bit	visibleover	; 255 if screen is being drawn, 0 when not.
   2754  f1ee		       30 fc		      bmi	drawwait	; make sure the visible screen isn't being drawn
   2755  f1f0		       60		      rts
   2756  f1f1
   2757  f1f1				   drawoverwait
   2758  f1f1		       24 4d		      bit	visibleover	; 255 if screen is being drawn, 0 when not.
   2759  f1f3		       10 fc		      bpl	drawoverwait	; make sure the visible screen is being drawn
   2760  f1f5		       60		      rts
   2761  f1f6
   2762  f1f6
   2763  f1f6				   mutetia
   2764  f1f6		       a9 00		      lda	#0
   2765  f1f8		       a2 03		      ldx	#3
   2766  f1fa				   mutetialoop
   2767  f1fa		       95 4e		      sta	sfx1pointlo,x
   2768  f1fc		       95 17		      sta	AUDF0,x
   2769  f1fe		       ca		      dex
   2770  f1ff		       10 f9		      bpl	mutetialoop
   2771  f201		       60		      rts
   2772  f202
   2773  f202				   servicesfxchannelsdone
   2774  f202					      ifnconst	pokeysupport
   2775  f202		       60		      rts
   2776  f203				  -	      else
   2777  f203				  -	      jmp	checkpokeyplaying
   2778  f203					      endif
   2779  f203				   servicesfxchannels
   2780  f203				  -	      ifconst	PAUSESILENT
   2781  f203				  -	      lda	pausestate
   2782  f203				  -	      beq	servicesfxchannels_1
   2783  f203				  -	      rts
   2784  f203				  -servicesfxchannels_1
   2785  f203					      endif
   2786  f203		       a2 ff		      ldx	#255
   2787  f205				   servicesfxchannelsloop
   2788  f205		       e8		      inx
   2789  f206					      ifnconst	TIASFXMONO
   2790  f206		       e0 02		      cpx	#2
   2791  f208				  -	      else
   2792  f208				  -	      cpx	#1
   2793  f208					      endif
   2794  f208		       f0 f8		      beq	servicesfxchannelsdone
   2795  f20a
   2796  f20a		       a5 de		      lda	sfxschedulelock	; =1 if locked
   2797  f20c		       d0 f4		      bne	servicesfxchannelsdone	; exit if a pointer may be mid-way change
   2798  f20e
   2799  f20e		       b5 4e		      lda	sfx1pointlo,x
   2800  f210		       85 dc		      sta	inttemp5
   2801  f212		       15 50		      ora	sfx1pointhi,x
   2802  f214		       f0 ef		      beq	servicesfxchannelsloop
   2803  f216		       b5 50		      lda	sfx1pointhi,x
   2804  f218		       85 dd		      sta	inttemp6
   2805  f21a
   2806  f21a		       b5 58		      lda	sfx1tick,x
   2807  f21c		       f0 05		      beq	servicesfx_cont1	; this chunk is over, load the next!
   2808  f21e		       d6 58		      dec	sfx1tick,x	; frame countdown is non-zero, subtract one
   2809  f220		       4c 05 f2 	      jmp	servicesfxchannelsloop
   2810  f223				   servicesfx_cont1
   2811  f223
   2812  f223		       a0 01		      ldy	#1	; check to see if they're changing the frame countdown
   2813  f225		       b1 dc		      lda	(inttemp5),y
   2814  f227		       c9 10		      cmp	#$10
   2815  f229		       d0 1b		      bne	servicesfx_cont1a
   2816  f22b		       a0 02		      ldy	#2
   2817  f22d		       b1 dc		      lda	(inttemp5),y
   2818  f22f		       95 56		      sta	sfx1frames,x	; change the frame countdown
   2819  f231		       a9 00		      lda	#0
   2820  f233		       95 58		      sta	sfx1tick,x
   2821  f235							; advance the sound pointer by 3...
   2822  f235		       b5 4e		      lda	sfx1pointlo,x
   2823  f237		       18		      clc
   2824  f238		       69 03		      adc	#3
   2825  f23a		       95 4e		      sta	sfx1pointlo,x
   2826  f23c		       b5 50		      lda	sfx1pointhi,x
   2827  f23e		       69 00		      adc	#0
   2828  f240		       95 50		      sta	sfx1pointhi,x
   2829  f242							; and then fetch another sample for this channel...
   2830  f242		       ca		      dex
   2831  f243		       4c 05 f2 	      jmp	servicesfxchannelsloop
   2832  f246				   servicesfx_cont1a
   2833  f246
   2834  f246		       b5 56		      lda	sfx1frames,x	; set the frame countdown for this sound chunk
   2835  f248		       95 58		      sta	sfx1tick,x
   2836  f24a
   2837  f24a		       b5 52		      lda	sfx1priority,x	; decrease the sound's priority if its non-zero
   2838  f24c		       f0 02		      beq	servicesfx_cont2
   2839  f24e		       d6 52		      dec	sfx1priority,x
   2840  f250				   servicesfx_cont2
   2841  f250
   2842  f250		       a0 00		      ldy	#0	; play the sound
   2843  f252		       b1 dc		      lda	(inttemp5),y
   2844  f254		       85 d8		      sta	inttemp1
   2845  f256
   2846  f256				  -	      ifconst	MUSICTRACKER
   2847  f256				  -	      lda	sfx1notedata,x
   2848  f256				  -	      beq	exitmusictracker	; exit if this isn't a pitched instrument
   2849  f256				  -	      ldy	#0
   2850  f256				  -	      sty	inttemp2
   2851  f256				  -	      clc
   2852  f256				  -	      adc	(inttemp5),y
   2853  f256				  -	      asl		; x2
   2854  f256				  -	      tay
   2855  f256				  -	      lda	tiatrackeroctavenotes,y
   2856  f256				  -	      sta	AUDC0,x
   2857  f256				  -	      iny
   2858  f256				  -	      lda	tiatrackeroctavenotes,y
   2859  f256				  -	      sta	AUDF0,x
   2860  f256				  -	      ldy	#1
   2861  f256				  -	      jmp	sfxvolumeentrypt
   2862  f256				  -exitmusictracker
   2863  f256				  -	      lda	inttemp1
   2864  f256					      endif		; MUSICTRACKER
   2865  f256
   2866  f256		       18		      clc
   2867  f257		       75 54		      adc	sfx1poffset,x	; take into account any pitch modification
   2868  f259		       95 17		      sta	AUDF0,x
   2869  f25b		       c8		      iny
   2870  f25c		       b1 dc		      lda	(inttemp5),y
   2871  f25e		       95 15		      sta	AUDC0,x
   2872  f260		       85 d9		      sta	inttemp2
   2873  f262		       c8		      iny
   2874  f263				   sfxvolumeentrypt
   2875  f263				  -	      ifconst	TIAVOLUME
   2876  f263				  -	      lda	tiavolume
   2877  f263				  -	      asl
   2878  f263				  -	      asl
   2879  f263				  -	      asl
   2880  f263				  -	      asl
   2881  f263				  -	      sta	fourbitfadevalueint
   2882  f263					      endif		; TIAVOLUME
   2883  f263		       b1 dc		      lda	(inttemp5),y
   2884  f265				  -	      ifconst	TIAVOLUME
   2885  f265				  -	      jsr	fourbitfadeint
   2886  f265					      endif		; TIAVOLUME
   2887  f265		       95 19		      sta	AUDV0,x
   2888  f267		       c9 10		      cmp	#$10
   2889  f269		       b0 19		      bcs	sfxsoundloop	; AUDV0>$0F means the sound is looped while priority is active
   2890  f26b
   2891  f26b		       05 d9		      ora	inttemp2
   2892  f26d		       05 d8		      ora	inttemp1	; check if F|C|V=0
   2893  f26f		       f0 23		      beq	zerosfx	; if so, we're at the end of the sound.
   2894  f271
   2895  f271				   advancesfxpointer
   2896  f271							; advance the pointer to the next sound chunk
   2897  f271		       c8		      iny
   2898  f272		       84 da		      sty	inttemp3
   2899  f274		       18		      clc
   2900  f275		       b5 4e		      lda	sfx1pointlo,x
   2901  f277		       65 da		      adc	inttemp3
   2902  f279		       95 4e		      sta	sfx1pointlo,x
   2903  f27b		       b5 50		      lda	sfx1pointhi,x
   2904  f27d		       69 00		      adc	#0
   2905  f27f		       95 50		      sta	sfx1pointhi,x
   2906  f281		       4c 05 f2 	      jmp	servicesfxchannelsloop
   2907  f284
   2908  f284				   sfxsoundloop
   2909  f284		       48		      pha
   2910  f285		       b5 52		      lda	sfx1priority,x
   2911  f287		       d0 04		      bne	sfxsoundloop_carryon
   2912  f289		       68		      pla		; fix the stack before we go
   2913  f28a		       4c 71 f2 	      jmp	advancesfxpointer
   2914  f28d				   sfxsoundloop_carryon
   2915  f28d		       68		      pla
   2916  f28e		       29 f0		      and	#$F0
   2917  f290		       4a		      lsr
   2918  f291		       4a		      lsr
   2919  f292		       4a		      lsr
   2920  f293		       4a		      lsr
   2921  f294
   2922  f294				   zerosfx
   2923  f294		       95 4e		      sta	sfx1pointlo,x
   2924  f296		       95 50		      sta	sfx1pointhi,x
   2925  f298		       95 52		      sta	sfx1priority,x
   2926  f29a		       4c 05 f2 	      jmp	servicesfxchannelsloop
   2927  f29d
   2928  f29d
   2929  f29d				   schedulesfx
   2930  f29d							; called with sfxinstrumentlo=<data sfxinstrumenthi=>data sfxpitchoffset=pitch-offset sfxnoteindex=note index
   2931  f29d		       a0 00		      ldy	#0
   2932  f29f				  -	      ifconst	pokeysupport
   2933  f29f				  -	      lda	sfxinstrumenthi
   2934  f29f				  -	      beq	scheduletiasfx	; drums have undefined instrument
   2935  f29f				  -	      lda	(sfxinstrumentlo),y
   2936  f29f				  -	      cmp	#$20	; POKEY?
   2937  f29f				  -	      bne	scheduletiasfx
   2938  f29f				  -	      jmp	schedulepokeysfx
   2939  f29f					      endif
   2940  f29f				   scheduletiasfx
   2941  f29f							;cmp #$10 ; TIA?
   2942  f29f							;beq continuescheduletiasfx
   2943  f29f							; rts ; unhandled!!!
   2944  f29f				   continuescheduletiasfx
   2945  f29f					      ifnconst	TIASFXMONO
   2946  f29f		       a5 50		      lda	sfx1pointhi
   2947  f2a1		       f0 15		      beq	schedulesfx1	;if channel 1 is idle, use it
   2948  f2a3		       a5 51		      lda	sfx2pointhi
   2949  f2a5		       f0 15		      beq	schedulesfx2	;if channel 2 is idle, use it
   2950  f2a7							; Both channels are scheduled.
   2951  f2a7		       a5 e1		      lda	sfxinstrumenthi
   2952  f2a9		       f0 06		      beq	skipscheduledrums
   2953  f2ab		       a0 01		      ldy	#1
   2954  f2ad		       b1 e0		      lda	(sfxinstrumentlo),y
   2955  f2af		       d0 01		      bne	interruptsfx
   2956  f2b1				   skipscheduledrums
   2957  f2b1		       60		      rts		; the new sound has 0 priority and both channels are busy. Skip playing it.
   2958  f2b2				   interruptsfx
   2959  f2b2							;Compare which active sound has a lower priority. We'll interrupt the lower one.
   2960  f2b2		       a5 52		      lda	sfx1priority
   2961  f2b4		       c5 53		      cmp	sfx2priority
   2962  f2b6		       b0 04		      bcs	schedulesfx2
   2963  f2b8					      endif		; !TIASFXMONO
   2964  f2b8
   2965  f2b8				   schedulesfx1
   2966  f2b8		       a2 00		      ldx	#0	; channel 1
   2967  f2ba					      ifnconst	TIASFXMONO
   2968  f2ba		       f0 02		      beq	skipschedulesfx2
   2969  f2bc				   schedulesfx2
   2970  f2bc		       a2 01		      ldx	#1	; channel 2
   2971  f2be				   skipschedulesfx2
   2972  f2be					      endif		; !TIASFXMONO
   2973  f2be
   2974  f2be				  -	      ifconst	MUSICTRACKER
   2975  f2be				  -	      lda	sfxnoteindex
   2976  f2be				  -	      bpl	skipdrumkitoverride
   2977  f2be				  -	      and	#$7F	; subtract 128
   2978  f2be				  -	      sec
   2979  f2be				  -	      sbc	#4	; drums start at 132, i.e. octave 10
   2980  f2be				  -	      asl
   2981  f2be				  -	      tay
   2982  f2be				  -	      lda	tiadrumkitdefinition,y
   2983  f2be				  -	      sta	sfxinstrumentlo
   2984  f2be				  -	      iny
   2985  f2be				  -	      lda	tiadrumkitdefinition,y
   2986  f2be				  -	      sta	sfxinstrumenthi
   2987  f2be				  -	      lda	#0
   2988  f2be				  -	      sta	sfxnoteindex	; and tell the driver it's a non-pitched instrument
   2989  f2be				  -skipdrumkitoverride
   2990  f2be					      endif		; MUSICTRACKER
   2991  f2be		       a0 01		      ldy	#1	; get priority and sound-resolution (in frames)
   2992  f2c0		       b1 e0		      lda	(sfxinstrumentlo),y
   2993  f2c2		       95 52		      sta	sfx1priority,x
   2994  f2c4		       c8		      iny
   2995  f2c5		       b1 e0		      lda	(sfxinstrumentlo),y
   2996  f2c7		       95 56		      sta	sfx1frames,x
   2997  f2c9		       a5 e0		      lda	sfxinstrumentlo
   2998  f2cb		       18		      clc
   2999  f2cc		       69 03		      adc	#3
   3000  f2ce		       95 4e		      sta	sfx1pointlo,x
   3001  f2d0		       a5 e1		      lda	sfxinstrumenthi
   3002  f2d2		       69 00		      adc	#0
   3003  f2d4		       95 50		      sta	sfx1pointhi,x
   3004  f2d6		       a5 e2		      lda	sfxpitchoffset
   3005  f2d8		       95 54		      sta	sfx1poffset,x
   3006  f2da		       a9 00		      lda	#0
   3007  f2dc		       95 58		      sta	sfx1tick,x
   3008  f2de		       a5 e3		      lda	sfxnoteindex
   3009  f2e0		       95 cd		      sta	sfx1notedata,x
   3010  f2e2		       60		      rts
   3011  f2e3
   3012  f2e3				   plotsprite
   3013  f2e3					      ifnconst	NODRAWWAIT
   3014  f2e3				  -	      ifconst	DOUBLEBUFFER
   3015  f2e3				  -	      lda	doublebufferstate
   3016  f2e3				  -	      bne	skipplotspritewait
   3017  f2e3					      endif		; DOUBLEBUFFER
   3018  f2e3				  -	      ifconst	DEBUGWAITCOLOR
   3019  f2e3				  -	      lda	#$41
   3020  f2e3				  -	      sta	BACKGRND
   3021  f2e3					      endif
   3022  f2e3				   plotspritewait
   3023  f2e3		       a5 4d		      lda	visibleover
   3024  f2e5		       d0 fc		      bne	plotspritewait
   3025  f2e7				   skipplotspritewait
   3026  f2e7				  -	      ifconst	DEBUGWAITCOLOR
   3027  f2e7				  -	      lda	#$0
   3028  f2e7				  -	      sta	BACKGRND
   3029  f2e7					      endif
   3030  f2e7					      endif
   3031  f2e7
   3032  f2e7							;arguments:
   3033  f2e7							; temp1=lo graphicdata
   3034  f2e7							; temp2=hi graphicdata
   3035  f2e7							; temp3=palette | width byte
   3036  f2e7							; temp4=x
   3037  f2e7							; temp5=y
   3038  f2e7							; temp6=mode
   3039  f2e7		       a5 46		      lda	temp5	;Y position
   3040  f2e9		       4a		      lsr		; 2 - Divide by 8 or 16
   3041  f2ea		       4a		      lsr		; 2
   3042  f2eb		       4a		      lsr		; 2
   3043  f2ec					      if	WZONEHEIGHT = 16
   3044  f2ec		       4a		      lsr		; 2
   3045  f2ed					      endif
   3046  f2ed
   3047  f2ed		       aa		      tax
   3048  f2ee
   3049  f2ee					      ifnconst	NOLIMITCHECKING
   3050  f2ee
   3051  f2ee							; the next block allows for vertical masking, and ensures we don't overwrite non-DL memory
   3052  f2ee
   3053  f2ee		       c9 0c		      cmp	#WZONECOUNT
   3054  f2f0
   3055  f2f0		       90 0a		      bcc	continueplotsprite1	; the sprite is fully on-screen, so carry on...
   3056  f2f2							; otherwise, check to see if the bottom half is in zone 0...
   3057  f2f2
   3058  f2f2					      if	WZONEHEIGHT = 16
   3059  f2f2		       c9 0f		      cmp	#15
   3060  f2f4				  -	      else
   3061  f2f4				  -	      cmp	#31
   3062  f2f4					      endif
   3063  f2f4
   3064  f2f4		       d0 05		      bne	exitplotsprite1
   3065  f2f6		       a2 00		      ldx	#0
   3066  f2f8		       4c 31 f3 	      jmp	continueplotsprite2
   3067  f2fb				   exitplotsprite1
   3068  f2fb		       60		      rts
   3069  f2fc
   3070  f2fc				   continueplotsprite1
   3071  f2fc					      endif
   3072  f2fc
   3073  f2fc				  -	      ifconst	VSCROLL
   3074  f2fc				  -	      ldy	Xx3,x
   3075  f2fc				  -	      lda	DLLMEM+11,y
   3076  f2fc					      else		; !VSCROLL
   3077  f2fc		       bd 14 f5 	      lda	DLPOINTL,x	;Get pointer to DL that this sprite starts in
   3078  f2ff					      endif		; !VSCROLL
   3079  f2ff				  -	      ifconst	DOUBLEBUFFER
   3080  f2ff				  -	      clc
   3081  f2ff				  -	      adc	doublebufferdloffset
   3082  f2ff					      endif		; DOUBLEBUFFER
   3083  f2ff		       85 63		      sta	dlpnt
   3084  f301				  -	      ifconst	VSCROLL
   3085  f301				  -	      lda	DLLMEM+10,y
   3086  f301					      else		; !VSCROLL
   3087  f301		       bd 08 f5 	      lda	DLPOINTH,x
   3088  f304					      endif		; !VSCROLL
   3089  f304				  -	      ifconst	DOUBLEBUFFER
   3090  f304				  -	      adc	#0
   3091  f304					      endif		; DOUBLEBUFFER
   3092  f304		       85 64		      sta	dlpnt+1
   3093  f306
   3094  f306							;Create DL entry for upper part of sprite
   3095  f306
   3096  f306		       b4 65		      ldy	dlend,x	;Get the index to the end of this DL
   3097  f308
   3098  f308				  -	      ifconst	CHECKOVERWRITE
   3099  f308				  -	      cpy	#DLLASTOBJ
   3100  f308				  -	      beq	checkcontinueplotsprite2
   3101  f308				  -continueplotsprite1a
   3102  f308					      endif
   3103  f308
   3104  f308		       a5 42		      lda	temp1	; graphic data, lo byte
   3105  f30a		       91 63		      sta	(dlpnt),y	;Low byte of data address
   3106  f30c
   3107  f30c					      ifnconst	ATOMICSPRITEUPDATE
   3108  f30c		       c8		      iny
   3109  f30d		       a5 47		      lda	temp6
   3110  f30f		       91 63		      sta	(dlpnt),y
   3111  f311				  -	      else
   3112  f311				  -	      iny
   3113  f311				  -	      sty	temp8
   3114  f311					      endif
   3115  f311
   3116  f311		       c8		      iny
   3117  f312
   3118  f312		       a5 46		      lda	temp5	;Y position
   3119  f314		       29 0f		      and	#(WZONEHEIGHT - 1)
   3120  f316		       c9 01		      cmp	#1	; clear carry if our sprite is just in this zone
   3121  f318		       05 43		      ora	temp2	; graphic data, hi byte
   3122  f31a		       91 63		      sta	(dlpnt),y
   3123  f31c
   3124  f31c		       c8		      iny
   3125  f31d		       a5 44		      lda	temp3	;palette|width
   3126  f31f		       91 63		      sta	(dlpnt),y
   3127  f321
   3128  f321		       c8		      iny
   3129  f322		       a5 45		      lda	temp4	;Horizontal position
   3130  f324		       91 63		      sta	(dlpnt),y
   3131  f326
   3132  f326		       c8		      iny
   3133  f327		       94 65		      sty	dlend,x
   3134  f329
   3135  f329				  -	      ifconst	ALWAYSTERMINATE
   3136  f329				  -	      iny
   3137  f329				  -	      lda	#0
   3138  f329				  -	      sta	(dlpnt),y
   3139  f329					      endif
   3140  f329
   3141  f329				  -	      ifconst	ATOMICSPRITEUPDATE
   3142  f329				  -	      ldy	temp8
   3143  f329				  -	      lda	temp6
   3144  f329				  -	      sta	(dlpnt),y
   3145  f329					      endif
   3146  f329
   3147  f329				   checkcontinueplotsprite2
   3148  f329
   3149  f329		       90 33		      bcc	doneSPDL	;branch if the sprite was fully in the last zone
   3150  f32b
   3151  f32b							;Create DL entry for lower part of sprite
   3152  f32b
   3153  f32b		       e8		      inx		;Next region
   3154  f32c
   3155  f32c					      ifnconst	NOLIMITCHECKING
   3156  f32c		       e0 0c		      cpx	#WZONECOUNT
   3157  f32e
   3158  f32e		       90 01		      bcc	continueplotsprite2	; the second half of the sprite is fully on-screen, so carry on...
   3159  f330		       60		      rts
   3160  f331				   continueplotsprite2
   3161  f331					      endif
   3162  f331
   3163  f331				  -	      ifconst	VSCROLL
   3164  f331				  -	      ldy	Xx3,x
   3165  f331				  -	      lda	DLLMEM+11,y
   3166  f331					      else		; !VSCROLL
   3167  f331		       bd 14 f5 	      lda	DLPOINTL,x	;Get pointer to next DL
   3168  f334					      endif		; !VSCROLL
   3169  f334				  -	      ifconst	DOUBLEBUFFER
   3170  f334				  -	      clc
   3171  f334				  -	      adc	doublebufferdloffset
   3172  f334					      endif		; DOUBLEBUFFER
   3173  f334		       85 63		      sta	dlpnt
   3174  f336				  -	      ifconst	VSCROLL
   3175  f336				  -	      lda	DLLMEM+10,y
   3176  f336					      else		; !VSCROLL
   3177  f336		       bd 08 f5 	      lda	DLPOINTH,x
   3178  f339					      endif		; !VSCROLL
   3179  f339				  -	      ifconst	DOUBLEBUFFER
   3180  f339				  -	      adc	#0
   3181  f339					      endif		; DOUBLEBUFFER
   3182  f339		       85 64		      sta	dlpnt+1
   3183  f33b		       b4 65		      ldy	dlend,x	;Get the index to the end of this DL
   3184  f33d
   3185  f33d				  -	      ifconst	CHECKOVERWRITE
   3186  f33d				  -	      cpy	#DLLASTOBJ
   3187  f33d				  -	      bne	continueplotsprite2a
   3188  f33d				  -	      rts
   3189  f33d				  -continueplotsprite2a
   3190  f33d					      endif
   3191  f33d
   3192  f33d		       a5 42		      lda	temp1	; graphic data, lo byte
   3193  f33f		       91 63		      sta	(dlpnt),y
   3194  f341
   3195  f341					      ifnconst	ATOMICSPRITEUPDATE
   3196  f341		       c8		      iny
   3197  f342		       a5 47		      lda	temp6
   3198  f344		       91 63		      sta	(dlpnt),y
   3199  f346				  -	      else
   3200  f346				  -	      iny
   3201  f346				  -	      sty	temp8
   3202  f346					      endif
   3203  f346
   3204  f346		       c8		      iny
   3205  f347
   3206  f347		       a5 46		      lda	temp5	;Y position
   3207  f349		       0b 0f		      anc	#(WZONEHEIGHT - 1)	; undocumented. A=A&IMM, then move bit 7 into carry
   3208  f34b		       05 43		      ora	temp2	; graphic data, hi byte
   3209  f34d		       e9 0f		      sbc	#(WZONEHEIGHT-1)	; start at the DMA hole. -1 because carry is clear
   3210  f34f		       91 63		      sta	(dlpnt),y
   3211  f351
   3212  f351		       c8		      iny
   3213  f352
   3214  f352		       a5 44		      lda	temp3	;palette|width
   3215  f354		       91 63		      sta	(dlpnt),y
   3216  f356
   3217  f356		       c8		      iny
   3218  f357
   3219  f357		       a5 45		      lda	temp4	;Horizontal position
   3220  f359		       91 63		      sta	(dlpnt),y
   3221  f35b
   3222  f35b		       c8		      iny
   3223  f35c		       94 65		      sty	dlend,x
   3224  f35e
   3225  f35e				  -	      ifconst	ALWAYSTERMINATE
   3226  f35e				  -	      iny
   3227  f35e				  -	      lda	#0
   3228  f35e				  -	      sta	(dlpnt),y
   3229  f35e					      endif
   3230  f35e
   3231  f35e				  -	      ifconst	ATOMICSPRITEUPDATE
   3232  f35e				  -	      ldy	temp8
   3233  f35e				  -	      lda	temp6
   3234  f35e				  -	      sta	(dlpnt),y
   3235  f35e					      endif
   3236  f35e
   3237  f35e				   doneSPDL
   3238  f35e		       60		      rts
   3239  f35f
   3240  f35f				  -	      ifconst	VSCROLL
   3241  f35f				  -			; x3 table for fast DLL parsing
   3242  f35f				  -Xx3
   3243  f35f				  -	      .byte	0,3,6,9,12,15,18,21,24,27
   3244  f35f				  -	      .byte	30,33,36,39,42,45,48,51,54,57
   3245  f35f				  -	      .byte	60,63,66,69,72,75,78,81,84,87
   3246  f35f				  -maskscrollsprite
   3247  f35f				  -	      .byte	$00,%11000000,($D0+WZONEHEIGHT),0,160	; 5*2 + 32*3 = 106 cycles
   3248  f35f				  -	      .byte	$00,1,($D0+WZONEHEIGHT),160	; 4*2 + 31*3 = 101 cycles
   3249  f35f				  -	      .byte	$00,1,($D0+WZONEHEIGHT),160	; 4*2 + 31*3 = 101 cycles
   3250  f35f				  -	      .byte	$00,1,($D0+WZONEHEIGHT),160	; 4*2 + 31*3 = 101 cycles
   3251  f35f				  -	      .byte	$00,%01000000,($D0+WZONEHEIGHT),16,160	; 5*2 + 16*3 =  58 cycles
   3252  f35f				  -			; MAX	============ 467 cycles
   3253  f35f				  -			; MIN	============  59 cycles
   3254  f35f				  -maskscrollspriteend
   3255  f35f					      endif		; VSCROLL
   3256  f35f
   3257  f35f				   lockzonex
   3258  f35f				  -	      ifconst	ZONELOCKS
   3259  f35f				  -	      ldy	dlend,x
   3260  f35f				  -	      cpy	#DLLASTOBJ
   3261  f35f				  -	      beq	lockzonexreturn	; the zone is either stuffed or locked. abort!
   3262  f35f				  -	      lda	DLPOINTL,x
   3263  f35f				  -	      ifconst	DOUBLEBUFFER
   3264  f35f				  -	      clc
   3265  f35f				  -	      adc	doublebufferdloffset
   3266  f35f				  -	      endif		; DOUBLEBUFFER
   3267  f35f				  -	      sta	dlpnt
   3268  f35f				  -	      lda	DLPOINTH,x
   3269  f35f				  -	      ifconst	DOUBLEBUFFER
   3270  f35f				  -	      adc	#0
   3271  f35f				  -	      endif		; DOUBLEBUFFER
   3272  f35f				  -	      sta	dlpnt+1
   3273  f35f				  -	      iny
   3274  f35f				  -	      lda	#0
   3275  f35f				  -	      sta	(dlpnt),y
   3276  f35f				  -	      dey
   3277  f35f				  -	      tya
   3278  f35f				  -	      ldy	#(DLLASTOBJ-1)
   3279  f35f				  -	      sta	(dlpnt),y
   3280  f35f				  -	      iny
   3281  f35f				  -	      sty	dlend,x
   3282  f35f				  -lockzonexreturn
   3283  f35f				  -	      rts
   3284  f35f					      endif		; ZONELOCKS
   3285  f35f				   unlockzonex
   3286  f35f				  -	      ifconst	ZONELOCKS
   3287  f35f				  -	      ldy	dlend,x
   3288  f35f				  -	      cpy	#DLLASTOBJ
   3289  f35f				  -	      bne	unlockzonexreturn	; if the zone isn't stuffed, it's not locked. abort!
   3290  f35f				  -	      lda	DLPOINTL,x
   3291  f35f				  -	      ifconst	DOUBLEBUFFER
   3292  f35f				  -	      clc
   3293  f35f				  -	      adc	doublebufferdloffset
   3294  f35f				  -	      endif		; DOUBLEBUFFER
   3295  f35f				  -	      sta	dlpnt
   3296  f35f				  -	      lda	DLPOINTH,x
   3297  f35f				  -	      ifconst	DOUBLEBUFFER
   3298  f35f				  -	      adc	#0
   3299  f35f				  -	      endif		; DOUBLEBUFFER
   3300  f35f				  -	      sta	dlpnt+1
   3301  f35f				  -	      dey
   3302  f35f				  -	      lda	(dlpnt),y
   3303  f35f				  -	      tay
   3304  f35f				  -	      sty	dlend,x
   3305  f35f				  -unlockzonexreturn
   3306  f35f					      endif		; ZONELOCKS
   3307  f35f		       60		      rts
   3308  f360
   3309  f360				   plotcharloop
   3310  f360							; ** read from a data indirectly pointed to from temp8,temp9
   3311  f360							; ** format is: lo_data, hi_data, palette|width, x, y
   3312  f360							; ** format ends with lo_data | hi_data = 0
   3313  f360
   3314  f360				  -	      ifconst	DOUBLEBUFFER
   3315  f360				  -	      lda	doublebufferstate
   3316  f360				  -	      bne	skipplotcharloopwait
   3317  f360					      endif		; DOUBLEBUFFER
   3318  f360				  -	      ifconst	DEBUGWAITCOLOR
   3319  f360				  -	      lda	#$61
   3320  f360				  -	      sta	BACKGRND
   3321  f360					      endif
   3322  f360				   plotcharloopwait
   3323  f360		       a5 4d		      lda	visibleover
   3324  f362		       d0 fc		      bne	plotcharloopwait
   3325  f364				  -	      ifconst	DEBUGWAITCOLOR
   3326  f364				  -	      lda	#0
   3327  f364				  -	      sta	BACKGRND
   3328  f364					      endif
   3329  f364				   skipplotcharloopwait
   3330  f364				   plotcharlooploop
   3331  f364		       a0 00		      ldy	#0
   3332  f366		       b1 49		      lda	(temp8),y
   3333  f368		       85 42		      sta	temp1
   3334  f36a		       c8		      iny
   3335  f36b		       b1 49		      lda	(temp8),y
   3336  f36d		       85 43		      sta	temp2
   3337  f36f		       05 42		      ora	temp1
   3338  f371		       d0 01		      bne	plotcharloopcontinue
   3339  f373							;the pointer=0, so return
   3340  f373		       60		      rts
   3341  f374				   plotcharloopcontinue
   3342  f374		       c8		      iny
   3343  f375		       b1 49		      lda	(temp8),y
   3344  f377		       85 44		      sta	temp3
   3345  f379		       c8		      iny
   3346  f37a		       b1 49		      lda	(temp8),y
   3347  f37c		       85 45		      sta	temp4
   3348  f37e		       c8		      iny
   3349  f37f		       b1 49		      lda	(temp8),y
   3350  f381							;sta temp5 ; not needed with our late entry.
   3351  f381		       20 9a f3 	      jsr	plotcharactersskipentry
   3352  f384		       a5 49		      lda	temp8
   3353  f386		       18		      clc
   3354  f387		       69 05		      adc	#5
   3355  f389		       85 49		      sta	temp8
   3356  f38b		       a5 4a		      lda	temp9
   3357  f38d		       69 00		      adc	#0
   3358  f38f		       85 4a		      sta	temp9
   3359  f391		       4c 64 f3 	      jmp	plotcharlooploop
   3360  f394
   3361  f394				   plotcharacters
   3362  f394				  -	      ifconst	DOUBLEBUFFER
   3363  f394				  -	      lda	doublebufferstate
   3364  f394				  -	      bne	skipplotcharacterswait
   3365  f394					      endif		; DOUBLEBUFFER
   3366  f394				  -	      ifconst	DEBUGWAITCOLOR
   3367  f394				  -	      lda	#$41
   3368  f394				  -	      sta	BACKGRND
   3369  f394					      endif
   3370  f394				   plotcharacterswait
   3371  f394		       a5 4d		      lda	visibleover
   3372  f396		       d0 fc		      bne	plotcharacterswait
   3373  f398				  -	      ifconst	DEBUGWAITCOLOR
   3374  f398				  -	      sta	BACKGRND
   3375  f398					      endif
   3376  f398				   skipplotcharacterswait
   3377  f398							;arguments:
   3378  f398							; temp1=lo charactermap
   3379  f398							; temp2=hi charactermap
   3380  f398							; temp3=palette | width byte
   3381  f398							; temp4=x
   3382  f398							; temp5=y
   3383  f398
   3384  f398		       a5 46		      lda	temp5	;Y position
   3385  f39a
   3386  f39a				   plotcharactersskipentry
   3387  f39a
   3388  f39a							;ifconst ZONEHEIGHT
   3389  f39a							; if ZONEHEIGHT = 16
   3390  f39a							; and #$0F
   3391  f39a							; endif
   3392  f39a							; if ZONEHEIGHT = 8
   3393  f39a							; and #$1F
   3394  f39a							; endif
   3395  f39a							;else
   3396  f39a							; and #$0F
   3397  f39a							;endif
   3398  f39a
   3399  f39a		       aa		      tax
   3400  f39b
   3401  f39b				  -	      ifconst	VSCROLL
   3402  f39b				  -	      ldy	Xx3,x
   3403  f39b				  -	      lda	DLLMEM+11,y
   3404  f39b					      else		; !VSCROLL
   3405  f39b		       bd 14 f5 	      lda	DLPOINTL,x	;Get pointer to DL that the characters are in
   3406  f39e					      endif		; !VSCROLL
   3407  f39e				  -	      ifconst	DOUBLEBUFFER
   3408  f39e				  -	      clc
   3409  f39e				  -	      adc	doublebufferdloffset
   3410  f39e					      endif		; DOUBLEBUFFER
   3411  f39e		       85 63		      sta	dlpnt
   3412  f3a0				  -	      ifconst	VSCROLL
   3413  f3a0				  -	      lda	DLLMEM+10,y
   3414  f3a0					      else		; !VSCROLL
   3415  f3a0		       bd 08 f5 	      lda	DLPOINTH,x
   3416  f3a3					      endif		; !VSCROLL
   3417  f3a3				  -	      ifconst	DOUBLEBUFFER
   3418  f3a3				  -	      adc	#0
   3419  f3a3					      endif		; DOUBLEBUFFER
   3420  f3a3		       85 64		      sta	dlpnt+1
   3421  f3a5
   3422  f3a5							;Create DL entry for the characters
   3423  f3a5
   3424  f3a5		       b4 65		      ldy	dlend,x	;Get the index to the end of this DL
   3425  f3a7
   3426  f3a7				  -	      ifconst	CHECKOVERWRITE
   3427  f3a7				  -	      cpy	#DLLASTOBJ
   3428  f3a7				  -	      bne	continueplotcharacters
   3429  f3a7				  -	      rts
   3430  f3a7				  -continueplotcharacters
   3431  f3a7					      endif
   3432  f3a7
   3433  f3a7		       a5 42		      lda	temp1	; character map data, lo byte
   3434  f3a9		       91 63		      sta	(dlpnt),y	;(1) store low address
   3435  f3ab
   3436  f3ab		       c8		      iny
   3437  f3ac		       ad 06 21 	      lda	charactermode
   3438  f3af		       91 63		      sta	(dlpnt),y	;(2) store mode
   3439  f3b1
   3440  f3b1		       c8		      iny
   3441  f3b2		       a5 43		      lda	temp2	; character map, hi byte
   3442  f3b4		       91 63		      sta	(dlpnt),y	;(3) store high address
   3443  f3b6
   3444  f3b6		       c8		      iny
   3445  f3b7		       a5 44		      lda	temp3	;palette|width
   3446  f3b9		       91 63		      sta	(dlpnt),y	;(4) store palette|width
   3447  f3bb
   3448  f3bb		       c8		      iny
   3449  f3bc		       a5 45		      lda	temp4	;Horizontal position
   3450  f3be		       91 63		      sta	(dlpnt),y	;(5) store horizontal position
   3451  f3c0
   3452  f3c0		       c8		      iny
   3453  f3c1		       94 65		      sty	dlend,x	; save display list end byte
   3454  f3c3		       60		      rts
   3455  f3c4
   3456  f3c4
   3457  f3c4				  -	      ifconst	plotvalueonscreen
   3458  f3c4				  -plotcharacterslive
   3459  f3c4				  -			; a version of plotcharacters that draws live and minimally disrupts the screen...
   3460  f3c4				  -
   3461  f3c4				  -			;arguments:
   3462  f3c4				  -			; temp1=lo charactermap
   3463  f3c4				  -			; temp2=hi charactermap
   3464  f3c4				  -			; temp3=palette | width byte
   3465  f3c4				  -			; temp4=x
   3466  f3c4				  -			; temp5=y
   3467  f3c4				  -
   3468  f3c4				  -	      lda	temp5	;Y position
   3469  f3c4				  -
   3470  f3c4				  -	      tax
   3471  f3c4				  -
   3472  f3c4				  -	      ifconst	VSCROLL
   3473  f3c4				  -	      ldy	Xx3,x
   3474  f3c4				  -	      lda	DLLMEM+11,y
   3475  f3c4				  -	      else		; !VSCROLL
   3476  f3c4				  -	      lda	DLPOINTL,x	;Get pointer to DL that the characters are in
   3477  f3c4				  -	      endif		; !VSCROLL
   3478  f3c4				  -	      ifconst	DOUBLEBUFFER
   3479  f3c4				  -	      clc
   3480  f3c4				  -	      adc	doublebufferdloffset
   3481  f3c4				  -	      endif		; DOUBLEBUFFER
   3482  f3c4				  -	      sta	dlpnt
   3483  f3c4				  -	      ifconst	VSCROLL
   3484  f3c4				  -	      lda	DLLMEM+10,y
   3485  f3c4				  -	      else		; !VSCROLL
   3486  f3c4				  -	      lda	DLPOINTH,x
   3487  f3c4				  -	      endif		; !VSCROLL
   3488  f3c4				  -	      ifconst	DOUBLEBUFFER
   3489  f3c4				  -	      adc	#0
   3490  f3c4				  -	      endif		; DOUBLEBUFFER
   3491  f3c4				  -	      sta	dlpnt+1
   3492  f3c4				  -
   3493  f3c4				  -			;Create DL entry for the characters
   3494  f3c4				  -
   3495  f3c4				  -	      ldy	dlend,x	;Get the index to the end of this DL
   3496  f3c4				  -
   3497  f3c4				  -	      ifconst	CHECKOVERWRITE
   3498  f3c4				  -	      cpy	#DLLASTOBJ
   3499  f3c4				  -	      bne	continueplotcharacterslive
   3500  f3c4				  -	      rts
   3501  f3c4				  -continueplotcharacterslive
   3502  f3c4				  -	      endif
   3503  f3c4				  -
   3504  f3c4				  -	      lda	temp1	; character map data, lo byte
   3505  f3c4				  -	      sta	(dlpnt),y	;(1) store low address
   3506  f3c4				  -
   3507  f3c4				  -	      iny
   3508  f3c4				  -			; we don't add the second byte yet, since the charmap could briefly
   3509  f3c4				  -			; render without a proper character map address, width, or position.
   3510  f3c4				  -	      lda	charactermode
   3511  f3c4				  -	      sta	(dlpnt),y	;(2) store mode
   3512  f3c4				  -
   3513  f3c4				  -	      iny
   3514  f3c4				  -	      lda	temp2	; character map, hi byte
   3515  f3c4				  -	      sta	(dlpnt),y	;(3) store high address
   3516  f3c4				  -
   3517  f3c4				  -	      iny
   3518  f3c4				  -	      lda	temp3	;palette|width
   3519  f3c4				  -	      sta	(dlpnt),y	;(4) store palette|width
   3520  f3c4				  -
   3521  f3c4				  -	      iny
   3522  f3c4				  -	      lda	temp4	;Horizontal position
   3523  f3c4				  -	      sta	(dlpnt),y	;(5) store horizontal position
   3524  f3c4				  -
   3525  f3c4				  -	      iny
   3526  f3c4				  -	      sty	dlend,x	; save display list end byte
   3527  f3c4				  -
   3528  f3c4				  -	      rts
   3529  f3c4					      endif		;plotcharacterslive
   3530  f3c4
   3531  f3c4				  -	      ifconst	USED_PLOTVALUE
   3532  f3c4				  -plotvalue
   3533  f3c4				  -			; calling 7800basic command:
   3534  f3c4				  -			; plotvalue digit_gfx palette variable/data number_of_digits screen_x screen_y
   3535  f3c4				  -			; ...displays the variable as BCD digits
   3536  f3c4				  -			;
   3537  f3c4				  -			; asm sub arguments:
   3538  f3c4				  -			; temp1=lo charactermap
   3539  f3c4				  -			; temp2=hi charactermap
   3540  f3c4				  -			; temp3=palette | width byte
   3541  f3c4				  -			; temp4=x
   3542  f3c4				  -			; temp5=y
   3543  f3c4				  -			; temp6=number of digits
   3544  f3c4				  -			; temp7=lo variable
   3545  f3c4				  -			; temp8=hi variable
   3546  f3c4				  -			; temp9=character mode
   3547  f3c4				  -
   3548  f3c4				  -plotdigitcount =	temp6
   3549  f3c4				  -
   3550  f3c4				  -	      ifconst	ZONELOCKS
   3551  f3c4				  -	      ldx	temp5
   3552  f3c4				  -	      ldy	dlend,x
   3553  f3c4				  -	      cpy	#DLLASTOBJ
   3554  f3c4				  -	      bne	carryonplotvalue
   3555  f3c4				  -	      rts
   3556  f3c4				  -carryonplotvalue
   3557  f3c4				  -	      endif
   3558  f3c4				  -
   3559  f3c4				  -	      lda	#0
   3560  f3c4				  -	      tay
   3561  f3c4				  -	      ldx	valbufend
   3562  f3c4				  -
   3563  f3c4				  -	      lda	plotdigitcount
   3564  f3c4				  -	      and	#1
   3565  f3c4				  -	      beq	pvnibble2char
   3566  f3c4				  -	      lda	#0
   3567  f3c4				  -	      sta	VALBUFFER,x	; just in case we skip this digit
   3568  f3c4				  -	      beq	pvnibble2char_skipnibble
   3569  f3c4				  -
   3570  f3c4				  -pvnibble2char
   3571  f3c4				  -			; high nibble...
   3572  f3c4				  -	      lda	(temp7),y
   3573  f3c4				  -	      and	#$f0
   3574  f3c4				  -	      lsr
   3575  f3c4				  -	      lsr
   3576  f3c4				  -	      lsr
   3577  f3c4				  -	      ifnconst	DOUBLEWIDE	; multiply value by 2 for double-width
   3578  f3c4				  -	      lsr
   3579  f3c4				  -	      endif
   3580  f3c4				  -
   3581  f3c4				  -	      clc
   3582  f3c4				  -	      adc	temp1	; add the offset to character graphics to our value
   3583  f3c4				  -	      sta	VALBUFFER,x
   3584  f3c4				  -	      inx
   3585  f3c4				  -	      dec	plotdigitcount
   3586  f3c4				  -
   3587  f3c4				  -pvnibble2char_skipnibble
   3588  f3c4				  -			; low nibble...
   3589  f3c4				  -	      lda	(temp7),y
   3590  f3c4				  -	      and	#$0f
   3591  f3c4				  -	      ifconst	DOUBLEWIDE	; multiply value by 2 for double-width
   3592  f3c4				  -	      asl
   3593  f3c4				  -	      endif
   3594  f3c4				  -	      clc
   3595  f3c4				  -	      adc	temp1	; add the offset to character graphics to our value
   3596  f3c4				  -	      sta	VALBUFFER,x
   3597  f3c4				  -	      inx
   3598  f3c4				  -	      iny
   3599  f3c4				  -
   3600  f3c4				  -	      dec	plotdigitcount
   3601  f3c4				  -	      bne	pvnibble2char
   3602  f3c4				  -
   3603  f3c4				  -			;point to the start of our valuebuffer
   3604  f3c4				  -	      clc
   3605  f3c4				  -	      lda	#<VALBUFFER
   3606  f3c4				  -	      adc	valbufend
   3607  f3c4				  -	      sta	temp1
   3608  f3c4				  -	      lda	#>VALBUFFER
   3609  f3c4				  -	      adc	#0
   3610  f3c4				  -	      sta	temp2
   3611  f3c4				  -
   3612  f3c4				  -			;advance valbufend to the end of our value buffer
   3613  f3c4				  -	      stx	valbufend
   3614  f3c4				  -
   3615  f3c4				  -	      ifnconst	plotvalueonscreen
   3616  f3c4				  -	      jmp	plotcharacters
   3617  f3c4				  -	      else
   3618  f3c4				  -	      jmp	plotcharacterslive
   3619  f3c4				  -	      endif
   3620  f3c4				  -
   3621  f3c4					      endif		; USED_PLOTVALUE
   3622  f3c4
   3623  f3c4
   3624  f3c4				  -	      ifconst	USED_PLOTVALUEEXTRA
   3625  f3c4				  -plotdigitcount =	temp6
   3626  f3c4				  -plotvalueextra
   3627  f3c4				  -			; calling 7800basic command:
   3628  f3c4				  -			; plotvalue digit_gfx palette variable/data number_of_digits screen_x screen_y
   3629  f3c4				  -			; ...displays the variable as BCD digits
   3630  f3c4				  -			;
   3631  f3c4				  -			; asm sub arguments:
   3632  f3c4				  -			; temp1=lo charactermap
   3633  f3c4				  -			; temp2=hi charactermap
   3634  f3c4				  -			; temp3=palette | width byte
   3635  f3c4				  -			; temp4=x
   3636  f3c4				  -			; temp5=y
   3637  f3c4				  -			; temp6=number of digits
   3638  f3c4				  -			; temp7=lo variable
   3639  f3c4				  -			; temp8=hi variable
   3640  f3c4				  -
   3641  f3c4				  -	      lda	#0
   3642  f3c4				  -	      tay
   3643  f3c4				  -	      ldx	valbufend
   3644  f3c4				  -	      ifnconst	plotvalueonscreen
   3645  f3c4				  -	      sta	VALBUFFER,x
   3646  f3c4				  -	      endif
   3647  f3c4				  -
   3648  f3c4				  -	      lda	plotdigitcount
   3649  f3c4				  -	      and	#1
   3650  f3c4				  -
   3651  f3c4				  -	      bne	pvnibble2char_skipnibbleextra
   3652  f3c4				  -
   3653  f3c4				  -pvnibble2charextra
   3654  f3c4				  -			; high nibble...
   3655  f3c4				  -	      lda	(temp7),y
   3656  f3c4				  -	      and	#$f0
   3657  f3c4				  -	      lsr
   3658  f3c4				  -	      lsr
   3659  f3c4				  -	      ifnconst	DOUBLEWIDE	; multiply value by 2 for double-width
   3660  f3c4				  -	      lsr
   3661  f3c4				  -	      endif
   3662  f3c4				  -	      clc
   3663  f3c4				  -	      adc	temp1	; add the offset to character graphics to our value
   3664  f3c4				  -	      sta	VALBUFFER,x
   3665  f3c4				  -	      inx
   3666  f3c4				  -
   3667  f3c4				  -			; second half of the digit
   3668  f3c4				  -	      clc
   3669  f3c4				  -	      adc	#1
   3670  f3c4				  -	      sta	VALBUFFER,x
   3671  f3c4				  -	      inx
   3672  f3c4				  -	      dec	plotdigitcount
   3673  f3c4				  -
   3674  f3c4				  -pvnibble2char_skipnibbleextra
   3675  f3c4				  -			; low nibble...
   3676  f3c4				  -	      lda	(temp7),y
   3677  f3c4				  -	      and	#$0f
   3678  f3c4				  -	      ifconst	DOUBLEWIDE	; multiply value by 2 for double-width
   3679  f3c4				  -	      asl
   3680  f3c4				  -	      endif
   3681  f3c4				  -	      asl
   3682  f3c4				  -
   3683  f3c4				  -	      clc
   3684  f3c4				  -	      adc	temp1	; add the offset to character graphics to our value
   3685  f3c4				  -	      sta	VALBUFFER,x
   3686  f3c4				  -	      inx
   3687  f3c4				  -
   3688  f3c4				  -	      clc
   3689  f3c4				  -	      adc	#1
   3690  f3c4				  -	      sta	VALBUFFER,x
   3691  f3c4				  -	      inx
   3692  f3c4				  -	      iny
   3693  f3c4				  -
   3694  f3c4				  -	      dec	plotdigitcount
   3695  f3c4				  -	      bne	pvnibble2charextra
   3696  f3c4				  -
   3697  f3c4				  -			;point to the start of our valuebuffer
   3698  f3c4				  -	      clc
   3699  f3c4				  -	      lda	#<VALBUFFER
   3700  f3c4				  -	      adc	valbufend
   3701  f3c4				  -	      sta	temp1
   3702  f3c4				  -	      lda	#>VALBUFFER
   3703  f3c4				  -	      adc	#0
   3704  f3c4				  -	      sta	temp2
   3705  f3c4				  -
   3706  f3c4				  -			;advance valbufend to the end of our value buffer
   3707  f3c4				  -	      stx	valbufend
   3708  f3c4				  -
   3709  f3c4				  -	      ifnconst	plotvalueonscreen
   3710  f3c4				  -	      jmp	plotcharacters
   3711  f3c4				  -	      else
   3712  f3c4				  -	      jmp	plotcharacterslive
   3713  f3c4				  -	      endif
   3714  f3c4					      endif		; USED_PLOTVALUEEXTRA
   3715  f3c4
   3716  f3c4				   boxcollision
   3717  f3c4				  -	      ifconst	BOXCOLLISION
   3718  f3c4				  -			; the worst case cycle-time for the code below is 43 cycles.
   3719  f3c4				  -			; unfortunately, prior to getting here we've burned 44 cycles in argument setup. eep!
   3720  f3c4				  -
   3721  f3c4				  -			;__boxx1 = accumulator
   3722  f3c4				  -			;__boxy1 = y
   3723  f3c4				  -__boxw1    =	temp3
   3724  f3c4				  -__boxh1    =	temp4
   3725  f3c4				  -
   3726  f3c4				  -__boxx2    =	temp5
   3727  f3c4				  -__boxy2    =	temp6
   3728  f3c4				  -__boxw2    =	temp7
   3729  f3c4				  -__boxh2    =	temp8
   3730  f3c4				  -
   3731  f3c4				  -DoXCollisionCheck
   3732  f3c4				  -			;lda __boxx1 ; skipped. already in the accumulator
   3733  f3c4				  -	      cmp	__boxx2	;3
   3734  f3c4				  -	      bcs	X1isbiggerthanX2	;2/3
   3735  f3c4				  -X2isbiggerthanX1
   3736  f3c4				  -			; carry is clear
   3737  f3c4				  -	      adc	__boxw1	;3
   3738  f3c4				  -	      cmp	__boxx2	;3
   3739  f3c4				  -	      bcs	DoYCollisionCheck	;3/2
   3740  f3c4				  -	      rts		;6 - carry clear, no collision
   3741  f3c4				  -X1isbiggerthanX2
   3742  f3c4				  -	      clc		;2
   3743  f3c4				  -	      sbc	__boxw2	;3
   3744  f3c4				  -	      cmp	__boxx2	;3
   3745  f3c4				  -	      bcs	noboxcollision	;3/2
   3746  f3c4				  -DoYCollisionCheck
   3747  f3c4				  -	      tya		; 2 ; use to be "lda __boxy1"
   3748  f3c4				  -	      cmp	__boxy2	;3
   3749  f3c4				  -	      bcs	Y1isbiggerthanY2	;3/2
   3750  f3c4				  -Y2isbiggerthanY1
   3751  f3c4				  -			; carry is clear
   3752  f3c4				  -	      adc	__boxh1	;3
   3753  f3c4				  -	      cmp	__boxy2	;3
   3754  f3c4				  -	      rts		;6
   3755  f3c4				  -Y1isbiggerthanY2
   3756  f3c4				  -	      clc		;2
   3757  f3c4				  -	      sbc	__boxh2	;3
   3758  f3c4				  -	      cmp	__boxy2	;3
   3759  f3c4				  -	      bcs	noboxcollision	;3/2
   3760  f3c4				  -yesboxcollision
   3761  f3c4				  -	      sec		;2
   3762  f3c4				  -	      rts		;6
   3763  f3c4				  -noboxcollision
   3764  f3c4				  -	      clc		;2
   3765  f3c4				  -	      rts		;6
   3766  f3c4					      endif		; BOXCOLLISION
   3767  f3c4
   3768  f3c4				   randomize
   3769  f3c4		       a5 40		      lda	rand
   3770  f3c6		       4a		      lsr
   3771  f3c7		       26 41		      rol	rand16
   3772  f3c9		       90 02		      bcc	noeor
   3773  f3cb		       49 b4		      eor	#$B4
   3774  f3cd				   noeor
   3775  f3cd		       85 40		      sta	rand
   3776  f3cf		       45 41		      eor	rand16
   3777  f3d1		       60		      rts
   3778  f3d2
   3779  f3d2							; *** bcd conversion routine courtesy Omegamatrix
   3780  f3d2							; *** http://atariage.com/forums/blog/563/entry-10832-hex-to-bcd-conversion-0-99/
   3781  f3d2				  -	      ifconst	.calledfunction_converttobcd
   3782  f3d2				  -converttobcd
   3783  f3d2				  -			;value to convert is in the accumulator
   3784  f3d2				  -	      sta	temp1
   3785  f3d2				  -	      lsr
   3786  f3d2				  -	      adc	temp1
   3787  f3d2				  -	      ror
   3788  f3d2				  -	      lsr
   3789  f3d2				  -	      lsr
   3790  f3d2				  -	      adc	temp1
   3791  f3d2				  -	      ror
   3792  f3d2				  -	      adc	temp1
   3793  f3d2				  -	      ror
   3794  f3d2				  -	      lsr
   3795  f3d2				  -	      and	#$3C
   3796  f3d2				  -	      sta	temp2
   3797  f3d2				  -	      lsr
   3798  f3d2				  -	      adc	temp2
   3799  f3d2				  -	      adc	temp1
   3800  f3d2				  -	      rts		; return the result in the accumulator
   3801  f3d2					      endif		; .calledfunction_converttobcd
   3802  f3d2
   3803  f3d2				  -	      ifconst	.calledfunction_mul8
   3804  f3d2				  -			; Y and A contain multiplicands, result in A
   3805  f3d2				  -mul8
   3806  f3d2				  -	      sty	temp1
   3807  f3d2				  -	      sta	temp2
   3808  f3d2				  -	      lda	#0
   3809  f3d2				  -reptmul8
   3810  f3d2				  -	      lsr	temp2
   3811  f3d2				  -	      bcc	skipmul8
   3812  f3d2				  -	      clc
   3813  f3d2				  -	      adc	temp1
   3814  f3d2				  -			;bcs donemul8 might save cycles?
   3815  f3d2				  -skipmul8
   3816  f3d2				  -			;beq donemul8 might save cycles?
   3817  f3d2				  -	      asl	temp1
   3818  f3d2				  -	      bne	reptmul8
   3819  f3d2				  -donemul8
   3820  f3d2				  -	      rts
   3821  f3d2					      endif		; .calledfunction_mul8
   3822  f3d2
   3823  f3d2				  -	      ifconst	.calledfunction_div8
   3824  f3d2				  -div8
   3825  f3d2				  -			; A=numerator Y=denominator, result in A
   3826  f3d2				  -	      cpy	#2
   3827  f3d2				  -	      bcc	div8end+1	;div by 0 = bad, div by 1=no calc needed, so bail out
   3828  f3d2				  -	      sty	temp1
   3829  f3d2				  -	      ldy	#$ff
   3830  f3d2				  -div8loop
   3831  f3d2				  -	      sbc	temp1
   3832  f3d2				  -	      iny
   3833  f3d2				  -	      bcs	div8loop
   3834  f3d2				  -div8end
   3835  f3d2				  -	      tya
   3836  f3d2				  -			; result in A
   3837  f3d2				  -	      rts
   3838  f3d2					      endif		; .calledfunction_div8
   3839  f3d2
   3840  f3d2				  -	      ifconst	.calledfunction_mul16
   3841  f3d2				  -			; Y and A contain multiplicands, result in temp2,A=low, temp1=high
   3842  f3d2				  -mul16
   3843  f3d2				  -	      sty	temp1
   3844  f3d2				  -	      sta	temp2
   3845  f3d2				  -
   3846  f3d2				  -	      lda	#0
   3847  f3d2				  -	      ldx	#8
   3848  f3d2				  -	      lsr	temp1
   3849  f3d2				  -mul16_1
   3850  f3d2				  -	      bcc	mul16_2
   3851  f3d2				  -	      clc
   3852  f3d2				  -	      adc	temp2
   3853  f3d2				  -mul16_2
   3854  f3d2				  -	      ror
   3855  f3d2				  -	      ror	temp1
   3856  f3d2				  -	      dex
   3857  f3d2				  -	      bne	mul16_1
   3858  f3d2				  -	      sta	temp2
   3859  f3d2				  -	      rts
   3860  f3d2					      endif		; .calledfunction_mul16
   3861  f3d2
   3862  f3d2				  -	      ifconst	.calledfunction_div16
   3863  f3d2				  -			; div int/int
   3864  f3d2				  -			; numerator in A, denom in temp1
   3865  f3d2				  -			; returns with quotient in A, remainder in temp1
   3866  f3d2				  -div16
   3867  f3d2				  -	      sta	temp2
   3868  f3d2				  -	      sty	temp1
   3869  f3d2				  -	      lda	#0
   3870  f3d2				  -	      ldx	#8
   3871  f3d2				  -	      asl	temp2
   3872  f3d2				  -div16_1
   3873  f3d2				  -	      rol
   3874  f3d2				  -	      cmp	temp1
   3875  f3d2				  -	      bcc	div16_2
   3876  f3d2				  -	      sbc	temp1
   3877  f3d2				  -div16_2
   3878  f3d2				  -	      rol	temp2
   3879  f3d2				  -	      dex
   3880  f3d2				  -	      bne	div16_1
   3881  f3d2				  -	      sta	temp1
   3882  f3d2				  -	      lda	temp2
   3883  f3d2				  -	      rts
   3884  f3d2					      endif		; .calledfunction_div16
   3885  f3d2
   3886  f3d2				  -	      ifconst	bankswitchmode
   3887  f3d2				  -BS_jsr
   3888  f3d2				  -	      ifconst	dumpbankswitch
   3889  f3d2				  -	      sta	dumpbankswitch
   3890  f3d2				  -	      endif
   3891  f3d2				  -	      ifconst	MCPDEVCART
   3892  f3d2				  -	      ora	#$18
   3893  f3d2				  -	      sta	$3000
   3894  f3d2				  -	      else
   3895  f3d2				  -	      sta	$8000
   3896  f3d2				  -	      endif
   3897  f3d2				  -	      pla
   3898  f3d2				  -	      tax
   3899  f3d2				  -	      pla
   3900  f3d2				  -	      rts
   3901  f3d2				  -
   3902  f3d2				  -BS_return
   3903  f3d2				  -	      pla		; bankswitch bank
   3904  f3d2				  -	      ifconst	dumpbankswitch
   3905  f3d2				  -	      sta	dumpbankswitch
   3906  f3d2				  -	      endif
   3907  f3d2				  -	      ifconst	BANKRAM
   3908  f3d2				  -	      sta	currentbank
   3909  f3d2				  -	      ora	currentrambank
   3910  f3d2				  -	      endif
   3911  f3d2				  -	      ifconst	MCPDEVCART
   3912  f3d2				  -	      ora	#$18
   3913  f3d2				  -	      sta	$3000
   3914  f3d2				  -	      else
   3915  f3d2				  -	      sta	$8000
   3916  f3d2				  -	      endif
   3917  f3d2				  -	      pla		; bankswitch $0 flag
   3918  f3d2				  -	      rts
   3919  f3d2					      endif
   3920  f3d2
   3921  f3d2				   checkselectswitch
   3922  f3d2		       ad 82 02 	      lda	SWCHB	; check the real select switch...
   3923  f3d5		       29 02		      and	#%00000010
   3924  f3d7				   checkselectswitchreturn
   3925  f3d7		       60		      rts
   3926  f3d8
   3927  f3d8				   checkresetswitch
   3928  f3d8		       ad 82 02 	      lda	SWCHB	; check the real reset switch...
   3929  f3db		       29 01		      and	#%00000001
   3930  f3dd		       60		      rts
   3931  f3de
   3932  f3de				  -	      ifconst	FINESCROLLENABLED
   3933  f3de				  -finescrolldlls
   3934  f3de				  -	      ldx	temp1	; first DLL index x3
   3935  f3de				  -	      lda	DLLMEM,x
   3936  f3de				  -	      and	#%11110000
   3937  f3de				  -	      ora	finescrolly
   3938  f3de				  -	      sta	DLLMEM,x
   3939  f3de				  -
   3940  f3de				  -	      ldx	temp2	; last DLL index x3
   3941  f3de				  -	      lda	DLLMEM,x
   3942  f3de				  -	      and	#%11110000
   3943  f3de				  -	      ora	finescrolly
   3944  f3de				  -	      eor	#(WZONEHEIGHT-1)
   3945  f3de				  -	      sta	DLLMEM,x
   3946  f3de				  -	      rts
   3947  f3de					      endif		; FINESCROLLENABLED
   3948  f3de
   3949  f3de				  -	      ifconst	USED_ADJUSTVISIBLE
   3950  f3de				  -adjustvisible
   3951  f3de				  -			; called with temp1=first visible zone *3, temp2=last visible zone *3
   3952  f3de				  -	      jsr	waitforvblankstart	; ensure vblank just started
   3953  f3de				  -	      ldx	visibleDLLstart
   3954  f3de				  -findfirstinterrupt
   3955  f3de				  -	      lda	DLLMEM,x
   3956  f3de				  -	      bmi	foundfirstinterrupt
   3957  f3de				  -	      inx
   3958  f3de				  -	      inx
   3959  f3de				  -	      inx
   3960  f3de				  -	      bne	findfirstinterrupt
   3961  f3de				  -foundfirstinterrupt
   3962  f3de				  -	      and	#%01111111	; clear the interrupt bit
   3963  f3de				  -	      sta	DLLMEM,x
   3964  f3de				  -	      ifconst	DOUBLEBUFFER
   3965  f3de				  -	      sta	DLLMEM+DBOFFSET,x
   3966  f3de				  -	      endif		; DOUBLEBUFFER
   3967  f3de				  -	      ldx	overscanDLLstart
   3968  f3de				  -findlastinterrupt
   3969  f3de				  -	      lda	DLLMEM,x
   3970  f3de				  -	      bmi	foundlastinterrupt
   3971  f3de				  -	      dex
   3972  f3de				  -	      dex
   3973  f3de				  -	      dex
   3974  f3de				  -	      bne	findlastinterrupt
   3975  f3de				  -foundlastinterrupt
   3976  f3de				  -	      and	#%01111111	; clear the interrupt bit
   3977  f3de				  -	      sta	DLLMEM,x
   3978  f3de				  -	      ifconst	DOUBLEBUFFER
   3979  f3de				  -	      sta	DLLMEM+DBOFFSET,x
   3980  f3de				  -	      endif		; DOUBLEBUFFER
   3981  f3de				  -			;now we need to set the new interrupts
   3982  f3de				  -	      clc
   3983  f3de				  -	      lda	temp1
   3984  f3de				  -	      adc	visibleDLLstart
   3985  f3de				  -	      tax
   3986  f3de				  -	      lda	DLLMEM,x
   3987  f3de				  -	      ora	#%10000000
   3988  f3de				  -	      sta	DLLMEM,x
   3989  f3de				  -	      ifconst	DOUBLEBUFFER
   3990  f3de				  -	      sta	DLLMEM+DBOFFSET,x
   3991  f3de				  -	      endif		; DOUBLEBUFFER
   3992  f3de				  -	      clc
   3993  f3de				  -	      lda	temp2
   3994  f3de				  -	      adc	visibleDLLstart
   3995  f3de				  -	      tax
   3996  f3de				  -	      lda	DLLMEM,x
   3997  f3de				  -	      ora	#%10000000
   3998  f3de				  -	      sta	DLLMEM,x
   3999  f3de				  -	      ifconst	DOUBLEBUFFER
   4000  f3de				  -	      sta	DLLMEM+DBOFFSET,x
   4001  f3de				  -	      endif		; DOUBLEBUFFER
   4002  f3de				  -	      jsr	vblankresync
   4003  f3de				  -	      rts
   4004  f3de					      endif		; USED_ADJUSTVISIBLE
   4005  f3de
   4006  f3de				   vblankresync
   4007  f3de		       20 4e f4 	      jsr	waitforvblankstart	; ensure vblank just started
   4008  f3e1		       a9 00		      lda	#0
   4009  f3e3		       85 4d		      sta	visibleover
   4010  f3e5		       a9 03		      lda	#3
   4011  f3e7		       8d b2 01 	      sta	interruptindex
   4012  f3ea		       60		      rts
   4013  f3eb
   4014  f3eb				   createallgamedlls
   4015  f3eb		       a0 3c		      ldy	#(DLLLUTEND-DLLLUT)
   4016  f3ed				   createallgamedllsloop
   4017  f3ed		       88		      dey
   4018  f3ee		       b9 12 f4 	      lda	DLLLUT,y
   4019  f3f1		       99 00 18 	      sta	DLLMEM,y
   4020  f3f4				  -	      ifconst	DOUBLEBUFFER
   4021  f3f4				  -	      sta	DLLMEM+DBOFFSET,y
   4022  f3f4					      endif		; DOUBLEBUFFER
   4023  f3f4		       c0 00		      cpy	#0
   4024  f3f6		       d0 f5		      bne	createallgamedllsloop
   4025  f3f8
   4026  f3f8				  -	      ifconst	DOUBLEBUFFER
   4027  f3f8				  -	      ldy	#(DLLLUTNONVISSTART-DLLLUTVISSTART)
   4028  f3f8				  -fixdoublebuffer
   4029  f3f8				  -	      dey
   4030  f3f8				  -	      lda	DLLMEM+DBOFFSET+DLLLUTVISSTART-DLLLUT,y
   4031  f3f8				  -	      clc
   4032  f3f8				  -	      adc	#DOUBLEBUFFEROFFSET
   4033  f3f8				  -	      sta	DLLMEM+DBOFFSET+DLLLUTVISSTART-DLLLUT,y
   4034  f3f8				  -	      dey
   4035  f3f8				  -	      lda	DLLMEM+DBOFFSET+DLLLUTVISSTART-DLLLUT,y
   4036  f3f8				  -	      adc	#0
   4037  f3f8				  -	      sta	DLLMEM+DBOFFSET+DLLLUTVISSTART-DLLLUT,y
   4038  f3f8				  -	      dey
   4039  f3f8				  -	      bne	fixdoublebuffer
   4040  f3f8					      endif
   4041  f3f8
   4042  f3f8				  -	      ifconst	BANKSET_DL_IN_CARTRAM
   4043  f3f8				  -			; N.B. banksets doesn't in-fact allow DL in cart-ram, so this conditional
   4044  f3f8				  -			; is always skipped. This is here in case some day the limitation is
   4045  f3f8				  -			; worked around, but it's untested.
   4046  f3f8				  -
   4047  f3f8				  -			; With bankset cart ram, we added $8000 to the DL address so plot
   4048  f3f8				  -			; functions would hit the cart-ram write-address. We need to subtract $80
   4049  f3f8				  -			; so Maria will read from the cart-ram read-address.
   4050  f3f8				  -	      ldy	#(DLLLUTNONVISSTART-DLLLUTVISSTART)
   4051  f3f8				  -fixbanksetaddresses
   4052  f3f8				  -	      dey
   4053  f3f8				  -	      dey
   4054  f3f8				  -	      lda	DLLMEM+DLLLUTVISSTART-DLLLUT,y
   4055  f3f8				  -	      and	#%01111111
   4056  f3f8				  -	      sta	DLLMEM+DLLLUTVISSTART-DLLLUT,y
   4057  f3f8				  -	      ifconst	DOUBLEBUFFER
   4058  f3f8				  -	      lda	DLLMEM+DBOFFSET+DLLLUTVISSTART-DLLLUT,y
   4059  f3f8				  -	      and	#%01111111
   4060  f3f8				  -	      sta	DLLMEM+DBOFFSET+DLLLUTVISSTART-DLLLUT,y
   4061  f3f8				  -	      endif		; DOUBLEBUFFER
   4062  f3f8				  -	      dey
   4063  f3f8				  -	      bne	fixbanksetaddresses
   4064  f3f8					      endif		; BANKSET_DL_IN_CARTRAM
   4065  f3f8
   4066  f3f8		       ad 09 21 	      lda	paldetected
   4067  f3fb		       f0 0a		      beq	skippaladjust
   4068  f3fd		       a9 4f		      lda	#($0F|(WZONEHEIGHT*4))	; +15 lines
   4069  f3ff		       8d 06 18 	      sta	DLLMEM+6
   4070  f402				  -	      ifconst	DOUBLEBUFFER
   4071  f402				  -	      sta	DLLMEM+DBOFFSET+6
   4072  f402					      endif
   4073  f402					      if	WSCREENHEIGHT = 192
   4074  f402		       a9 4d		      lda	#($0D|(WZONEHEIGHT*4))	; +6 lines
   4075  f404				  -	      else
   4076  f404				  -	      lda	#($07|(WZONEHEIGHT*4))	; +6 lines
   4077  f404					      endif		;
   4078  f404		       8d 03 18 	      sta	DLLMEM+3
   4079  f407				  -	      ifconst	DOUBLEBUFFER
   4080  f407				  -	      sta	DLLMEM+DBOFFSET+3
   4081  f407					      endif		; DOUBLEBUFFER
   4082  f407
   4083  f407				   skippaladjust
   4084  f407
   4085  f407							; save the DL markers...
   4086  f407		       a9 09		      lda	#(DLLLUTVISSTART-DLLLUT)
   4087  f409		       8d 3c 21 	      sta	visibleDLLstart
   4088  f40c		       a9 2d		      lda	#(DLLLUTNONVISSTART-DLLLUT)
   4089  f40e		       8d 3d 21 	      sta	overscanDLLstart
   4090  f411		       60		      rts
   4091  f412
   4092  f412							; N.B. max DLL length is 112 bytes (for double-buffered)
   4093  f412
   4094  f412				   DLLLUT
   4095  f412					      if	WSCREENHEIGHT = 192
   4096  f412		       4f 21 00 	      .byte.b	($0F|(WZONEHEIGHT*4)),$21,$00	; 16 blank lines
   4097  f415		       47 21 00 	      .byte.b	($07|(WZONEHEIGHT*4)),$21,$00	;  8 blank lines
   4098  f418		       40 21 00 	      .byte.b	($00|(WZONEHEIGHT*4)),$21,$00	;  1 blank lines
   4099  f41b							;=25 blank lines
   4100  f41b					      endif		; WSCREENHEIGHT = 192
   4101  f41b				  -	      if	WSCREENHEIGHT = 208
   4102  f41b				  -	      .byte	($0E|(WZONEHEIGHT*4)),$21,$00	; 15 blank lines
   4103  f41b				  -	      .byte	($00|(WZONEHEIGHT*4)),$21,$00	;  1 blank lines
   4104  f41b				  -	      .byte	($00|(WZONEHEIGHT*4)),$21,$00	;  1 blank lines
   4105  f41b				  -			;=17 blank lines
   4106  f41b					      endif		; WSCREENHEIGHT = 208
   4107  f41b				  -	      if	WSCREENHEIGHT = 224
   4108  f41b				  -	      .byte	($06|(WZONEHEIGHT*4)),$21,$00	;  7 blank lines
   4109  f41b				  -	      .byte	($00|(WZONEHEIGHT*4)),$21,$00	;  1 blank lines
   4110  f41b				  -	      .byte	($00|(WZONEHEIGHT*4)),$21,$00	;  1 blank lines
   4111  f41b				  -			;= 9 blank lines
   4112  f41b					      endif		; WSCREENHEIGHT = 224
   4113  f41b
   4114  f41b				   DLLLUTVISSTART
   4115  f41b		       cf 18 80 	      .byte.b	($80|(WZONEHEIGHT*4)|(WZONEHEIGHT-1)),>ZONE0ADDRESS,<ZONE0ADDRESS
   4116  f41e							;	 ^--NMI 1: start of visible
   4117  f41e		       4f 19 20 	      .byte.b	($00|(WZONEHEIGHT*4)|(WZONEHEIGHT-1)),>ZONE1ADDRESS,<ZONE1ADDRESS
   4118  f421		       4f 19 c0 	      .byte.b	($00|(WZONEHEIGHT*4)|(WZONEHEIGHT-1)),>ZONE2ADDRESS,<ZONE2ADDRESS
   4119  f424		       4f 1a 60 	      .byte.b	($00|(WZONEHEIGHT*4)|(WZONEHEIGHT-1)),>ZONE3ADDRESS,<ZONE3ADDRESS
   4120  f427		       4f 1b 00 	      .byte.b	($00|(WZONEHEIGHT*4)|(WZONEHEIGHT-1)),>ZONE4ADDRESS,<ZONE4ADDRESS
   4121  f42a		       4f 1b a0 	      .byte.b	($00|(WZONEHEIGHT*4)|(WZONEHEIGHT-1)),>ZONE5ADDRESS,<ZONE5ADDRESS
   4122  f42d		       4f 1c 40 	      .byte.b	($00|(WZONEHEIGHT*4)|(WZONEHEIGHT-1)),>ZONE6ADDRESS,<ZONE6ADDRESS
   4123  f430		       4f 1c e0 	      .byte.b	($00|(WZONEHEIGHT*4)|(WZONEHEIGHT-1)),>ZONE7ADDRESS,<ZONE7ADDRESS
   4124  f433		       4f 1d 80 	      .byte.b	($00|(WZONEHEIGHT*4)|(WZONEHEIGHT-1)),>ZONE8ADDRESS,<ZONE8ADDRESS
   4125  f436		       4f 1e 20 	      .byte.b	($00|(WZONEHEIGHT*4)|(WZONEHEIGHT-1)),>ZONE9ADDRESS,<ZONE9ADDRESS
   4126  f439		       4f 1e c0 	      .byte.b	($00|(WZONEHEIGHT*4)|(WZONEHEIGHT-1)),>ZONE10ADDRESS,<ZONE10ADDRESS
   4127  f43c		       4f 1f 60 	      .byte.b	($00|(WZONEHEIGHT*4)|(WZONEHEIGHT-1)),>ZONE11ADDRESS,<ZONE11ADDRESS
   4128  f43f				  -	      ifconst	ZONE12ADDRESS
   4129  f43f				  -	      .byte	($00|(WZONEHEIGHT*4)|(WZONEHEIGHT-1)),>ZONE12ADDRESS,<ZONE12ADDRESS
   4130  f43f					      endif
   4131  f43f				  -	      ifconst	ZONE13ADDRESS
   4132  f43f				  -	      .byte	($00|(WZONEHEIGHT*4)|(WZONEHEIGHT-1)),>ZONE13ADDRESS,<ZONE13ADDRESS
   4133  f43f					      endif
   4134  f43f				  -	      ifconst	ZONE14ADDRESS
   4135  f43f				  -	      .byte	($00|(WZONEHEIGHT*4)|(WZONEHEIGHT-1)),>ZONE14ADDRESS,<ZONE14ADDRESS
   4136  f43f					      endif
   4137  f43f				  -	      ifconst	ZONE15ADDRESS
   4138  f43f				  -	      .byte	($00|(WZONEHEIGHT*4)|(WZONEHEIGHT-1)),>ZONE15ADDRESS,<ZONE15ADDRESS
   4139  f43f					      endif
   4140  f43f				  -	      ifconst	ZONE16ADDRESS
   4141  f43f				  -	      .byte	($00|(WZONEHEIGHT*4)|(WZONEHEIGHT-1)),>ZONE16ADDRESS,<ZONE16ADDRESS
   4142  f43f					      endif
   4143  f43f				  -	      ifconst	ZONE17ADDRESS
   4144  f43f				  -	      .byte	($00|(WZONEHEIGHT*4)|(WZONEHEIGHT-1)),>ZONE17ADDRESS,<ZONE17ADDRESS
   4145  f43f					      endif
   4146  f43f				  -	      ifconst	ZONE18ADDRESS
   4147  f43f				  -	      .byte	($00|(WZONEHEIGHT*4)|(WZONEHEIGHT-1)),>ZONE18ADDRESS,<ZONE18ADDRESS
   4148  f43f					      endif
   4149  f43f				  -	      ifconst	ZONE19ADDRESS
   4150  f43f				  -	      .byte	($00|(WZONEHEIGHT*4)|(WZONEHEIGHT-1)),>ZONE19ADDRESS,<ZONE19ADDRESS
   4151  f43f					      endif
   4152  f43f				  -	      ifconst	ZONE20ADDRESS
   4153  f43f				  -	      .byte	($00|(WZONEHEIGHT*4)|(WZONEHEIGHT-1)),>ZONE20ADDRESS,<ZONE20ADDRESS
   4154  f43f					      endif
   4155  f43f				  -	      ifconst	ZONE21ADDRESS
   4156  f43f				  -	      .byte	($00|(WZONEHEIGHT*4)|(WZONEHEIGHT-1)),>ZONE21ADDRESS,<ZONE21ADDRESS
   4157  f43f					      endif
   4158  f43f				  -	      ifconst	ZONE22ADDRESS
   4159  f43f				  -	      .byte	($00|(WZONEHEIGHT*4)|(WZONEHEIGHT-1)),>ZONE22ADDRESS,<ZONE22ADDRESS
   4160  f43f					      endif
   4161  f43f				  -	      ifconst	ZONE23ADDRESS
   4162  f43f				  -	      .byte	($00|(WZONEHEIGHT*4)|(WZONEHEIGHT-1)),>ZONE23ADDRESS,<ZONE23ADDRESS
   4163  f43f					      endif
   4164  f43f				  -	      ifconst	ZONE24ADDRESS
   4165  f43f				  -	      .byte	($00|(WZONEHEIGHT*4)|(WZONEHEIGHT-1)),>ZONE24ADDRESS,<ZONE24ADDRESS
   4166  f43f					      endif
   4167  f43f				  -	      ifconst	ZONE25ADDRESS
   4168  f43f				  -	      .byte	($00|(WZONEHEIGHT*4)|(WZONEHEIGHT-1)),>ZONE25ADDRESS,<ZONE25ADDRESS
   4169  f43f					      endif
   4170  f43f				  -	      ifconst	ZONE26ADDRESS
   4171  f43f				  -	      .byte	($00|(WZONEHEIGHT*4)|(WZONEHEIGHT-1)),>ZONE26ADDRESS,<ZONE26ADDRESS
   4172  f43f					      endif
   4173  f43f				  -	      ifconst	ZONE27ADDRESS
   4174  f43f				  -	      .byte	($00|(WZONEHEIGHT*4)|(WZONEHEIGHT-1)),>ZONE27ADDRESS,<ZONE27ADDRESS
   4175  f43f					      endif
   4176  f43f				   DLLLUTNONVISSTART
   4177  f43f		       c3 21 00 	      .byte.b	($83|(WZONEHEIGHT*4)),$21,$00	;  4 blank lines
   4178  f442							;	 ^--NMI 2: start of non-visible
   4179  f442		       cf 21 00 	      .byte.b	($8F|(WZONEHEIGHT*4)),$21,$00	; 16 blank lines
   4180  f445							;	 ^--NMI 3: start of overscan
   4181  f445		       4f 21 00 	      .byte.b	($0F|(WZONEHEIGHT*4)),$21,$00	; 16 blank lines
   4182  f448		       4f 21 00 	      .byte.b	($0F|(WZONEHEIGHT*4)),$21,$00	; 16 blank lines
   4183  f44b		       4f 21 00 	      .byte.b	($0F|(WZONEHEIGHT*4)),$21,$00	; 16 blank lines
   4184  f44e				   DLLLUTEND
   4185  f44e							;echo "DLL size: ",[(DLLLUTEND-DLLLUT)]d,"bytes"
   4186  f44e							;echo "DLL code size: ",[(DLLLUTEND-createallgamedlls)]d,"bytes"
   4187  f44e
   4188  f44e				   waitforvblankstart
   4189  f44e				   vblankendwait
   4190  f44e		       24 28		      BIT	MSTAT
   4191  f450		       30 fc		      bmi	vblankendwait
   4192  f452				   vblankstartwait
   4193  f452		       24 28		      BIT	MSTAT
   4194  f454		       10 fc		      bpl	vblankstartwait
   4195  f456		       60		      rts
   4196  f457
   4197  f457				  -	      ifconst	DOUBLEBUFFER
   4198  f457				  -flipdisplaybufferreturn
   4199  f457				  -	      rts
   4200  f457				  -flipdisplaybuffer
   4201  f457				  -	      ifconst	interrupthold
   4202  f457				  -	      lda	#$FF
   4203  f457				  -	      sta	interrupthold
   4204  f457				  -	      endif
   4205  f457				  -	      lda	doublebufferstate
   4206  f457				  -	      beq	flipdisplaybufferreturn	; exit if we're not in double-buffer
   4207  f457				  -
   4208  f457				  -	      jsr	terminatedisplaybuffer	; terminate the working buffer before we flip
   4209  f457				  -
   4210  f457				  -			; ensure we don't flip mid-display. otherwise the displayed DL will be the one the game is working on.
   4211  f457				  -
   4212  f457				  -flipdisplaybufferwait1
   4213  f457				  -	      lda	visibleover
   4214  f457				  -	      beq	flipdisplaybufferwait1
   4215  f457				  -
   4216  f457				  -flipdisplaybufferwait
   4217  f457				  -	      lda	visibleover
   4218  f457				  -	      bne	flipdisplaybufferwait
   4219  f457				  -
   4220  f457				  -quickbufferflip
   4221  f457				  -	      lda	doublebufferstate
   4222  f457				  -	      lsr		; /2, so we'll see 0 or 1, rather than 1 or 3
   4223  f457				  -	      tax
   4224  f457				  -
   4225  f457				  -	      lda	doublebufferminimumframetarget
   4226  f457				  -	      beq	skipminimumframecode
   4227  f457				  -	      lda	doublebufferminimumframeindex
   4228  f457				  -	      bne	flipdisplaybufferwait1
   4229  f457				  -	      lda	doublebufferminimumframetarget
   4230  f457				  -	      sta	doublebufferminimumframeindex
   4231  f457				  -skipminimumframecode
   4232  f457				  -
   4233  f457				  -	      lda	DLLMEMLutHi,x
   4234  f457				  -	      sta	DPPH
   4235  f457				  -	      lda	DLLMEMLutLo,x
   4236  f457				  -	      sta	DPPL
   4237  f457				  -
   4238  f457				  -	      lda	NewPageflipstate,x
   4239  f457				  -	      sta	doublebufferstate
   4240  f457				  -	      lda	NewPageflipoffset,x
   4241  f457				  -	      sta	doublebufferdloffset
   4242  f457				  -
   4243  f457				  -	      ifnconst	BANKSET_DL_IN_CARTRAM
   4244  f457				  -	      lda	doublebufferbufferdirty
   4245  f457				  -	      beq	flipdisplaybufferreturn
   4246  f457				  -
   4247  f457				  -			; The doublebuffer buffer is dirty, so the game code must have issued a savescreen recently.
   4248  f457				  -			; To make savescreen work with the new working buffer, we need to copy over the saved objects
   4249  f457				  -			; from the displayed buffer to the working buffer...
   4250  f457				  -
   4251  f457				  -	      lda	doublebufferdloffset
   4252  f457				  -	      eor	#DOUBLEBUFFEROFFSET
   4253  f457				  -	      sta	temp6	; make temp6 the anti-doublebufferdloffset variable
   4254  f457				  -
   4255  f457				  -	      ldx	#(WZONECOUNT-1)
   4256  f457				  -copybufferzoneloop
   4257  f457				  -
   4258  f457				  -	      lda	DLPOINTL,x
   4259  f457				  -	      clc
   4260  f457				  -	      adc	doublebufferdloffset
   4261  f457				  -	      sta	temp1
   4262  f457				  -	      lda	DLPOINTH,x
   4263  f457				  -	      adc	#0
   4264  f457				  -	      sta	temp2
   4265  f457				  -
   4266  f457				  -	      lda	DLPOINTL,x
   4267  f457				  -	      clc
   4268  f457				  -	      adc	temp6
   4269  f457				  -	      sta	temp3
   4270  f457				  -	      lda	DLPOINTH,x
   4271  f457				  -	      adc	#0
   4272  f457				  -	      sta	temp4
   4273  f457				  -
   4274  f457				  -	      lda	dlendsave,x
   4275  f457				  -	      tay
   4276  f457				  -copybuffercharsloop
   4277  f457				  -	      lda	(temp3),y
   4278  f457				  -	      sta	(temp1),y
   4279  f457				  -	      dey
   4280  f457				  -	      bpl	copybuffercharsloop
   4281  f457				  -	      dex
   4282  f457				  -	      bpl	copybufferzoneloop
   4283  f457				  -	      lda	#0
   4284  f457				  -	      sta	doublebufferbufferdirty
   4285  f457				  -	      endif		; ! BANKSET_DL_IN_CARTRAM
   4286  f457				  -	      rts
   4287  f457				  -
   4288  f457				  -doublebufferoff
   4289  f457				  -	      lda	#1
   4290  f457				  -	      sta	doublebufferstate
   4291  f457				  -	      jsr	flipdisplaybuffer
   4292  f457				  -	      lda	#0
   4293  f457				  -	      sta	doublebufferstate
   4294  f457				  -	      sta	doublebufferdloffset
   4295  f457				  -	      rts
   4296  f457				  -
   4297  f457				  -DLLMEMLutLo
   4298  f457				  -	      .byte	<DLLMEM,<(DLLMEM+DBOFFSET)
   4299  f457				  -DLLMEMLutHi
   4300  f457				  -	      .byte	>DLLMEM,>(DLLMEM+DBOFFSET)
   4301  f457				  -NewPageflipstate
   4302  f457				  -	      .byte	3,1
   4303  f457				  -NewPageflipoffset
   4304  f457				  -	      .byte	DOUBLEBUFFEROFFSET,0
   4305  f457				  -
   4306  f457					      endif		; DOUBLEBUFFER
   4307  f457
   4308  f457				  -	      ifconst	MOUSESUPPORT
   4309  f457				  -
   4310  f457				  -rotationalcompare
   4311  f457				  -			; old = 00 01 10 11
   4312  f457				  -	      .byte	$00, $01, $ff, $00	; new=00
   4313  f457				  -	      .byte	$ff, $00, $00, $01	; new=01
   4314  f457				  -	      .byte	$01, $00, $00, $ff	; new=10
   4315  f457				  -	      .byte	$00, $ff, $01, $00	; new=11
   4316  f457				  -
   4317  f457				  -			; 0000YyXx st mouse
   4318  f457				  -
   4319  f457				  -			; 0000xyXY amiga mouse
   4320  f457				  -
   4321  f457				  -	      ifconst	MOUSEXONLY
   4322  f457				  -amigatoataribits		; swap bits 1 and 4...
   4323  f457				  -	      .byte	%0000, %0000, %0010, %0010
   4324  f457				  -	      .byte	%0000, %0000, %0010, %0010
   4325  f457				  -	      .byte	%0001, %0001, %0011, %0011
   4326  f457				  -	      .byte	%0001, %0001, %0011, %0011
   4327  f457				  -
   4328  f457				  -			; null change bits
   4329  f457				  -	      .byte	%0000, %0001, %0010, %0011
   4330  f457				  -	      .byte	%0000, %0001, %0010, %0011
   4331  f457				  -	      .byte	%0000, %0001, %0010, %0011
   4332  f457				  -	      .byte	%0000, %0001, %0010, %0011
   4333  f457				  -
   4334  f457				  -	      else		; !MOUSEXONLY
   4335  f457				  -
   4336  f457				  -amigatoataribits		; swap bits 1 and 4...
   4337  f457				  -	      .byte	%0000, %1000, %0010, %1010
   4338  f457				  -	      .byte	%0100, %1100, %0110, %1110
   4339  f457				  -	      .byte	%0001, %1001, %0011, %1011
   4340  f457				  -	      .byte	%0101, %1101, %0111, %1111
   4341  f457				  -			; null change bits
   4342  f457				  -	      .byte	%0000, %0001, %0010, %0011
   4343  f457				  -	      .byte	%0100, %0101, %0110, %0111
   4344  f457				  -	      .byte	%1000, %1001, %1010, %1011
   4345  f457				  -	      .byte	%1100, %1101, %1110, %1111
   4346  f457				  -	      endif		; !MOUSEXONLY
   4347  f457				  -
   4348  f457					      endif		; MOUSESUPPORT
   4349  f457
   4350  f457				   mouse0update
   4351  f457				  -	      ifconst	MOUSE0SUPPORT
   4352  f457				  -
   4353  f457				  -mousetableselect =	inttemp2
   4354  f457				  -mousexdelta =	inttemp3
   4355  f457				  -mouseydelta =	inttemp4
   4356  f457				  -lastSWCHA  =	inttemp6
   4357  f457				  -
   4358  f457				  -			; 0000YyXx st mouse
   4359  f457				  -			; 0000xyXY amiga mouse
   4360  f457				  -
   4361  f457				  -	      lda	#$ff
   4362  f457				  -	      sta	lastSWCHA
   4363  f457				  -
   4364  f457				  -	      ldy	port0control
   4365  f457				  -
   4366  f457				  -	      lda	#%00010000
   4367  f457				  -	      cpy	#9	; AMIGA?
   4368  f457				  -	      bne	skipamigabitsfix0
   4369  f457				  -	      lda	#0
   4370  f457				  -skipamigabitsfix0
   4371  f457				  -	      sta	mousetableselect
   4372  f457				  -	      ifconst	DRIVINGBOOST
   4373  f457				  -	      cpy	#6	; DRIVING?
   4374  f457				  -	      bne	skipdriving0setup
   4375  f457				  -			; swap mousex0 and mousey0. mousex seen by the 7800basic program
   4376  f457				  -			; trails the actual mousex0, so we can smoothly interpolate toward
   4377  f457				  -			; the actual position. This actual position is stored in mousey0
   4378  f457				  -			; after the driver has run.
   4379  f457				  -	      ldx	mousex0
   4380  f457				  -	      lda	mousey0
   4381  f457				  -	      stx	mousey0
   4382  f457				  -	      sta	mousex0
   4383  f457				  -skipdriving0setup
   4384  f457				  -	      endif		; DRIVINGBOOST
   4385  f457				  -
   4386  f457				  -	      lda	#0
   4387  f457				  -	      sta	mousexdelta
   4388  f457				  -	      sta	mouseydelta
   4389  f457				  -
   4390  f457				  -	      ifnconst	MOUSETIME
   4391  f457				  -	      ifnconst	MOUSEXONLY
   4392  f457				  -	      lda	#180	; minimum for x+y
   4393  f457				  -	      else
   4394  f457				  -	      lda	#100	; minimum for just x
   4395  f457				  -	      endif
   4396  f457				  -	      else
   4397  f457				  -	      lda	#MOUSETIME
   4398  f457				  -	      endif
   4399  f457				  -	      jsr	SETTIM64T	; INTIM is in Y
   4400  f457				  -
   4401  f457				  -mouse0updateloop
   4402  f457				  -	      lda	SWCHA
   4403  f457				  -	      asr	#%11110000	; Undocumented. A = A & #IMM, then LSR A.
   4404  f457				  -	      cmp	lastSWCHA
   4405  f457				  -	      beq	mouse0loopcondition
   4406  f457				  -	      sta	lastSWCHA
   4407  f457				  -	      lsr
   4408  f457				  -	      lsr
   4409  f457				  -	      lsr
   4410  f457				  -
   4411  f457				  -	      ora	mousetableselect	; atari/amiga decoding table selection
   4412  f457				  -
   4413  f457				  -			; st mice encode on different bits/joystick-lines than amiga mice...
   4414  f457				  -			; 0000YyXx st mouse
   4415  f457				  -			; 0000xyXY amiga mouse
   4416  f457				  -			; ...so can shuffle the amiga bits to reuse the st driver.
   4417  f457				  -	      tay
   4418  f457				  -	      lax	amigatoataribits,y
   4419  f457				  -
   4420  f457				  -	      ifnconst	MOUSEXONLY
   4421  f457				  -			; first the Y...
   4422  f457				  -	      and	#%00001100
   4423  f457				  -	      ora	mousecodey0
   4424  f457				  -	      tay
   4425  f457				  -	      lda	rotationalcompare,y
   4426  f457				  -	      clc
   4427  f457				  -	      adc	mouseydelta
   4428  f457				  -	      sta	mouseydelta
   4429  f457				  -	      tya
   4430  f457				  -	      lsr
   4431  f457				  -	      lsr
   4432  f457				  -	      sta	mousecodey0
   4433  f457				  -	      txa
   4434  f457				  -			; ...then the X...
   4435  f457				  -	      and	#%00000011
   4436  f457				  -	      tax
   4437  f457				  -	      endif		; !MOUSEXONLY
   4438  f457				  -
   4439  f457				  -	      asl
   4440  f457				  -	      asl
   4441  f457				  -	      ora	mousecodex0
   4442  f457				  -	      tay
   4443  f457				  -	      lda	rotationalcompare,y
   4444  f457				  -	      adc	mousexdelta	; carry was clear by previous ASL
   4445  f457				  -	      sta	mousexdelta
   4446  f457				  -	      stx	mousecodex0
   4447  f457				  -mouse0loopcondition
   4448  f457				  -	      lda	TIMINT
   4449  f457				  -	      bpl	mouse0updateloop
   4450  f457				  -
   4451  f457				  -			; *** adapt to selected device resolution.
   4452  f457				  -	      ldx	port0control
   4453  f457				  -
   4454  f457				  -	      ifconst	PRECISIONMOUSING
   4455  f457				  -	      ldy	port0resolution
   4456  f457				  -	      bne	mouse0halveddone
   4457  f457				  -	      cpx	#6	; half-resolution is no good for driving wheels
   4458  f457				  -	      beq	mouse0halveddone
   4459  f457				  -			; resolution=0 is half mouse resolution, necessary for precision
   4460  f457				  -			; mousing on a 160x240 screen with a 1000 dpi mouse.
   4461  f457				  -
   4462  f457				  -	      lda	mousexdelta
   4463  f457				  -	      cmp	#$80
   4464  f457				  -	      ror		; do a signed divide by 2.
   4465  f457				  -	      clc
   4466  f457				  -	      adc	mousex0
   4467  f457				  -	      sta	mousex0
   4468  f457				  -	      ifnconst	MOUSEXONLY
   4469  f457				  -	      lda	mouseydelta
   4470  f457				  -	      clc
   4471  f457				  -	      adc	mousey0
   4472  f457				  -	      sta	mousey0
   4473  f457				  -	      endif
   4474  f457				  -			; at half resolution we just exit after updating x and y
   4475  f457				  -	      jmp	LLRET0
   4476  f457				  -mouse0halveddone
   4477  f457				  -	      endif		; PRECISIONMOUSING
   4478  f457				  -
   4479  f457				  -	      ifnconst	MOUSEXONLY
   4480  f457				  -	      asl	mouseydelta	; *2 because Y resolution is finer
   4481  f457				  -	      ldy	port0resolution
   4482  f457				  -	      dey
   4483  f457				  -	      lda	#0
   4484  f457				  -mousey0resolutionfix
   4485  f457				  -	      clc
   4486  f457				  -	      adc	mouseydelta
   4487  f457				  -	      dey
   4488  f457				  -	      bpl	mousey0resolutionfix
   4489  f457				  -	      clc
   4490  f457				  -	      adc	mousey0
   4491  f457				  -	      sta	mousey0
   4492  f457				  -	      endif		; MOUSEXONLY
   4493  f457				  -
   4494  f457				  -	      ldy	port0resolution
   4495  f457				  -	      dey
   4496  f457				  -	      lda	#0
   4497  f457				  -mousex0resolutionfix
   4498  f457				  -	      clc
   4499  f457				  -	      adc	mousexdelta
   4500  f457				  -	      dey
   4501  f457				  -	      bpl	mousex0resolutionfix
   4502  f457				  -	      ifnconst	DRIVINGBOOST
   4503  f457				  -	      clc
   4504  f457				  -	      adc	mousex0
   4505  f457				  -	      sta	mousex0
   4506  f457				  -	      else
   4507  f457				  -	      cpx	#6
   4508  f457				  -	      beq	carryonmouse0boost
   4509  f457				  -	      clc
   4510  f457				  -	      adc	mousex0
   4511  f457				  -	      sta	mousex0
   4512  f457				  -	      jmp	LLRET0
   4513  f457				  -carryonmouse0boost
   4514  f457				  -	      sta	mousexdelta
   4515  f457				  -	      clc
   4516  f457				  -	      adc	mousecodey0
   4517  f457				  -	      sta	mousecodey0
   4518  f457				  -	      clc
   4519  f457				  -	      adc	mousex0
   4520  f457				  -	      tay		; save the target X
   4521  f457				  -	      adc	mousey0	; average in the smoothly-trailing X
   4522  f457				  -	      ror
   4523  f457				  -	      sta	mousex0	; mousex0 now has the smoothly trailing X
   4524  f457				  -	      sty	mousey0	; and mousey0 has the the target X
   4525  f457				  -
   4526  f457				  -			; check to see if the coordinate wrapped. If so, undo the averaging code.
   4527  f457				  -			; A has mousex0, the smoothly trailing X
   4528  f457				  -	      sbc	mousey0	; less the target X
   4529  f457				  -	      bpl	skipabsolutedrive0
   4530  f457				  -	      eor	#$ff
   4531  f457				  -skipabsolutedrive0
   4532  f457				  -	      cmp	#64	; just an unreasonably large change
   4533  f457				  -	      bcc	skipdrivewrapfix0
   4534  f457				  -	      sty	mousex0	; if X wrapped, we catch the trailing X up to the target X
   4535  f457				  -skipdrivewrapfix0
   4536  f457				  -
   4537  f457				  -			; get rid of the tweening if the distance travelled was very small
   4538  f457				  -	      lda	mousexdelta
   4539  f457				  -	      cmp	port0resolution
   4540  f457				  -	      bcs	skipbetweenfix0
   4541  f457				  -	      lda	mousex0
   4542  f457				  -	      sta	mousey0
   4543  f457				  -skipbetweenfix0
   4544  f457				  -
   4545  f457				  -drivingboostreductioncheck0
   4546  f457				  -			; The below code amounts to mousecodey0=mousecodey0-(mousecodey0/8)
   4547  f457				  -			; +ve mousecodey0 is converted to -ve to do the calculation, and then
   4548  f457				  -			; negated again because truncation during BCD math results in
   4549  f457				  -			; differing magnitudes, depending if the value is +ve or -ve.
   4550  f457				  -driving0fix
   4551  f457				  -	      lax	mousecodey0
   4552  f457				  -	      cmp	#$80
   4553  f457				  -	      bcs	driving0skipnegate1
   4554  f457				  -	      eor	#$FF
   4555  f457				  -	      adc	#1
   4556  f457				  -	      sta	mousecodey0
   4557  f457				  -driving0skipnegate1
   4558  f457				  -	      cmp	#$80
   4559  f457				  -	      ror
   4560  f457				  -	      cmp	#$80
   4561  f457				  -	      ror
   4562  f457				  -	      cmp	#$80
   4563  f457				  -	      ror
   4564  f457				  -	      sta	inttemp1
   4565  f457				  -	      lda	mousecodey0
   4566  f457				  -	      sec
   4567  f457				  -	      sbc	inttemp1
   4568  f457				  -	      cpx	#$80
   4569  f457				  -	      bcs	driving0skipnegate2
   4570  f457				  -	      eor	#$FF
   4571  f457				  -	      adc	#1
   4572  f457				  -driving0skipnegate2
   4573  f457				  -	      sta	mousecodey0
   4574  f457				  -drivingboostdone0
   4575  f457				  -	      endif		; DRIVINGBOOST
   4576  f457				  -
   4577  f457				  -	      jmp	LLRET0
   4578  f457				  -
   4579  f457					      endif		; MOUSE0SUPPORT
   4580  f457
   4581  f457				   mouse1update
   4582  f457				  -	      ifconst	MOUSE1SUPPORT
   4583  f457				  -
   4584  f457				  -mousetableselect =	inttemp2
   4585  f457				  -mousexdelta =	inttemp3
   4586  f457				  -mouseydelta =	inttemp4
   4587  f457				  -lastSWCHA  =	inttemp6
   4588  f457				  -
   4589  f457				  -			; 0000YyXx st mouse
   4590  f457				  -			; 0000xyXY amiga mouse
   4591  f457				  -
   4592  f457				  -	      lda	#$ff
   4593  f457				  -	      sta	lastSWCHA
   4594  f457				  -
   4595  f457				  -	      ldy	port1control
   4596  f457				  -
   4597  f457				  -	      lda	#%00010000
   4598  f457				  -	      cpy	#9	; AMIGA?
   4599  f457				  -	      bne	skipamigabitsfix1
   4600  f457				  -	      lda	#0
   4601  f457				  -skipamigabitsfix1
   4602  f457				  -	      sta	mousetableselect
   4603  f457				  -	      ifconst	DRIVINGBOOST
   4604  f457				  -	      cpy	#6	; DRIVING?
   4605  f457				  -	      bne	skipdriving1setup
   4606  f457				  -			; swap mousex1 and mousey1. mousex seen by the 7800basic program
   4607  f457				  -			; trails the actual mousex1, so we can smoothly interpolate toward
   4608  f457				  -			; the actual position. This actual position is stored in mousey1
   4609  f457				  -			; after the driver has run.
   4610  f457				  -	      ldx	mousex1
   4611  f457				  -	      lda	mousey1
   4612  f457				  -	      stx	mousey1
   4613  f457				  -	      sta	mousex1
   4614  f457				  -skipdriving1setup
   4615  f457				  -	      endif		; DRIVINGBOOST
   4616  f457				  -
   4617  f457				  -	      lda	#0
   4618  f457				  -	      sta	mousexdelta
   4619  f457				  -	      sta	mouseydelta
   4620  f457				  -
   4621  f457				  -	      ifnconst	MOUSETIME
   4622  f457				  -	      ifnconst	MOUSEXONLY
   4623  f457				  -	      lda	#180	; minimum for x+y
   4624  f457				  -	      else
   4625  f457				  -	      lda	#100	; minimum for just x
   4626  f457				  -	      endif
   4627  f457				  -	      else
   4628  f457				  -	      lda	#MOUSETIME
   4629  f457				  -	      endif
   4630  f457				  -	      jsr	SETTIM64T	; INTIM is in Y
   4631  f457				  -
   4632  f457				  -mouse1updateloop
   4633  f457				  -	      lda	SWCHA
   4634  f457				  -	      and	#%00001111
   4635  f457				  -	      cmp	lastSWCHA
   4636  f457				  -	      beq	mouse1loopcondition
   4637  f457				  -	      sta	lastSWCHA
   4638  f457				  -
   4639  f457				  -	      ora	mousetableselect	; atari/amiga decoding table selection
   4640  f457				  -
   4641  f457				  -			; st mice encode on different bits/joystick-lines than amiga mice...
   4642  f457				  -			; 0000YyXx st mouse
   4643  f457				  -			; 0000xyXY amiga mouse
   4644  f457				  -			; ...so can shuffle the amiga bits to reuse the st driver.
   4645  f457				  -	      tay
   4646  f457				  -	      lax	amigatoataribits,y
   4647  f457				  -
   4648  f457				  -	      ifnconst	MOUSEXONLY
   4649  f457				  -			; first the Y...
   4650  f457				  -	      and	#%00001100
   4651  f457				  -	      ora	mousecodey1
   4652  f457				  -	      tay
   4653  f457				  -	      lda	rotationalcompare,y
   4654  f457				  -	      clc
   4655  f457				  -	      adc	mouseydelta
   4656  f457				  -	      sta	mouseydelta
   4657  f457				  -	      tya
   4658  f457				  -	      lsr
   4659  f457				  -	      lsr
   4660  f457				  -	      sta	mousecodey1
   4661  f457				  -	      txa
   4662  f457				  -			; ...then the X...
   4663  f457				  -	      and	#%00000011
   4664  f457				  -	      tax
   4665  f457				  -	      endif		; !MOUSEXONLY
   4666  f457				  -
   4667  f457				  -	      asl
   4668  f457				  -	      asl
   4669  f457				  -	      ora	mousecodex1
   4670  f457				  -	      tay
   4671  f457				  -	      lda	rotationalcompare,y
   4672  f457				  -	      adc	mousexdelta	; carry was clear by previous ASL
   4673  f457				  -	      sta	mousexdelta
   4674  f457				  -	      stx	mousecodex1
   4675  f457				  -mouse1loopcondition
   4676  f457				  -	      lda	TIMINT
   4677  f457				  -	      bpl	mouse1updateloop
   4678  f457				  -
   4679  f457				  -			; *** adapt to selected device resolution.
   4680  f457				  -	      ldx	port1control
   4681  f457				  -
   4682  f457				  -	      ifconst	PRECISIONMOUSING
   4683  f457				  -	      ldy	port1resolution
   4684  f457				  -	      bne	mouse1halveddone
   4685  f457				  -	      cpx	#6	; half-resolution is no good for driving wheels
   4686  f457				  -	      beq	mouse1halveddone
   4687  f457				  -			; resolution=0 is half mouse resolution, necessary for precision
   4688  f457				  -			; mousing on a 160x240 screen with a 1000 dpi mouse.
   4689  f457				  -
   4690  f457				  -	      lda	mousexdelta
   4691  f457				  -	      cmp	#$80
   4692  f457				  -	      ror		; do a signed divide by 2.
   4693  f457				  -	      clc
   4694  f457				  -	      adc	mousex1
   4695  f457				  -	      sta	mousex1
   4696  f457				  -	      ifnconst	MOUSEXONLY
   4697  f457				  -	      lda	mouseydelta
   4698  f457				  -	      clc
   4699  f457				  -	      adc	mousey1
   4700  f457				  -	      sta	mousey1
   4701  f457				  -	      endif
   4702  f457				  -			; at half resolution we just exit after updating x and y
   4703  f457				  -	      jmp	LLRET1
   4704  f457				  -mouse1halveddone
   4705  f457				  -	      endif		; PRECISIONMOUSING
   4706  f457				  -
   4707  f457				  -	      ifnconst	MOUSEXONLY
   4708  f457				  -	      asl	mouseydelta	; *2 because Y resolution is finer
   4709  f457				  -	      ldy	port1resolution
   4710  f457				  -	      dey
   4711  f457				  -	      lda	#0
   4712  f457				  -mousey1resolutionfix
   4713  f457				  -	      clc
   4714  f457				  -	      adc	mouseydelta
   4715  f457				  -	      dey
   4716  f457				  -	      bpl	mousey1resolutionfix
   4717  f457				  -	      clc
   4718  f457				  -	      adc	mousey1
   4719  f457				  -	      sta	mousey1
   4720  f457				  -	      endif		; MOUSEXONLY
   4721  f457				  -
   4722  f457				  -	      ldy	port1resolution
   4723  f457				  -	      dey
   4724  f457				  -	      lda	#0
   4725  f457				  -mousex1resolutionfix
   4726  f457				  -	      clc
   4727  f457				  -	      adc	mousexdelta
   4728  f457				  -	      dey
   4729  f457				  -	      bpl	mousex1resolutionfix
   4730  f457				  -	      ifnconst	DRIVINGBOOST
   4731  f457				  -	      clc
   4732  f457				  -	      adc	mousex1
   4733  f457				  -	      sta	mousex1
   4734  f457				  -	      else
   4735  f457				  -	      cpx	#6
   4736  f457				  -	      beq	carryonmouse1boost
   4737  f457				  -	      clc
   4738  f457				  -	      adc	mousex1
   4739  f457				  -	      sta	mousex1
   4740  f457				  -	      jmp	LLRET1
   4741  f457				  -carryonmouse1boost
   4742  f457				  -	      sta	mousexdelta
   4743  f457				  -	      clc
   4744  f457				  -	      adc	mousecodey1
   4745  f457				  -	      sta	mousecodey1
   4746  f457				  -	      clc
   4747  f457				  -	      adc	mousex1
   4748  f457				  -	      tay		; save the target X
   4749  f457				  -	      adc	mousey1	; average in the smoothly-trailing X
   4750  f457				  -	      ror
   4751  f457				  -	      sta	mousex1	; mousex0 now has the smoothly trailing X
   4752  f457				  -	      sty	mousey1	; and mousey0 has the the target X
   4753  f457				  -
   4754  f457				  -			; check to see if the coordinate wrapped. If so, undo the averaging code.
   4755  f457				  -			; A has mousex1, the smoothly trailing X
   4756  f457				  -	      sbc	mousey1	; less the target X
   4757  f457				  -	      bpl	skipabsolutedrive1
   4758  f457				  -	      eor	#$ff
   4759  f457				  -skipabsolutedrive1
   4760  f457				  -	      cmp	#64	; just an unreasonably large change
   4761  f457				  -	      bcc	skipdrivewrapfix1
   4762  f457				  -	      sty	mousex1	; if X wrapped, we catch the trailing X up to the target X
   4763  f457				  -skipdrivewrapfix1
   4764  f457				  -
   4765  f457				  -			; get rid of the tweening if the distance travelled was very small
   4766  f457				  -	      lda	mousexdelta
   4767  f457				  -	      cmp	port1resolution
   4768  f457				  -	      bcs	skipbetweenfix1
   4769  f457				  -	      lda	mousex1
   4770  f457				  -	      sta	mousey1
   4771  f457				  -skipbetweenfix1
   4772  f457				  -
   4773  f457				  -drivingboostreductioncheck1
   4774  f457				  -			; The below code amounts to mousecodey0=mousecodey0-(mousecodey0/8)
   4775  f457				  -			; +ve mousecodey0 is converted to -ve to do the calculation, and then
   4776  f457				  -			; negated again because truncation during BCD math results in
   4777  f457				  -			; differing magnitudes, depending if the value is +ve or -ve.
   4778  f457				  -driving1fix
   4779  f457				  -	      lax	mousecodey1
   4780  f457				  -	      cmp	#$80
   4781  f457				  -	      bcs	driving0skipnegate1
   4782  f457				  -	      eor	#$FF
   4783  f457				  -	      adc	#1
   4784  f457				  -	      sta	mousecodey1
   4785  f457				  -driving0skipnegate1
   4786  f457				  -	      cmp	#$80
   4787  f457				  -	      ror
   4788  f457				  -	      cmp	#$80
   4789  f457				  -	      ror
   4790  f457				  -	      cmp	#$80
   4791  f457				  -	      ror
   4792  f457				  -	      sta	inttemp1
   4793  f457				  -	      lda	mousecodey1
   4794  f457				  -	      sec
   4795  f457				  -	      sbc	inttemp1
   4796  f457				  -	      cpx	#$80
   4797  f457				  -	      bcs	driving1skipnegate2
   4798  f457				  -	      eor	#$FF
   4799  f457				  -	      adc	#1
   4800  f457				  -driving1skipnegate2
   4801  f457				  -	      sta	mousecodey1
   4802  f457				  -drivingboostdone1
   4803  f457				  -	      endif		; DRIVINGBOOST
   4804  f457				  -
   4805  f457				  -	      jmp	LLRET1
   4806  f457				  -
   4807  f457					      endif		; MOUSE1SUPPORT
   4808  f457
   4809  f457
   4810  f457				   trakball0update
   4811  f457				  -	      ifconst	TRAKBALL0SUPPORT
   4812  f457				  -	      ifnconst	TRAKTIME
   4813  f457				  -	      ifnconst	TRAKXONLY
   4814  f457				  -	      lda	#180	; minimum for x+y
   4815  f457				  -	      else		; !TRAKXONLY
   4816  f457				  -	      lda	#100	; minimum for just x
   4817  f457				  -	      endif		; !TRAKXONLY
   4818  f457				  -	      else		; !TRAKTIME
   4819  f457				  -	      lda	#TRAKTIME
   4820  f457				  -	      endif		; !TRAKTIME
   4821  f457				  -	      jsr	SETTIM64T	; INTIM is in Y
   4822  f457				  -	      ldx	#0
   4823  f457				  -	      ifnconst	TRAKXONLY
   4824  f457				  -	      ldy	#0
   4825  f457				  -	      endif		; TRAKXONLY
   4826  f457				  -trakball0updateloop
   4827  f457				  -	      lda	SWCHA
   4828  f457				  -	      and	#%00110000
   4829  f457				  -	      cmp	trakballcodex0
   4830  f457				  -	      sta	trakballcodex0
   4831  f457				  -	      beq	trakball0movementXdone
   4832  f457				  -	      and	#%00010000
   4833  f457				  -	      beq	trakball0negativeX
   4834  f457				  -trakball0positiveX
   4835  f457				  -			;(2 from beq)
   4836  f457				  -	      inx		; 2
   4837  f457				  -	      jmp	trakball0movementXdone	; 3
   4838  f457				  -trakball0negativeX
   4839  f457				  -			;(3 from beq)
   4840  f457				  -	      dex		; 2
   4841  f457				  -	      nop		; 2
   4842  f457				  -trakball0movementXdone
   4843  f457				  -
   4844  f457				  -	      ifnconst	TRAKXONLY
   4845  f457				  -	      lda	SWCHA
   4846  f457				  -	      and	#%11000000
   4847  f457				  -	      cmp	trakballcodey0
   4848  f457				  -	      sta	trakballcodey0
   4849  f457				  -	      beq	trakball0movementYdone
   4850  f457				  -	      and	#%01000000
   4851  f457				  -	      beq	trakball0negativeY
   4852  f457				  -trakball0positiveY
   4853  f457				  -			;(2 from beq)
   4854  f457				  -	      iny		; 2
   4855  f457				  -	      jmp	trakball0movementYdone	; 3
   4856  f457				  -trakball0negativeY
   4857  f457				  -			;(3 from beq)
   4858  f457				  -	      dey		; 2
   4859  f457				  -	      nop		; 2
   4860  f457				  -trakball0movementYdone
   4861  f457				  -	      endif		; !TRAKXONLY
   4862  f457				  -
   4863  f457				  -	      lda	TIMINT
   4864  f457				  -	      bpl	trakball0updateloop
   4865  f457				  -	      lda	#0
   4866  f457				  -	      cpx	#0
   4867  f457				  -	      beq	trakball0skipXadjust
   4868  f457				  -	      clc
   4869  f457				  -trakball0Xloop
   4870  f457				  -	      adc	port0resolution
   4871  f457				  -	      dex
   4872  f457				  -	      bne	trakball0Xloop
   4873  f457				  -	      clc
   4874  f457				  -	      adc	trakballx0
   4875  f457				  -	      sta	trakballx0
   4876  f457				  -trakball0skipXadjust
   4877  f457				  -	      ifnconst	TRAKXONLY
   4878  f457				  -	      lda	#0
   4879  f457				  -	      cpy	#0
   4880  f457				  -	      beq	trakball0skipYadjust
   4881  f457				  -	      clc
   4882  f457				  -trakball0yloop
   4883  f457				  -	      adc	port0resolution
   4884  f457				  -	      dey
   4885  f457				  -	      bne	trakball0yloop
   4886  f457				  -	      clc
   4887  f457				  -	      adc	trakbally0
   4888  f457				  -	      sta	trakbally0
   4889  f457				  -trakball0skipYadjust
   4890  f457				  -	      endif		; !TRAKXONLY
   4891  f457				  -
   4892  f457				  -	      jmp	LLRET0
   4893  f457					      endif
   4894  f457
   4895  f457
   4896  f457
   4897  f457				   trakball1update
   4898  f457				  -	      ifconst	TRAKBALL1SUPPORT
   4899  f457				  -	      ifnconst	TRAKTIME
   4900  f457				  -	      ifnconst	TRAKXONLY
   4901  f457				  -	      lda	#180	; minimum for x+y
   4902  f457				  -	      else		; !TRAKXONLY
   4903  f457				  -	      lda	#100	; minimum for just x
   4904  f457				  -	      endif		; !TRAKXONLY
   4905  f457				  -	      else		; !TRAKTIME
   4906  f457				  -	      lda	#TRAKTIME
   4907  f457				  -	      endif		; !TRAKTIME
   4908  f457				  -	      jsr	SETTIM64T	; INTIM is in Y
   4909  f457				  -	      ldx	#0
   4910  f457				  -	      ifnconst	TRAKXONLY
   4911  f457				  -	      ldy	#0
   4912  f457				  -	      endif		; TRAKXONLY
   4913  f457				  -trakball1updateloop
   4914  f457				  -	      lda	SWCHA
   4915  f457				  -	      and	#%00000011
   4916  f457				  -	      cmp	trakballcodex1
   4917  f457				  -	      sta	trakballcodex1
   4918  f457				  -	      beq	trakball1movementXdone
   4919  f457				  -	      and	#%00000001
   4920  f457				  -	      beq	trakball1negativeX
   4921  f457				  -trakball1positiveX
   4922  f457				  -			;(2 from beq)
   4923  f457				  -	      inx		; 2
   4924  f457				  -	      jmp	trakball1movementXdone	; 3
   4925  f457				  -trakball1negativeX
   4926  f457				  -			;(3 from beq)
   4927  f457				  -	      dex		; 2
   4928  f457				  -	      nop		; 2
   4929  f457				  -trakball1movementXdone
   4930  f457				  -
   4931  f457				  -	      ifnconst	TRAKXONLY
   4932  f457				  -	      lda	SWCHA
   4933  f457				  -	      and	#%00001100
   4934  f457				  -	      cmp	trakballcodey1
   4935  f457				  -	      sta	trakballcodey1
   4936  f457				  -	      beq	trakball1movementYdone
   4937  f457				  -	      and	#%00000100
   4938  f457				  -	      beq	trakball1negativeY
   4939  f457				  -trakball1positiveY
   4940  f457				  -			;(2 from beq)
   4941  f457				  -	      iny		; 2
   4942  f457				  -	      jmp	trakball1movementYdone	; 3
   4943  f457				  -trakball1negativeY
   4944  f457				  -			;(3 from beq)
   4945  f457				  -	      dey		; 2
   4946  f457				  -	      nop		; 2
   4947  f457				  -trakball1movementYdone
   4948  f457				  -	      endif		; !TRAKXONLY
   4949  f457				  -
   4950  f457				  -	      lda	TIMINT
   4951  f457				  -	      bpl	trakball1updateloop
   4952  f457				  -	      lda	#0
   4953  f457				  -	      cpx	#0
   4954  f457				  -	      beq	trakball1skipXadjust
   4955  f457				  -	      clc
   4956  f457				  -trakball1Xloop
   4957  f457				  -	      adc	port1resolution
   4958  f457				  -	      dex
   4959  f457				  -	      bne	trakball1Xloop
   4960  f457				  -	      clc
   4961  f457				  -	      adc	trakballx1
   4962  f457				  -	      sta	trakballx1
   4963  f457				  -trakball1skipXadjust
   4964  f457				  -	      ifnconst	TRAKXONLY
   4965  f457				  -	      lda	#0
   4966  f457				  -	      cpy	#0
   4967  f457				  -	      beq	trakball1skipYadjust
   4968  f457				  -	      clc
   4969  f457				  -trakball1yloop
   4970  f457				  -	      adc	port1resolution
   4971  f457				  -	      dey
   4972  f457				  -	      bne	trakball1yloop
   4973  f457				  -	      clc
   4974  f457				  -	      adc	trakbally1
   4975  f457				  -	      sta	trakbally1
   4976  f457				  -trakball1skipYadjust
   4977  f457				  -	      endif		; !TRAKXONLY
   4978  f457				  -
   4979  f457				  -	      jmp	LLRET1
   4980  f457					      endif
   4981  f457
   4982  f457
   4983  f457				   paddleport0update
   4984  f457				  -	      ifconst	PADDLE0SUPPORT
   4985  f457				  -	      lda	#6
   4986  f457				  -	      sta	VBLANK	; start charging the paddle caps
   4987  f457				  -	      lda	#0	; use PADDLE timing
   4988  f457				  -	      jsr	SETTIM64T	; INTIM is in Y
   4989  f457				  -
   4990  f457				  -paddleport0updateloop
   4991  f457				  -	      lda	INPT0
   4992  f457				  -	      bmi	skippaddle0setposition
   4993  f457				  -	      sty	paddleposition0
   4994  f457				  -skippaddle0setposition
   4995  f457				  -	      ifconst	TWOPADDLESUPPORT
   4996  f457				  -	      lda	INPT1
   4997  f457				  -	      bmi	skippaddle1setposition
   4998  f457				  -	      sty	paddleposition1
   4999  f457				  -skippaddle1setposition
   5000  f457				  -	      endif
   5001  f457				  -	      ldy	INTIM
   5002  f457				  -	      cpy	#TIMEOFFSET
   5003  f457				  -	      bcs	paddleport0updateloop
   5004  f457				  -
   5005  f457				  -	      lda	#%10000110
   5006  f457				  -	      sta	VBLANK	; dump paddles to ground... this may not be great for genesis controllers
   5007  f457				  -	      sec
   5008  f457				  -	      lda	paddleposition0
   5009  f457				  -	      sbc	#TIMEOFFSET
   5010  f457				  -	      ifconst	PADDLESCALEX2
   5011  f457				  -	      asl
   5012  f457				  -	      endif
   5013  f457				  -
   5014  f457				  -	      ifnconst	PADDLESMOOTHINGOFF
   5015  f457				  -	      clc
   5016  f457				  -	      adc	paddleprevious0
   5017  f457				  -	      ror
   5018  f457				  -	      sta	paddleprevious0
   5019  f457				  -	      endif
   5020  f457				  -
   5021  f457				  -	      sta	paddleposition0
   5022  f457				  -
   5023  f457				  -	      ifconst	TWOPADDLESUPPORT
   5024  f457				  -	      sec
   5025  f457				  -	      lda	paddleposition1
   5026  f457				  -	      sbc	#TIMEOFFSET
   5027  f457				  -	      ifconst	PADDLESCALEX2
   5028  f457				  -	      asl
   5029  f457				  -	      endif
   5030  f457				  -
   5031  f457				  -	      ifnconst	PADDLESMOOTHINGOFF
   5032  f457				  -	      clc
   5033  f457				  -	      adc	paddleprevious1
   5034  f457				  -	      ror
   5035  f457				  -	      sta	paddleprevious1
   5036  f457				  -	      endif
   5037  f457				  -	      sta	paddleposition1
   5038  f457				  -	      endif		; TWOPADDLESUPPORT
   5039  f457				  -
   5040  f457				  -	      jmp	LLRET0
   5041  f457					      endif
   5042  f457
   5043  f457				   paddleport1update
   5044  f457				  -	      ifconst	PADDLE1SUPPORT
   5045  f457				  -	      lda	#6
   5046  f457				  -	      sta	VBLANK	; start charging the paddle caps
   5047  f457				  -
   5048  f457				  -	      lda	#0	; use PADDLE timing
   5049  f457				  -	      jsr	SETTIM64T	; INTIM is in Y
   5050  f457				  -
   5051  f457				  -paddleport1updateloop
   5052  f457				  -	      lda	INPT2
   5053  f457				  -	      bmi	skippaddle2setposition
   5054  f457				  -	      sty	paddleposition2
   5055  f457				  -skippaddle2setposition
   5056  f457				  -	      ifconst	TWOPADDLESUPPORT
   5057  f457				  -	      lda	INPT3
   5058  f457				  -	      bmi	skippaddle3setposition
   5059  f457				  -	      sty	paddleposition3
   5060  f457				  -skippaddle3setposition
   5061  f457				  -	      endif
   5062  f457				  -	      ldy	INTIM
   5063  f457				  -	      cpy	#TIMEOFFSET
   5064  f457				  -	      bcs	paddleport1updateloop
   5065  f457				  -
   5066  f457				  -	      lda	#%10000110
   5067  f457				  -	      sta	VBLANK	; dump paddles to ground... this may not be great for genesis controllers
   5068  f457				  -	      sec
   5069  f457				  -	      lda	paddleposition2
   5070  f457				  -	      sbc	#TIMEOFFSET
   5071  f457				  -	      ifconst	PADDLESCALEX2
   5072  f457				  -	      asl
   5073  f457				  -	      endif
   5074  f457				  -
   5075  f457				  -	      ifnconst	PADDLESMOOTHINGOFF
   5076  f457				  -	      clc
   5077  f457				  -	      adc	paddleprevious2
   5078  f457				  -	      ror
   5079  f457				  -	      sta	paddleprevious2
   5080  f457				  -	      endif
   5081  f457				  -
   5082  f457				  -	      sta	paddleposition2
   5083  f457				  -
   5084  f457				  -	      ifconst	TWOPADDLESUPPORT
   5085  f457				  -	      sec
   5086  f457				  -	      lda	paddleposition3
   5087  f457				  -	      sbc	#TIMEOFFSET
   5088  f457				  -	      ifconst	PADDLESCALEX2
   5089  f457				  -	      asl
   5090  f457				  -	      endif
   5091  f457				  -
   5092  f457				  -	      ifnconst	PADDLESMOOTHINGOFF
   5093  f457				  -	      clc
   5094  f457				  -	      adc	paddleprevious3
   5095  f457				  -	      ror
   5096  f457				  -	      sta	paddleprevious3
   5097  f457				  -	      endif
   5098  f457				  -	      sta	paddleposition3
   5099  f457				  -	      endif		; TWOPADDLESUPPORT
   5100  f457				  -
   5101  f457				  -	      jmp	LLRET1
   5102  f457					      endif
   5103  f457
   5104  f457
   5105  f457				   paddlebuttonhandler		; outside of conditional, for button-handler LUT
   5106  f457				  -	      ifconst	PADDLESUPPORT
   5107  f457				  -			; x=0|1 for port, rather than paddle #.
   5108  f457				  -			; Only the first paddle button will integrate into "joy0fire" testing. If the
   5109  f457				  -			; game wants to support 2 paddles, up to the game to instead test the
   5110  f457				  -			; joystick right+left directions instead.
   5111  f457				  -	      lda	SWCHA	; top of nibble is first paddle button
   5112  f457				  -	      cpx	#0	; port 0?
   5113  f457				  -	      beq	skippaddleport2shift
   5114  f457				  -	      asl		; shift second port to upper nibble
   5115  f457				  -	      asl
   5116  f457				  -	      asl
   5117  f457				  -	      asl
   5118  f457				  -skippaddleport2shift
   5119  f457				  -	      and	#%11000000
   5120  f457				  -	      eor	#%11000000	; invert
   5121  f457				  -	      sta	sINPT1,x
   5122  f457				  -	      jmp	buttonreadloopreturn
   5123  f457					      endif		; PADDLESUPPORT
   5124  f457
   5125  f457				   mousebuttonhandler		; outside of conditional, for button-handler LUT
   5126  f457				  -	      ifconst	MOUSESUPPORT
   5127  f457				  -			; stick the mouse buttons in the correct shadow register...
   5128  f457				  -	      txa
   5129  f457				  -	      asl
   5130  f457				  -	      tay		; y=x*2
   5131  f457				  -	      lda	INPT4,x
   5132  f457				  -	      eor	#%10000000
   5133  f457				  -	      lsr
   5134  f457				  -	      sta	sINPT1,x
   5135  f457				  -
   5136  f457				  -	      lda	INPT1,y
   5137  f457				  -	      and	#%10000000
   5138  f457				  -	      eor	#%10000000
   5139  f457				  -	      ora	sINPT1,x
   5140  f457				  -	      sta	sINPT1,x
   5141  f457				  -	      jmp	buttonreadloopreturn
   5142  f457					      endif		; MOUSESUPPORT
   5143  f457
   5144  f457				  -	      ifconst	KEYPADSUPPORT
   5145  f457				  -			; ** select keypad rows 0 to 3 over 4 frames...
   5146  f457				  -keypadrowselect
   5147  f457				  -	      inc	keypadcounter
   5148  f457				  -	      ldy	#0
   5149  f457				  -	      lda	port0control
   5150  f457				  -	      cmp	#7
   5151  f457				  -	      bne	skipport0val
   5152  f457				  -	      iny		; y=y+1
   5153  f457				  -skipport0val
   5154  f457				  -	      lda	port1control
   5155  f457				  -	      cmp	#7
   5156  f457				  -	      bne	skipport1val
   5157  f457				  -	      iny
   5158  f457				  -	      iny		; y=y+2
   5159  f457				  -skipport1val
   5160  f457				  -	      cpy	#0
   5161  f457				  -	      beq	exitkeypadrowselect
   5162  f457				  -	      lda	keyrowdirectionmask,y
   5163  f457				  -	      sta	CTLSWA
   5164  f457				  -	      tya
   5165  f457				  -	      asl
   5166  f457				  -	      asl
   5167  f457				  -	      sta	inttemp1
   5168  f457				  -	      lda	keypadcounter
   5169  f457				  -	      and	#3
   5170  f457				  -	      ora	inttemp1
   5171  f457				  -	      tax
   5172  f457				  -	      lda	keyrowselectvalue,x
   5173  f457				  -	      sta	SWCHA
   5174  f457				  -exitkeypadrowselect
   5175  f457				  -	      rts
   5176  f457				  -
   5177  f457				  -keyrowdirectionmask
   5178  f457				  -	      .byte	#%00000000	; 0 : port0=input port1=input
   5179  f457				  -	      .byte	#%11110000	; 1 : port0=output port1=input
   5180  f457				  -	      .byte	#%00001111	; 2 : port0=input port1=output
   5181  f457				  -	      .byte	#%11111111	; 3 : port0=output port1=output
   5182  f457				  -
   5183  f457				  -keyrowselectvalue
   5184  f457				  -	      .byte	#%00000000, #%00000000, #%00000000, #%00000000	; no row selected, all pins high, always
   5185  f457				  -	      .byte	#%11100000, #%11010000, #%10110000, #%01110000	; p0 keypad in
   5186  f457				  -	      .byte	#%00001110, #%00001101, #%00001011, #%00000111	; p1 keypad in
   5187  f457				  -	      .byte	#%11101110, #%11011101, #%10111011, #%01110111	; p0+p1 keypads in
   5188  f457					      endif		; KEYPADSUPPORT
   5189  f457
   5190  f457				  -	      ifconst	KEYPADSUPPORT
   5191  f457				  -			; TODO - split into compile-time KEYPAD0SUPPORT and KEYPAD1SUPPORT
   5192  f457				  -keypadcolumnread
   5193  f457				  -	      lda	port0control
   5194  f457				  -	      cmp	#7
   5195  f457				  -	      bne	skipkeypadcolumnread0
   5196  f457				  -	      lda	keypadcounter
   5197  f457				  -	      and	#3
   5198  f457				  -	      asl		; x2 because keypad variables are interleaved
   5199  f457				  -	      tax
   5200  f457				  -	      lda	#0
   5201  f457				  -	      sta	keypadmatrix0a,x
   5202  f457				  -	      lda	INPT0
   5203  f457				  -	      cmp	#$80
   5204  f457				  -	      rol	keypadmatrix0a,x
   5205  f457				  -	      lda	INPT1
   5206  f457				  -	      cmp	#$80
   5207  f457				  -	      rol	keypadmatrix0a,x
   5208  f457				  -	      lda	INPT4
   5209  f457				  -	      cmp	#$80
   5210  f457				  -	      rol	keypadmatrix0a,x
   5211  f457				  -	      lda	keypadmatrix0a,x
   5212  f457				  -	      eor	#%00000111
   5213  f457				  -	      sta	keypadmatrix0a,x
   5214  f457				  -skipkeypadcolumnread0
   5215  f457				  -
   5216  f457				  -	      lda	port1control
   5217  f457				  -	      cmp	#7
   5218  f457				  -	      bne	skipkeypadcolumnread1
   5219  f457				  -	      lda	keypadcounter
   5220  f457				  -	      and	#3
   5221  f457				  -	      asl		; x2 because keypad variables are interleaved
   5222  f457				  -	      tax
   5223  f457				  -	      lda	#0
   5224  f457				  -	      sta	keypadmatrix1a,x
   5225  f457				  -	      rol	keypadmatrix1a,x
   5226  f457				  -	      lda	INPT2
   5227  f457				  -	      cmp	#$80
   5228  f457				  -	      rol	keypadmatrix1a,x
   5229  f457				  -	      lda	INPT3
   5230  f457				  -	      cmp	#$80
   5231  f457				  -	      rol	keypadmatrix1a,x
   5232  f457				  -	      lda	INPT5
   5233  f457				  -	      cmp	#$80
   5234  f457				  -	      rol	keypadmatrix1a,x
   5235  f457				  -	      lda	keypadmatrix1a,x
   5236  f457				  -	      eor	#%00000111
   5237  f457				  -	      sta	keypadmatrix1a,x
   5238  f457				  -skipkeypadcolumnread1
   5239  f457				  -	      rts
   5240  f457					      endif		; KEYPADSUPPORT
   5241  f457
   5242  f457				   setportforinput
   5243  f457		       ad 81 02 	      lda	CTLSWA
   5244  f45a		       3d c2 f1 	      and	SWCHA_DIRMASK,x
   5245  f45d		       8d 81 02 	      sta	CTLSWA
   5246  f460		       60		      rts
   5247  f461
   5248  f461				   setonebuttonmode
   5249  f461		       a9 06		      lda	#6	; in case we're in unlocked-bios mode
   5250  f463		       85 01		      sta	VBLANK	; if we were on paddles, the line is grounded out.
   5251  f465		       a9 14		      lda	#$14
   5252  f467		       8d 83 02 	      sta	CTLSWB
   5253  f46a		       ad 82 02 	      lda	SWCHB
   5254  f46d		       1d 87 f4 	      ora	thisjoy2buttonbit,x	; disable: write 1 to the 2-button bit
   5255  f470		       8d 82 02 	      sta	SWCHB
   5256  f473		       60		      rts
   5257  f474
   5258  f474				   settwobuttonmode
   5259  f474		       a9 06		      lda	#6	; in case we're in unlocked-bios mode
   5260  f476		       85 01		      sta	VBLANK	; if we were on paddles, the line is grounded out.
   5261  f478		       a9 14		      lda	#$14
   5262  f47a		       8d 83 02 	      sta	CTLSWB
   5263  f47d		       ad 82 02 	      lda	SWCHB
   5264  f480		       3d 88 f4 	      and	thisjoy2buttonbit+1,x	; enable: write 0 to the 2-button bit
   5265  f483		       8d 82 02 	      sta	SWCHB
   5266  f486		       60		      rts
   5267  f487
   5268  f487				   thisjoy2buttonbit
   5269  f487							; p0	p1   p0
   5270  f487		       04 10 04 	      .byte.b	$04, $10, $04
   5271  f48a
   5272  f48a				  -	      ifconst	CHANGEDMAHOLES
   5273  f48a				  -removedmaholes
   5274  f48a				  -	      ldx	#0
   5275  f48a				  -removedllholesloop
   5276  f48a				  -	      lda	DLLMEM,x
   5277  f48a				  -	      and	#%10001111
   5278  f48a				  -	      sta	DLLMEM,x
   5279  f48a				  -	      ifconst	DOUBLEBUFFER
   5280  f48a				  -	      sta	DLLMEM+DBOFFSET,x
   5281  f48a				  -	      endif
   5282  f48a				  -	      inx
   5283  f48a				  -	      inx
   5284  f48a				  -	      inx
   5285  f48a				  -	      ifconst	DOUBLEBUFFER
   5286  f48a				  -	      cpx	#DBOFFSET
   5287  f48a				  -	      bcc	removedllholesloop
   5288  f48a				  -	      else
   5289  f48a				  -	      bpl	removedllholesloop
   5290  f48a				  -	      endif
   5291  f48a				  -	      rts
   5292  f48a				  -
   5293  f48a				  -createdmaholes
   5294  f48a				  -	      ldx	#0
   5295  f48a				  -createdllholesloop
   5296  f48a				  -	      lda	DLLMEM,x
   5297  f48a				  -	      ora	#(WZONEHEIGHT*4)
   5298  f48a				  -	      sta	DLLMEM,x
   5299  f48a				  -	      ifconst	DOUBLEBUFFER
   5300  f48a				  -	      sta	DLLMEM+DBOFFSET,x
   5301  f48a				  -	      endif
   5302  f48a				  -	      inx
   5303  f48a				  -	      inx
   5304  f48a				  -	      inx
   5305  f48a				  -	      ifconst	DOUBLEBUFFER
   5306  f48a				  -	      cpx	#DBOFFSET
   5307  f48a				  -	      bcc	createdllholesloop
   5308  f48a				  -	      else
   5309  f48a				  -	      bpl	createdllholesloop
   5310  f48a				  -	      endif
   5311  f48a				  -	      rts
   5312  f48a					      endif
   5313  f48a
   5314  f48a							; Provided under the CC0 license. See the included LICENSE.txt for details.
   5315  f48a
   5316  f48a				   START
   5317  f48a				   start
   5318  f48a
   5319  f48a							;******** more or less the Atari recommended startup procedure
   5320  f48a
   5321  f48a		       78		      sei
   5322  f48b		       d8		      cld
   5323  f48c
   5324  f48c					      ifnconst	NOTIALOCK
   5325  f48c		       a9 07		      lda	#$07
   5326  f48e				  -	      else
   5327  f48e				  -	      lda	#$06
   5328  f48e					      endif
   5329  f48e		       85 01		      sta	INPTCTRL	;lock 7800 into 7800 mode
   5330  f490		       a9 7f		      lda	#$7F
   5331  f492		       85 3c		      sta	CTRL	;disable DMA
   5332  f494		       a9 00		      lda	#$00
   5333  f496		       85 38		      sta	OFFSET
   5334  f498					      ifnconst	NOTIALOCK
   5335  f498		       85 01		      sta	INPTCTRL
   5336  f49a		       85 20		      sta	BACKGRND	; black default, in case a flash cart is using something else
   5337  f49c					      endif
   5338  f49c		       a2 ff		      ldx	#$FF
   5339  f49e		       9a		      txs
   5340  f49f
   5341  f49f							;************** Clear Memory
   5342  f49f
   5343  f49f							; ** Clear 1800-27FF, pg0+pg1 memory.
   5344  f49f				   ClearMemPages
   5345  f49f		       a9 00		      lda	#0
   5346  f4a1		       a8		      tay		; y=0
   5347  f4a2		       85 80		      sta	$80
   5348  f4a4		       a2 18		      ldx	#$18
   5349  f4a6				   ClearMemPagesLoop
   5350  f4a6		       86 81		      stx	$81	; needed for when we step on ZP memory
   5351  f4a8		       91 80		      sta	($80),y	;Store data
   5352  f4aa		       c8		      iny		;Next byte
   5353  f4ab		       d0 f9		      bne	ClearMemPagesLoop
   5354  f4ad		       e8		      inx
   5355  f4ae		       e0 28		      cpx	#$28
   5356  f4b0		       d0 f4		      bne	ClearMemPagesLoop
   5357  f4b2		       85 81		      sta	$81
   5358  f4b4
   5359  f4b4							;seed random number with hopefully-random timer value
   5360  f4b4		       a9 01		      lda	#1
   5361  f4b6		       0d 84 02 	      ora	INTIM
   5362  f4b9		       85 40		      sta	rand
   5363  f4bb
   5364  f4bb							; detect the console type...
   5365  f4bb				   pndetectvblankstart
   5366  f4bb		       a5 28		      lda	MSTAT
   5367  f4bd		       10 fc		      bpl	pndetectvblankstart	; if we're not in VBLANK, wait for it to start
   5368  f4bf				   pndetectvblankover
   5369  f4bf		       a5 28		      lda	MSTAT
   5370  f4c1		       30 fc		      bmi	pndetectvblankover	; then wait for it to be over
   5371  f4c3		       a0 00		      ldy	#$00
   5372  f4c5		       a2 00		      ldx	#$00
   5373  f4c7				   pndetectvblankhappening
   5374  f4c7		       a5 28		      lda	MSTAT
   5375  f4c9		       30 07		      bmi	pndetectinvblank	; if VBLANK starts, exit our counting loop
   5376  f4cb		       85 24		      sta	WSYNC
   5377  f4cd		       85 24		      sta	WSYNC
   5378  f4cf		       e8		      inx
   5379  f4d0		       d0 f5		      bne	pndetectvblankhappening
   5380  f4d2				   pndetectinvblank
   5381  f4d2		       e0 7d		      cpx	#125
   5382  f4d4		       90 02		      bcc	pndetecispal
   5383  f4d6		       a0 01		      ldy	#$01
   5384  f4d8				   pndetecispal
   5385  f4d8		       8c 09 21 	      sty	paldetected
   5386  f4db
   5387  f4db		       20 eb f3 	      jsr	createallgamedlls
   5388  f4de
   5389  f4de		       a9 18		      lda	#>DLLMEM
   5390  f4e0		       85 2c		      sta	DPPH
   5391  f4e2		       a9 00		      lda	#<DLLMEM
   5392  f4e4		       85 30		      sta	DPPL
   5393  f4e6
   5394  f4e6				  -	      ifconst	pokeysupport
   5395  f4e6				  -			; pokey support is compiled in, so try to detect it...
   5396  f4e6				  -	      jsr	detectpokeylocation
   5397  f4e6					      endif
   5398  f4e6
   5399  f4e6		       a9 01		      lda	#1	; default for port 0 and 1 is a regular joystick
   5400  f4e8		       8d b8 01 	      sta	port0control
   5401  f4eb		       8d b9 01 	      sta	port1control
   5402  f4ee
   5403  f4ee							;Setup port A to read mode
   5404  f4ee							;lda #$00
   5405  f4ee							;sta SWCHA
   5406  f4ee							;sta CTLSWA
   5407  f4ee
   5408  f4ee				  -	      ifconst	HSSUPPORT
   5409  f4ee				  -	      ifconst	bankswitchmode
   5410  f4ee				  -	      ifconst	included.hiscore.asm.bank
   5411  f4ee				  -	      ifconst	MCPDEVCART
   5412  f4ee				  -	      lda	#($18 | included.hiscore.asm.bank)
   5413  f4ee				  -	      ifconst	dumpbankswitch
   5414  f4ee				  -	      sta	dumpbankswitch
   5415  f4ee				  -	      endif
   5416  f4ee				  -	      sta	$3000
   5417  f4ee				  -	      else
   5418  f4ee				  -	      lda	#(included.hiscore.asm.bank)
   5419  f4ee				  -	      ifconst	dumpbankswitch
   5420  f4ee				  -	      sta	dumpbankswitch
   5421  f4ee				  -	      endif
   5422  f4ee				  -	      sta	$8000
   5423  f4ee				  -	      endif
   5424  f4ee				  -	      endif		; included.hiscore.asm.bank
   5425  f4ee				  -	      endif		; bankswitchmode
   5426  f4ee				  -			; try to detect HSC
   5427  f4ee				  -	      jsr	detecthsc
   5428  f4ee				  -	      and	#1
   5429  f4ee				  -	      sta	hsdevice
   5430  f4ee				  -skipHSCdetect
   5431  f4ee				  -			; try to detect AtariVox eeprom
   5432  f4ee				  -	      jsr	detectatarivoxeeprom
   5433  f4ee				  -	      and	#2
   5434  f4ee				  -	      ora	hsdevice
   5435  f4ee				  -	      cmp	#3
   5436  f4ee				  -	      bne	storeAinhsdevice
   5437  f4ee				  -			; For now, we tie break by giving HSC priority over AtariVox.
   5438  f4ee				  -			; Later we should check each device's priority byte if set, instead,
   5439  f4ee				  -	      lda	#2
   5440  f4ee				  -storeAinhsdevice
   5441  f4ee				  -	      sta	hsdevice
   5442  f4ee				  -	      lda	#$ff
   5443  f4ee				  -	      sta	hsdifficulty
   5444  f4ee				  -	      sta	hsgameslot
   5445  f4ee				  -	      sta	hsnewscoreline
   5446  f4ee					      endif		; HSSUPPORT
   5447  f4ee
   5448  f4ee				  -	      ifconst	AVOXVOICE
   5449  f4ee				  -	      jsr	silenceavoxvoice
   5450  f4ee					      endif
   5451  f4ee
   5452  f4ee				  -	      ifconst	MULTIBUTTON
   5453  f4ee				  -	      ifnconst	HSSUPPORT
   5454  f4ee				  -min_detectatarivoxeeprom
   5455  f4ee				  -	      jsr	i2c_startwrite
   5456  f4ee				  -	      bcc	min_no_eeprom_error
   5457  f4ee				  -	      lda	#$ff
   5458  f4ee				  -	      jmp	min_avoxdetect_done
   5459  f4ee				  -min_no_eeprom_error
   5460  f4ee				  -	      lda	#$30
   5461  f4ee				  -	      jsr	i2c_txbyte
   5462  f4ee				  -	      lda	#$00
   5463  f4ee				  -	      jsr	i2c_txbyte
   5464  f4ee				  -	      jsr	i2c_stopwrite
   5465  f4ee				  -min_avoxdetect_done
   5466  f4ee				  -	      eor	#$FF
   5467  f4ee				  -	      sta	avoxdetected
   5468  f4ee				  -	      jmp	min_detectatarivoxeepromdone
   5469  f4ee				  -	      include	"i2c7800.inc"
   5470  f4ee				  -	      I2C_SUBS	temp9
   5471  f4ee				  -min_detectatarivoxeepromdone
   5472  f4ee				  -	      endif		; HSSUPPORT
   5473  f4ee					      endif		; MULTIBUTTON
   5474  f4ee
   5475  f4ee				  -	      ifconst	MULTIBUTTON
   5476  f4ee				  -	      lda	avoxdetected
   5477  f4ee				  -	      beq	skipassignavox
   5478  f4ee				  -	      lda	#10
   5479  f4ee				  -	      sta	port1control	; designate port 1 as atarivox so multibutton won't disturb it.
   5480  f4ee				  -skipassignavox
   5481  f4ee					      endif		; MULTIBUTTON
   5482  f4ee
   5483  f4ee				  -	      ifconst	RMT
   5484  f4ee				  -	      ifconst	RMTVOLUME
   5485  f4ee				  -	      lda	#$F0	; default to full RMT volume
   5486  f4ee				  -	      sta	rmtvolume
   5487  f4ee				  -	      ifconst	TIAVOLUME
   5488  f4ee				  -	      sta	tiavolume
   5489  f4ee				  -	      endif		; TIAVOLUME
   5490  f4ee				  -	      endif		; RMTVOLUME
   5491  f4ee					      else		; !RMT
   5492  f4ee				  -	      ifconst	TIAVOLUME
   5493  f4ee				  -	      lda	#$F0	; default to full TIA volume
   5494  f4ee				  -	      sta	tiavolume
   5495  f4ee					      endif		; TIAVOLUME
   5496  f4ee					      endif		; RMT
   5497  f4ee
   5498  f4ee				  -	      ifconst	bankswitchmode
   5499  f4ee				  -			; we need to switch to the first bank as a default. this needs to
   5500  f4ee				  -			; happen before DMA, in case there's a topscreenroutine in bank 0
   5501  f4ee				  -	      ifconst	MCPDEVCART
   5502  f4ee				  -	      lda	#$18	; xxx11nnn - switch to bank 0
   5503  f4ee				  -	      ifconst	dumpbankswitch
   5504  f4ee				  -	      sta	dumpbankswitch
   5505  f4ee				  -	      endif
   5506  f4ee				  -	      sta	$3000
   5507  f4ee				  -	      else
   5508  f4ee				  -	      lda	#0
   5509  f4ee				  -	      ifconst	dumpbankswitch
   5510  f4ee				  -	      sta	dumpbankswitch
   5511  f4ee				  -	      endif
   5512  f4ee				  -	      sta	$8000
   5513  f4ee				  -	      endif
   5514  f4ee					      endif
   5515  f4ee
   5516  f4ee							; CTRL 76543210
   5517  f4ee							; 7 colorburst kill
   5518  f4ee							; 6,5 dma ctrl 2=normal DMA, 3=no DMA
   5519  f4ee							; 4 character width 1=2 byte chars, 0=1 byte chars
   5520  f4ee							; 3 border control 0=background color border, 1=black border
   5521  f4ee							; 2 kangaroo mode 0=transparency, 1=kangaroo
   5522  f4ee							; 1,0 read mode 0=160x2/160x4 1=N/A 2=320B/320D 3=320A/320C
   5523  f4ee
   5524  f4ee				  -	      ifconst	DOUBLEWIDE
   5525  f4ee				  -	      lda	#%01010000	;Enable DMA, mode=160x2/160x4, 2x character width
   5526  f4ee					      else
   5527  f4ee		       a9 40		      lda	#%01000000	;Enable DMA, mode=160x2/160x4
   5528  f4f0					      endif
   5529  f4f0
   5530  f4f0		       20 4e f4 	      jsr	waitforvblankstart	; give the some vblank time to minimally update the display
   5531  f4f3
   5532  f4f3		       85 3c		      sta	CTRL
   5533  f4f5		       8d 07 21 	      sta	sCTRL
   5534  f4f8
   5535  f4f8		       20 de f3 	      jsr	vblankresync
   5536  f4fb
   5537  f4fb		       a2 01		      ldx	#1
   5538  f4fd		       20 74 f4 	      jsr	settwobuttonmode
   5539  f500		       a2 00		      ldx	#0
   5540  f502		       20 74 f4 	      jsr	settwobuttonmode
   5541  f505
   5542  f505					      ifnconst	.altgamestart
   5543  f505		       4c 00 80 	      jmp	game
   5544  f508				  -	      else
   5545  f508				  -	      jmp	.altgamestart
   5546  f508					      endif
   5547  f508
   5548  f508							; Provided under the CC0 license. See the included LICENSE.txt for details.
   5549  f508
   5550  f508							; A tunable parameter, to claim some memory back from DL usage
   5551  f508		       00 00	   MEMSKIP    =	$00
   5552  f508
   5553  f508							;************** Setup DLL entries
   5554  f508
   5555  f508							; setup some working definitions, to avoid ifnconst mess elsewhere...
   5556  f508					      ifnconst	SCREENHEIGHT
   5557  f508		       00 c0	   WSCREENHEIGHT =	192
   5558  f508				  -	      else
   5559  f508				  -WSCREENHEIGHT =	SCREENHEIGHT
   5560  f508					      endif
   5561  f508
   5562  f508					      ifnconst	ZONEHEIGHT
   5563  f508		       00 10	   WZONEHEIGHT =	16
   5564  f508				  -	      else
   5565  f508				  -WZONEHEIGHT =	ZONEHEIGHT
   5566  f508					      endif
   5567  f508
   5568  f508					      ifnconst	ZONECOUNT
   5569  f508				  -	      ifconst	VSCROLL
   5570  f508				  -WZONECOUNT =	((WSCREENHEIGHT/WZONEHEIGHT)+1)
   5571  f508					      else		; !VSCROLL
   5572  f508		       00 0c	   WZONECOUNT =	(WSCREENHEIGHT/WZONEHEIGHT)
   5573  f508					      endif		; !VSCROLL
   5574  f508				  -	      else
   5575  f508				  -	      ifconst	VSCROLL
   5576  f508				  -WZONECOUNT =	(ZONECOUNT+1)
   5577  f508				  -	      else		; !VSCROLL
   5578  f508				  -WZONECOUNT =	ZONECOUNT
   5579  f508				  -	      endif		; !VSCROLL
   5580  f508					      endif
   5581  f508
   5582  f508							; top of the frame, non-visible lines. this is based on NTSC,
   5583  f508							; but we add in extra NV lines at the end of the display to ensure
   5584  f508							; our PAL friends can play the game without it crashing.
   5585  f508		       00 19	   NVLINES    =	((243-WSCREENHEIGHT)/2)
   5586  f508
   5587  f508					      ifnconst	DLMEMSTART
   5588  f508					      ifnconst	DOUBLEBUFFER
   5589  f508				   WDLMEMSTART SET	$1880
   5590  f508				  -	      else
   5591  f508				  -WDLMEMSTART SET	$18E0
   5592  f508					      endif		; DOUBLEBUFFER
   5593  f508				  -	      else
   5594  f508				  -WDLMEMSTART SET	DLMEMSTART
   5595  f508					      endif
   5596  f508
   5597  f508				  -	      if	MEMSKIP > 0
   5598  f508				  -	      echo	"   ",[WDLMEMSTART],"to",[WDLMEMSTART+MEMSKIP-1],"was freed for game usage with MEMSKIP."
   5599  f508				  -WDLMEMSTART SET	(WDLMEMSTART + MEMSKIP)
   5600  f508					      endif		; MEMSKIP > 0
   5601  f508
   5602  f508					      ifnconst	DLMEMEND
   5603  f508				  -	      ifconst	EXTRADLMEMORY
   5604  f508				  -WDLMEMEND  =	$23FF
   5605  f508					      else
   5606  f508		       1f ff	   WDLMEMEND  =	$1FFF
   5607  f508					      endif
   5608  f508				  -	      else
   5609  f508				  -WDLMEMEND  =	DLMEMEND
   5610  f508					      endif
   5611  f508
   5612  f508
   5613  f508				   WMEMSIZE   SET	(WDLMEMEND-WDLMEMSTART+1)
   5614  f508
   5615  f508				  -	      ifconst	VSCROLL
   5616  f508				  -	      ifnconst	DOUBLEBUFFER
   5617  f508				  -			; give the last zone extra ram for the dma mask objects...
   5618  f508				  -WMEMSIZE   SET	(WMEMSIZE-(maskscrollspriteend-maskscrollsprite))
   5619  f508				  -	      endif		; DOUBLEBUFFER
   5620  f508					      endif		; VSCROLL
   5621  f508
   5622  f508					      ifnconst	DOUBLEBUFFER
   5623  f508		       00 9b	   DLLASTOBJ  =	((((WMEMSIZE/WZONECOUNT)-2)/5)*5)	; -2 to always ensure we have 1x double-byte terminator
   5624  f508				  -	      else
   5625  f508				  -DLLASTOBJ  =	((((WMEMSIZE/WZONECOUNT)-4)/10)*5)	; -4 to always ensure we have 2x double-byte terminators
   5626  f508					      endif
   5627  f508
   5628  f508		       00 9d	   TDOUBLEBUFFEROFFSET =	(DLLASTOBJ+2)	; offset between DL buffers. ie. half the real DL
   5629  f508				  -	      if	TDOUBLEBUFFEROFFSET > 255
   5630  f508				  -DOUBLEBUFFEROFFSET =	255
   5631  f508					      else
   5632  f508		       00 9d	   DOUBLEBUFFEROFFSET =	(DLLASTOBJ+2)
   5633  f508					      endif
   5634  f508
   5635  f508				  -	      ifconst	EXTRADLMEMORY
   5636  f508				  -SECONDDLHALFSTART SET	$2300
   5637  f508					      endif
   5638  f508
   5639  f508				   DLPOINTH
   5640  f508				   DLINDEX    SET	0
   5641  f508					      REPEAT	WZONECOUNT
   5642  f508				   TMPMEMADDRESS SET	(((DLINDEX*WMEMSIZE)/WZONECOUNT)+WDLMEMSTART)
   5643  f508				  -	      ifconst	EXTRADLMEMORY
   5644  f508				  -	      if	TMPMEMADDRESS > $1FFF
   5645  f508				  -TMPMEMADDRESS SET	(TMPMEMADDRESS + $300)
   5646  f508				  -	      else
   5647  f508				  -	      if	((((DLINDEX+1)*WMEMSIZE)/WZONECOUNT)+WDLMEMSTART) > $1FFF
   5648  f508				  -TMPMEMADDRESS SET	(TMPMEMADDRESS + $300)
   5649  f508				  -SECONDDLHALFSTART SET	TMPMEMADDRESS
   5650  f508				  -	      endif
   5651  f508				  -	      endif		; TMPMEMADDRESS > $1FFF
   5652  f508					      endif		; EXTRADLMEMORY
   5653  f508							;echo " "," ZONE",[DLINDEX]d,"ADDRESS: ",TMPMEMADDRESS
   5654  f508		       18		      .byte.b	>TMPMEMADDRESS
   5655  f508				   DLINDEX    SET	DLINDEX + 1
   5641  f508					      REPEND
   5642  f508				   TMPMEMADDRESS SET	(((DLINDEX*WMEMSIZE)/WZONECOUNT)+WDLMEMSTART)
   5643  f509				  -	      ifconst	EXTRADLMEMORY
   5644  f509				  -	      if	TMPMEMADDRESS > $1FFF
   5645  f509				  -TMPMEMADDRESS SET	(TMPMEMADDRESS + $300)
   5646  f509				  -	      else
   5647  f509				  -	      if	((((DLINDEX+1)*WMEMSIZE)/WZONECOUNT)+WDLMEMSTART) > $1FFF
   5648  f509				  -TMPMEMADDRESS SET	(TMPMEMADDRESS + $300)
   5649  f509				  -SECONDDLHALFSTART SET	TMPMEMADDRESS
   5650  f509				  -	      endif
   5651  f509				  -	      endif		; TMPMEMADDRESS > $1FFF
   5652  f509					      endif		; EXTRADLMEMORY
   5653  f509							;echo " "," ZONE",[DLINDEX]d,"ADDRESS: ",TMPMEMADDRESS
   5654  f509		       19		      .byte.b	>TMPMEMADDRESS
   5655  f509				   DLINDEX    SET	DLINDEX + 1
   5641  f509					      REPEND
   5642  f509				   TMPMEMADDRESS SET	(((DLINDEX*WMEMSIZE)/WZONECOUNT)+WDLMEMSTART)
   5643  f50a				  -	      ifconst	EXTRADLMEMORY
   5644  f50a				  -	      if	TMPMEMADDRESS > $1FFF
   5645  f50a				  -TMPMEMADDRESS SET	(TMPMEMADDRESS + $300)
   5646  f50a				  -	      else
   5647  f50a				  -	      if	((((DLINDEX+1)*WMEMSIZE)/WZONECOUNT)+WDLMEMSTART) > $1FFF
   5648  f50a				  -TMPMEMADDRESS SET	(TMPMEMADDRESS + $300)
   5649  f50a				  -SECONDDLHALFSTART SET	TMPMEMADDRESS
   5650  f50a				  -	      endif
   5651  f50a				  -	      endif		; TMPMEMADDRESS > $1FFF
   5652  f50a					      endif		; EXTRADLMEMORY
   5653  f50a							;echo " "," ZONE",[DLINDEX]d,"ADDRESS: ",TMPMEMADDRESS
   5654  f50a		       19		      .byte.b	>TMPMEMADDRESS
   5655  f50a				   DLINDEX    SET	DLINDEX + 1
   5641  f50a					      REPEND
   5642  f50a				   TMPMEMADDRESS SET	(((DLINDEX*WMEMSIZE)/WZONECOUNT)+WDLMEMSTART)
   5643  f50b				  -	      ifconst	EXTRADLMEMORY
   5644  f50b				  -	      if	TMPMEMADDRESS > $1FFF
   5645  f50b				  -TMPMEMADDRESS SET	(TMPMEMADDRESS + $300)
   5646  f50b				  -	      else
   5647  f50b				  -	      if	((((DLINDEX+1)*WMEMSIZE)/WZONECOUNT)+WDLMEMSTART) > $1FFF
   5648  f50b				  -TMPMEMADDRESS SET	(TMPMEMADDRESS + $300)
   5649  f50b				  -SECONDDLHALFSTART SET	TMPMEMADDRESS
   5650  f50b				  -	      endif
   5651  f50b				  -	      endif		; TMPMEMADDRESS > $1FFF
   5652  f50b					      endif		; EXTRADLMEMORY
   5653  f50b							;echo " "," ZONE",[DLINDEX]d,"ADDRESS: ",TMPMEMADDRESS
   5654  f50b		       1a		      .byte.b	>TMPMEMADDRESS
   5655  f50b				   DLINDEX    SET	DLINDEX + 1
   5641  f50b					      REPEND
   5642  f50b				   TMPMEMADDRESS SET	(((DLINDEX*WMEMSIZE)/WZONECOUNT)+WDLMEMSTART)
   5643  f50c				  -	      ifconst	EXTRADLMEMORY
   5644  f50c				  -	      if	TMPMEMADDRESS > $1FFF
   5645  f50c				  -TMPMEMADDRESS SET	(TMPMEMADDRESS + $300)
   5646  f50c				  -	      else
   5647  f50c				  -	      if	((((DLINDEX+1)*WMEMSIZE)/WZONECOUNT)+WDLMEMSTART) > $1FFF
   5648  f50c				  -TMPMEMADDRESS SET	(TMPMEMADDRESS + $300)
   5649  f50c				  -SECONDDLHALFSTART SET	TMPMEMADDRESS
   5650  f50c				  -	      endif
   5651  f50c				  -	      endif		; TMPMEMADDRESS > $1FFF
   5652  f50c					      endif		; EXTRADLMEMORY
   5653  f50c							;echo " "," ZONE",[DLINDEX]d,"ADDRESS: ",TMPMEMADDRESS
   5654  f50c		       1b		      .byte.b	>TMPMEMADDRESS
   5655  f50c				   DLINDEX    SET	DLINDEX + 1
   5641  f50c					      REPEND
   5642  f50c				   TMPMEMADDRESS SET	(((DLINDEX*WMEMSIZE)/WZONECOUNT)+WDLMEMSTART)
   5643  f50d				  -	      ifconst	EXTRADLMEMORY
   5644  f50d				  -	      if	TMPMEMADDRESS > $1FFF
   5645  f50d				  -TMPMEMADDRESS SET	(TMPMEMADDRESS + $300)
   5646  f50d				  -	      else
   5647  f50d				  -	      if	((((DLINDEX+1)*WMEMSIZE)/WZONECOUNT)+WDLMEMSTART) > $1FFF
   5648  f50d				  -TMPMEMADDRESS SET	(TMPMEMADDRESS + $300)
   5649  f50d				  -SECONDDLHALFSTART SET	TMPMEMADDRESS
   5650  f50d				  -	      endif
   5651  f50d				  -	      endif		; TMPMEMADDRESS > $1FFF
   5652  f50d					      endif		; EXTRADLMEMORY
   5653  f50d							;echo " "," ZONE",[DLINDEX]d,"ADDRESS: ",TMPMEMADDRESS
   5654  f50d		       1b		      .byte.b	>TMPMEMADDRESS
   5655  f50d				   DLINDEX    SET	DLINDEX + 1
   5641  f50d					      REPEND
   5642  f50d				   TMPMEMADDRESS SET	(((DLINDEX*WMEMSIZE)/WZONECOUNT)+WDLMEMSTART)
   5643  f50e				  -	      ifconst	EXTRADLMEMORY
   5644  f50e				  -	      if	TMPMEMADDRESS > $1FFF
   5645  f50e				  -TMPMEMADDRESS SET	(TMPMEMADDRESS + $300)
   5646  f50e				  -	      else
   5647  f50e				  -	      if	((((DLINDEX+1)*WMEMSIZE)/WZONECOUNT)+WDLMEMSTART) > $1FFF
   5648  f50e				  -TMPMEMADDRESS SET	(TMPMEMADDRESS + $300)
   5649  f50e				  -SECONDDLHALFSTART SET	TMPMEMADDRESS
   5650  f50e				  -	      endif
   5651  f50e				  -	      endif		; TMPMEMADDRESS > $1FFF
   5652  f50e					      endif		; EXTRADLMEMORY
   5653  f50e							;echo " "," ZONE",[DLINDEX]d,"ADDRESS: ",TMPMEMADDRESS
   5654  f50e		       1c		      .byte.b	>TMPMEMADDRESS
   5655  f50e				   DLINDEX    SET	DLINDEX + 1
   5641  f50e					      REPEND
   5642  f50e				   TMPMEMADDRESS SET	(((DLINDEX*WMEMSIZE)/WZONECOUNT)+WDLMEMSTART)
   5643  f50f				  -	      ifconst	EXTRADLMEMORY
   5644  f50f				  -	      if	TMPMEMADDRESS > $1FFF
   5645  f50f				  -TMPMEMADDRESS SET	(TMPMEMADDRESS + $300)
   5646  f50f				  -	      else
   5647  f50f				  -	      if	((((DLINDEX+1)*WMEMSIZE)/WZONECOUNT)+WDLMEMSTART) > $1FFF
   5648  f50f				  -TMPMEMADDRESS SET	(TMPMEMADDRESS + $300)
   5649  f50f				  -SECONDDLHALFSTART SET	TMPMEMADDRESS
   5650  f50f				  -	      endif
   5651  f50f				  -	      endif		; TMPMEMADDRESS > $1FFF
   5652  f50f					      endif		; EXTRADLMEMORY
   5653  f50f							;echo " "," ZONE",[DLINDEX]d,"ADDRESS: ",TMPMEMADDRESS
   5654  f50f		       1c		      .byte.b	>TMPMEMADDRESS
   5655  f50f				   DLINDEX    SET	DLINDEX + 1
   5641  f50f					      REPEND
   5642  f50f				   TMPMEMADDRESS SET	(((DLINDEX*WMEMSIZE)/WZONECOUNT)+WDLMEMSTART)
   5643  f510				  -	      ifconst	EXTRADLMEMORY
   5644  f510				  -	      if	TMPMEMADDRESS > $1FFF
   5645  f510				  -TMPMEMADDRESS SET	(TMPMEMADDRESS + $300)
   5646  f510				  -	      else
   5647  f510				  -	      if	((((DLINDEX+1)*WMEMSIZE)/WZONECOUNT)+WDLMEMSTART) > $1FFF
   5648  f510				  -TMPMEMADDRESS SET	(TMPMEMADDRESS + $300)
   5649  f510				  -SECONDDLHALFSTART SET	TMPMEMADDRESS
   5650  f510				  -	      endif
   5651  f510				  -	      endif		; TMPMEMADDRESS > $1FFF
   5652  f510					      endif		; EXTRADLMEMORY
   5653  f510							;echo " "," ZONE",[DLINDEX]d,"ADDRESS: ",TMPMEMADDRESS
   5654  f510		       1d		      .byte.b	>TMPMEMADDRESS
   5655  f510				   DLINDEX    SET	DLINDEX + 1
   5641  f510					      REPEND
   5642  f510				   TMPMEMADDRESS SET	(((DLINDEX*WMEMSIZE)/WZONECOUNT)+WDLMEMSTART)
   5643  f511				  -	      ifconst	EXTRADLMEMORY
   5644  f511				  -	      if	TMPMEMADDRESS > $1FFF
   5645  f511				  -TMPMEMADDRESS SET	(TMPMEMADDRESS + $300)
   5646  f511				  -	      else
   5647  f511				  -	      if	((((DLINDEX+1)*WMEMSIZE)/WZONECOUNT)+WDLMEMSTART) > $1FFF
   5648  f511				  -TMPMEMADDRESS SET	(TMPMEMADDRESS + $300)
   5649  f511				  -SECONDDLHALFSTART SET	TMPMEMADDRESS
   5650  f511				  -	      endif
   5651  f511				  -	      endif		; TMPMEMADDRESS > $1FFF
   5652  f511					      endif		; EXTRADLMEMORY
   5653  f511							;echo " "," ZONE",[DLINDEX]d,"ADDRESS: ",TMPMEMADDRESS
   5654  f511		       1e		      .byte.b	>TMPMEMADDRESS
   5655  f511				   DLINDEX    SET	DLINDEX + 1
   5641  f511					      REPEND
   5642  f511				   TMPMEMADDRESS SET	(((DLINDEX*WMEMSIZE)/WZONECOUNT)+WDLMEMSTART)
   5643  f512				  -	      ifconst	EXTRADLMEMORY
   5644  f512				  -	      if	TMPMEMADDRESS > $1FFF
   5645  f512				  -TMPMEMADDRESS SET	(TMPMEMADDRESS + $300)
   5646  f512				  -	      else
   5647  f512				  -	      if	((((DLINDEX+1)*WMEMSIZE)/WZONECOUNT)+WDLMEMSTART) > $1FFF
   5648  f512				  -TMPMEMADDRESS SET	(TMPMEMADDRESS + $300)
   5649  f512				  -SECONDDLHALFSTART SET	TMPMEMADDRESS
   5650  f512				  -	      endif
   5651  f512				  -	      endif		; TMPMEMADDRESS > $1FFF
   5652  f512					      endif		; EXTRADLMEMORY
   5653  f512							;echo " "," ZONE",[DLINDEX]d,"ADDRESS: ",TMPMEMADDRESS
   5654  f512		       1e		      .byte.b	>TMPMEMADDRESS
   5655  f512				   DLINDEX    SET	DLINDEX + 1
   5641  f512					      REPEND
   5642  f512				   TMPMEMADDRESS SET	(((DLINDEX*WMEMSIZE)/WZONECOUNT)+WDLMEMSTART)
   5643  f513				  -	      ifconst	EXTRADLMEMORY
   5644  f513				  -	      if	TMPMEMADDRESS > $1FFF
   5645  f513				  -TMPMEMADDRESS SET	(TMPMEMADDRESS + $300)
   5646  f513				  -	      else
   5647  f513				  -	      if	((((DLINDEX+1)*WMEMSIZE)/WZONECOUNT)+WDLMEMSTART) > $1FFF
   5648  f513				  -TMPMEMADDRESS SET	(TMPMEMADDRESS + $300)
   5649  f513				  -SECONDDLHALFSTART SET	TMPMEMADDRESS
   5650  f513				  -	      endif
   5651  f513				  -	      endif		; TMPMEMADDRESS > $1FFF
   5652  f513					      endif		; EXTRADLMEMORY
   5653  f513							;echo " "," ZONE",[DLINDEX]d,"ADDRESS: ",TMPMEMADDRESS
   5654  f513		       1f		      .byte.b	>TMPMEMADDRESS
   5655  f513				   DLINDEX    SET	DLINDEX + 1
   5656  f514					      REPEND
   5657  f514
   5658  f514				  -	      ifconst	EXTRADLMEMORY
   5659  f514				  -	      echo	"   ",[SECONDDLHALFSTART],"to",[$27FF],"was claimed as extra DL memory."
   5660  f514					      endif
   5661  f514
   5662  f514
   5663  f514				   DLPOINTL
   5664  f514				   DLINDEX    SET	0
   5665  f514					      REPEAT	WZONECOUNT
   5666  f514				   TMPMEMADDRESS SET	(((DLINDEX*WMEMSIZE)/WZONECOUNT)+WDLMEMSTART)
   5667  f514				  -	      ifconst	EXTRADLMEMORY
   5668  f514				  -	      if	TMPMEMADDRESS > $1FFF
   5669  f514				  -TMPMEMADDRESS SET	(TMPMEMADDRESS + $300)
   5670  f514				  -	      else
   5671  f514				  -	      if	((((DLINDEX+1)*WMEMSIZE)/WZONECOUNT)+WDLMEMSTART) > $1FFF
   5672  f514				  -TMPMEMADDRESS SET	(TMPMEMADDRESS + $300)
   5673  f514				  -	      endif
   5674  f514				  -	      endif		; TMPMEMADDRESS > $1FFF
   5675  f514					      endif		; EXTRADLMEMORY
   5676  f514		       80		      .byte.b	<TMPMEMADDRESS
   5677  f514				   DLINDEX    SET	DLINDEX + 1
   5665  f514					      REPEND
   5666  f514				   TMPMEMADDRESS SET	(((DLINDEX*WMEMSIZE)/WZONECOUNT)+WDLMEMSTART)
   5667  f515				  -	      ifconst	EXTRADLMEMORY
   5668  f515				  -	      if	TMPMEMADDRESS > $1FFF
   5669  f515				  -TMPMEMADDRESS SET	(TMPMEMADDRESS + $300)
   5670  f515				  -	      else
   5671  f515				  -	      if	((((DLINDEX+1)*WMEMSIZE)/WZONECOUNT)+WDLMEMSTART) > $1FFF
   5672  f515				  -TMPMEMADDRESS SET	(TMPMEMADDRESS + $300)
   5673  f515				  -	      endif
   5674  f515				  -	      endif		; TMPMEMADDRESS > $1FFF
   5675  f515					      endif		; EXTRADLMEMORY
   5676  f515		       20		      .byte.b	<TMPMEMADDRESS
   5677  f515				   DLINDEX    SET	DLINDEX + 1
   5665  f515					      REPEND
   5666  f515				   TMPMEMADDRESS SET	(((DLINDEX*WMEMSIZE)/WZONECOUNT)+WDLMEMSTART)
   5667  f516				  -	      ifconst	EXTRADLMEMORY
   5668  f516				  -	      if	TMPMEMADDRESS > $1FFF
   5669  f516				  -TMPMEMADDRESS SET	(TMPMEMADDRESS + $300)
   5670  f516				  -	      else
   5671  f516				  -	      if	((((DLINDEX+1)*WMEMSIZE)/WZONECOUNT)+WDLMEMSTART) > $1FFF
   5672  f516				  -TMPMEMADDRESS SET	(TMPMEMADDRESS + $300)
   5673  f516				  -	      endif
   5674  f516				  -	      endif		; TMPMEMADDRESS > $1FFF
   5675  f516					      endif		; EXTRADLMEMORY
   5676  f516		       c0		      .byte.b	<TMPMEMADDRESS
   5677  f516				   DLINDEX    SET	DLINDEX + 1
   5665  f516					      REPEND
   5666  f516				   TMPMEMADDRESS SET	(((DLINDEX*WMEMSIZE)/WZONECOUNT)+WDLMEMSTART)
   5667  f517				  -	      ifconst	EXTRADLMEMORY
   5668  f517				  -	      if	TMPMEMADDRESS > $1FFF
   5669  f517				  -TMPMEMADDRESS SET	(TMPMEMADDRESS + $300)
   5670  f517				  -	      else
   5671  f517				  -	      if	((((DLINDEX+1)*WMEMSIZE)/WZONECOUNT)+WDLMEMSTART) > $1FFF
   5672  f517				  -TMPMEMADDRESS SET	(TMPMEMADDRESS + $300)
   5673  f517				  -	      endif
   5674  f517				  -	      endif		; TMPMEMADDRESS > $1FFF
   5675  f517					      endif		; EXTRADLMEMORY
   5676  f517		       60		      .byte.b	<TMPMEMADDRESS
   5677  f517				   DLINDEX    SET	DLINDEX + 1
   5665  f517					      REPEND
   5666  f517				   TMPMEMADDRESS SET	(((DLINDEX*WMEMSIZE)/WZONECOUNT)+WDLMEMSTART)
   5667  f518				  -	      ifconst	EXTRADLMEMORY
   5668  f518				  -	      if	TMPMEMADDRESS > $1FFF
   5669  f518				  -TMPMEMADDRESS SET	(TMPMEMADDRESS + $300)
   5670  f518				  -	      else
   5671  f518				  -	      if	((((DLINDEX+1)*WMEMSIZE)/WZONECOUNT)+WDLMEMSTART) > $1FFF
   5672  f518				  -TMPMEMADDRESS SET	(TMPMEMADDRESS + $300)
   5673  f518				  -	      endif
   5674  f518				  -	      endif		; TMPMEMADDRESS > $1FFF
   5675  f518					      endif		; EXTRADLMEMORY
   5676  f518		       00		      .byte.b	<TMPMEMADDRESS
   5677  f518				   DLINDEX    SET	DLINDEX + 1
   5665  f518					      REPEND
   5666  f518				   TMPMEMADDRESS SET	(((DLINDEX*WMEMSIZE)/WZONECOUNT)+WDLMEMSTART)
   5667  f519				  -	      ifconst	EXTRADLMEMORY
   5668  f519				  -	      if	TMPMEMADDRESS > $1FFF
   5669  f519				  -TMPMEMADDRESS SET	(TMPMEMADDRESS + $300)
   5670  f519				  -	      else
   5671  f519				  -	      if	((((DLINDEX+1)*WMEMSIZE)/WZONECOUNT)+WDLMEMSTART) > $1FFF
   5672  f519				  -TMPMEMADDRESS SET	(TMPMEMADDRESS + $300)
   5673  f519				  -	      endif
   5674  f519				  -	      endif		; TMPMEMADDRESS > $1FFF
   5675  f519					      endif		; EXTRADLMEMORY
   5676  f519		       a0		      .byte.b	<TMPMEMADDRESS
   5677  f519				   DLINDEX    SET	DLINDEX + 1
   5665  f519					      REPEND
   5666  f519				   TMPMEMADDRESS SET	(((DLINDEX*WMEMSIZE)/WZONECOUNT)+WDLMEMSTART)
   5667  f51a				  -	      ifconst	EXTRADLMEMORY
   5668  f51a				  -	      if	TMPMEMADDRESS > $1FFF
   5669  f51a				  -TMPMEMADDRESS SET	(TMPMEMADDRESS + $300)
   5670  f51a				  -	      else
   5671  f51a				  -	      if	((((DLINDEX+1)*WMEMSIZE)/WZONECOUNT)+WDLMEMSTART) > $1FFF
   5672  f51a				  -TMPMEMADDRESS SET	(TMPMEMADDRESS + $300)
   5673  f51a				  -	      endif
   5674  f51a				  -	      endif		; TMPMEMADDRESS > $1FFF
   5675  f51a					      endif		; EXTRADLMEMORY
   5676  f51a		       40		      .byte.b	<TMPMEMADDRESS
   5677  f51a				   DLINDEX    SET	DLINDEX + 1
   5665  f51a					      REPEND
   5666  f51a				   TMPMEMADDRESS SET	(((DLINDEX*WMEMSIZE)/WZONECOUNT)+WDLMEMSTART)
   5667  f51b				  -	      ifconst	EXTRADLMEMORY
   5668  f51b				  -	      if	TMPMEMADDRESS > $1FFF
   5669  f51b				  -TMPMEMADDRESS SET	(TMPMEMADDRESS + $300)
   5670  f51b				  -	      else
   5671  f51b				  -	      if	((((DLINDEX+1)*WMEMSIZE)/WZONECOUNT)+WDLMEMSTART) > $1FFF
   5672  f51b				  -TMPMEMADDRESS SET	(TMPMEMADDRESS + $300)
   5673  f51b				  -	      endif
   5674  f51b				  -	      endif		; TMPMEMADDRESS > $1FFF
   5675  f51b					      endif		; EXTRADLMEMORY
   5676  f51b		       e0		      .byte.b	<TMPMEMADDRESS
   5677  f51b				   DLINDEX    SET	DLINDEX + 1
   5665  f51b					      REPEND
   5666  f51b				   TMPMEMADDRESS SET	(((DLINDEX*WMEMSIZE)/WZONECOUNT)+WDLMEMSTART)
   5667  f51c				  -	      ifconst	EXTRADLMEMORY
   5668  f51c				  -	      if	TMPMEMADDRESS > $1FFF
   5669  f51c				  -TMPMEMADDRESS SET	(TMPMEMADDRESS + $300)
   5670  f51c				  -	      else
   5671  f51c				  -	      if	((((DLINDEX+1)*WMEMSIZE)/WZONECOUNT)+WDLMEMSTART) > $1FFF
   5672  f51c				  -TMPMEMADDRESS SET	(TMPMEMADDRESS + $300)
   5673  f51c				  -	      endif
   5674  f51c				  -	      endif		; TMPMEMADDRESS > $1FFF
   5675  f51c					      endif		; EXTRADLMEMORY
   5676  f51c		       80		      .byte.b	<TMPMEMADDRESS
   5677  f51c				   DLINDEX    SET	DLINDEX + 1
   5665  f51c					      REPEND
   5666  f51c				   TMPMEMADDRESS SET	(((DLINDEX*WMEMSIZE)/WZONECOUNT)+WDLMEMSTART)
   5667  f51d				  -	      ifconst	EXTRADLMEMORY
   5668  f51d				  -	      if	TMPMEMADDRESS > $1FFF
   5669  f51d				  -TMPMEMADDRESS SET	(TMPMEMADDRESS + $300)
   5670  f51d				  -	      else
   5671  f51d				  -	      if	((((DLINDEX+1)*WMEMSIZE)/WZONECOUNT)+WDLMEMSTART) > $1FFF
   5672  f51d				  -TMPMEMADDRESS SET	(TMPMEMADDRESS + $300)
   5673  f51d				  -	      endif
   5674  f51d				  -	      endif		; TMPMEMADDRESS > $1FFF
   5675  f51d					      endif		; EXTRADLMEMORY
   5676  f51d		       20		      .byte.b	<TMPMEMADDRESS
   5677  f51d				   DLINDEX    SET	DLINDEX + 1
   5665  f51d					      REPEND
   5666  f51d				   TMPMEMADDRESS SET	(((DLINDEX*WMEMSIZE)/WZONECOUNT)+WDLMEMSTART)
   5667  f51e				  -	      ifconst	EXTRADLMEMORY
   5668  f51e				  -	      if	TMPMEMADDRESS > $1FFF
   5669  f51e				  -TMPMEMADDRESS SET	(TMPMEMADDRESS + $300)
   5670  f51e				  -	      else
   5671  f51e				  -	      if	((((DLINDEX+1)*WMEMSIZE)/WZONECOUNT)+WDLMEMSTART) > $1FFF
   5672  f51e				  -TMPMEMADDRESS SET	(TMPMEMADDRESS + $300)
   5673  f51e				  -	      endif
   5674  f51e				  -	      endif		; TMPMEMADDRESS > $1FFF
   5675  f51e					      endif		; EXTRADLMEMORY
   5676  f51e		       c0		      .byte.b	<TMPMEMADDRESS
   5677  f51e				   DLINDEX    SET	DLINDEX + 1
   5665  f51e					      REPEND
   5666  f51e				   TMPMEMADDRESS SET	(((DLINDEX*WMEMSIZE)/WZONECOUNT)+WDLMEMSTART)
   5667  f51f				  -	      ifconst	EXTRADLMEMORY
   5668  f51f				  -	      if	TMPMEMADDRESS > $1FFF
   5669  f51f				  -TMPMEMADDRESS SET	(TMPMEMADDRESS + $300)
   5670  f51f				  -	      else
   5671  f51f				  -	      if	((((DLINDEX+1)*WMEMSIZE)/WZONECOUNT)+WDLMEMSTART) > $1FFF
   5672  f51f				  -TMPMEMADDRESS SET	(TMPMEMADDRESS + $300)
   5673  f51f				  -	      endif
   5674  f51f				  -	      endif		; TMPMEMADDRESS > $1FFF
   5675  f51f					      endif		; EXTRADLMEMORY
   5676  f51f		       60		      .byte.b	<TMPMEMADDRESS
   5677  f51f				   DLINDEX    SET	DLINDEX + 1
   5678  f520					      REPEND
   5679  f520
   5680  f520
   5681  f520				   DLINDEX    SET	0
   5682  f520					      REPEAT	WZONECOUNT
   5683  f520				   TMPMEMADDRESS SET	(((DLINDEX*WMEMSIZE)/WZONECOUNT)+WDLMEMSTART)
   5684  f520				  -	      ifconst	EXTRADLMEMORY
   5685  f520				  -	      if	TMPMEMADDRESS > $1FFF
   5686  f520				  -TMPMEMADDRESS SET	(TMPMEMADDRESS + $300)
   5687  f520				  -	      else
   5688  f520				  -	      if	((((DLINDEX+1)*WMEMSIZE)/WZONECOUNT)+WDLMEMSTART) > $1FFF
   5689  f520				  -TMPMEMADDRESS SET	(TMPMEMADDRESS + $300)
   5690  f520				  -	      endif
   5691  f520				  -	      endif		; TMPMEMADDRESS > $1FFF
   5692  f520					      endif		; EXTRADLMEMORY
   5693  f520
   5694  f520		       18 80	   ZONE0ADDRESS =	TMPMEMADDRESS
   5695  f520				   LASTZONEADDRESS SET	TMPMEMADDRESS
   5696  f520
   5697  f520				   DLINDEX    SET	DLINDEX + 1
   5682  f520					      REPEND
   5683  f520				   TMPMEMADDRESS SET	(((DLINDEX*WMEMSIZE)/WZONECOUNT)+WDLMEMSTART)
   5684  f520				  -	      ifconst	EXTRADLMEMORY
   5685  f520				  -	      if	TMPMEMADDRESS > $1FFF
   5686  f520				  -TMPMEMADDRESS SET	(TMPMEMADDRESS + $300)
   5687  f520				  -	      else
   5688  f520				  -	      if	((((DLINDEX+1)*WMEMSIZE)/WZONECOUNT)+WDLMEMSTART) > $1FFF
   5689  f520				  -TMPMEMADDRESS SET	(TMPMEMADDRESS + $300)
   5690  f520				  -	      endif
   5691  f520				  -	      endif		; TMPMEMADDRESS > $1FFF
   5692  f520					      endif		; EXTRADLMEMORY
   5693  f520
   5694  f520		       19 20	   ZONE1ADDRESS =	TMPMEMADDRESS
   5695  f520				   LASTZONEADDRESS SET	TMPMEMADDRESS
   5696  f520
   5697  f520				   DLINDEX    SET	DLINDEX + 1
   5682  f520					      REPEND
   5683  f520				   TMPMEMADDRESS SET	(((DLINDEX*WMEMSIZE)/WZONECOUNT)+WDLMEMSTART)
   5684  f520				  -	      ifconst	EXTRADLMEMORY
   5685  f520				  -	      if	TMPMEMADDRESS > $1FFF
   5686  f520				  -TMPMEMADDRESS SET	(TMPMEMADDRESS + $300)
   5687  f520				  -	      else
   5688  f520				  -	      if	((((DLINDEX+1)*WMEMSIZE)/WZONECOUNT)+WDLMEMSTART) > $1FFF
   5689  f520				  -TMPMEMADDRESS SET	(TMPMEMADDRESS + $300)
   5690  f520				  -	      endif
   5691  f520				  -	      endif		; TMPMEMADDRESS > $1FFF
   5692  f520					      endif		; EXTRADLMEMORY
   5693  f520
   5694  f520		       19 c0	   ZONE2ADDRESS =	TMPMEMADDRESS
   5695  f520				   LASTZONEADDRESS SET	TMPMEMADDRESS
   5696  f520
   5697  f520				   DLINDEX    SET	DLINDEX + 1
   5682  f520					      REPEND
   5683  f520				   TMPMEMADDRESS SET	(((DLINDEX*WMEMSIZE)/WZONECOUNT)+WDLMEMSTART)
   5684  f520				  -	      ifconst	EXTRADLMEMORY
   5685  f520				  -	      if	TMPMEMADDRESS > $1FFF
   5686  f520				  -TMPMEMADDRESS SET	(TMPMEMADDRESS + $300)
   5687  f520				  -	      else
   5688  f520				  -	      if	((((DLINDEX+1)*WMEMSIZE)/WZONECOUNT)+WDLMEMSTART) > $1FFF
   5689  f520				  -TMPMEMADDRESS SET	(TMPMEMADDRESS + $300)
   5690  f520				  -	      endif
   5691  f520				  -	      endif		; TMPMEMADDRESS > $1FFF
   5692  f520					      endif		; EXTRADLMEMORY
   5693  f520
   5694  f520		       1a 60	   ZONE3ADDRESS =	TMPMEMADDRESS
   5695  f520				   LASTZONEADDRESS SET	TMPMEMADDRESS
   5696  f520
   5697  f520				   DLINDEX    SET	DLINDEX + 1
   5682  f520					      REPEND
   5683  f520				   TMPMEMADDRESS SET	(((DLINDEX*WMEMSIZE)/WZONECOUNT)+WDLMEMSTART)
   5684  f520				  -	      ifconst	EXTRADLMEMORY
   5685  f520				  -	      if	TMPMEMADDRESS > $1FFF
   5686  f520				  -TMPMEMADDRESS SET	(TMPMEMADDRESS + $300)
   5687  f520				  -	      else
   5688  f520				  -	      if	((((DLINDEX+1)*WMEMSIZE)/WZONECOUNT)+WDLMEMSTART) > $1FFF
   5689  f520				  -TMPMEMADDRESS SET	(TMPMEMADDRESS + $300)
   5690  f520				  -	      endif
   5691  f520				  -	      endif		; TMPMEMADDRESS > $1FFF
   5692  f520					      endif		; EXTRADLMEMORY
   5693  f520
   5694  f520		       1b 00	   ZONE4ADDRESS =	TMPMEMADDRESS
   5695  f520				   LASTZONEADDRESS SET	TMPMEMADDRESS
   5696  f520
   5697  f520				   DLINDEX    SET	DLINDEX + 1
   5682  f520					      REPEND
   5683  f520				   TMPMEMADDRESS SET	(((DLINDEX*WMEMSIZE)/WZONECOUNT)+WDLMEMSTART)
   5684  f520				  -	      ifconst	EXTRADLMEMORY
   5685  f520				  -	      if	TMPMEMADDRESS > $1FFF
   5686  f520				  -TMPMEMADDRESS SET	(TMPMEMADDRESS + $300)
   5687  f520				  -	      else
   5688  f520				  -	      if	((((DLINDEX+1)*WMEMSIZE)/WZONECOUNT)+WDLMEMSTART) > $1FFF
   5689  f520				  -TMPMEMADDRESS SET	(TMPMEMADDRESS + $300)
   5690  f520				  -	      endif
   5691  f520				  -	      endif		; TMPMEMADDRESS > $1FFF
   5692  f520					      endif		; EXTRADLMEMORY
   5693  f520
   5694  f520		       1b a0	   ZONE5ADDRESS =	TMPMEMADDRESS
   5695  f520				   LASTZONEADDRESS SET	TMPMEMADDRESS
   5696  f520
   5697  f520				   DLINDEX    SET	DLINDEX + 1
   5682  f520					      REPEND
   5683  f520				   TMPMEMADDRESS SET	(((DLINDEX*WMEMSIZE)/WZONECOUNT)+WDLMEMSTART)
   5684  f520				  -	      ifconst	EXTRADLMEMORY
   5685  f520				  -	      if	TMPMEMADDRESS > $1FFF
   5686  f520				  -TMPMEMADDRESS SET	(TMPMEMADDRESS + $300)
   5687  f520				  -	      else
   5688  f520				  -	      if	((((DLINDEX+1)*WMEMSIZE)/WZONECOUNT)+WDLMEMSTART) > $1FFF
   5689  f520				  -TMPMEMADDRESS SET	(TMPMEMADDRESS + $300)
   5690  f520				  -	      endif
   5691  f520				  -	      endif		; TMPMEMADDRESS > $1FFF
   5692  f520					      endif		; EXTRADLMEMORY
   5693  f520
   5694  f520		       1c 40	   ZONE6ADDRESS =	TMPMEMADDRESS
   5695  f520				   LASTZONEADDRESS SET	TMPMEMADDRESS
   5696  f520
   5697  f520				   DLINDEX    SET	DLINDEX + 1
   5682  f520					      REPEND
   5683  f520				   TMPMEMADDRESS SET	(((DLINDEX*WMEMSIZE)/WZONECOUNT)+WDLMEMSTART)
   5684  f520				  -	      ifconst	EXTRADLMEMORY
   5685  f520				  -	      if	TMPMEMADDRESS > $1FFF
   5686  f520				  -TMPMEMADDRESS SET	(TMPMEMADDRESS + $300)
   5687  f520				  -	      else
   5688  f520				  -	      if	((((DLINDEX+1)*WMEMSIZE)/WZONECOUNT)+WDLMEMSTART) > $1FFF
   5689  f520				  -TMPMEMADDRESS SET	(TMPMEMADDRESS + $300)
   5690  f520				  -	      endif
   5691  f520				  -	      endif		; TMPMEMADDRESS > $1FFF
   5692  f520					      endif		; EXTRADLMEMORY
   5693  f520
   5694  f520		       1c e0	   ZONE7ADDRESS =	TMPMEMADDRESS
   5695  f520				   LASTZONEADDRESS SET	TMPMEMADDRESS
   5696  f520
   5697  f520				   DLINDEX    SET	DLINDEX + 1
   5682  f520					      REPEND
   5683  f520				   TMPMEMADDRESS SET	(((DLINDEX*WMEMSIZE)/WZONECOUNT)+WDLMEMSTART)
   5684  f520				  -	      ifconst	EXTRADLMEMORY
   5685  f520				  -	      if	TMPMEMADDRESS > $1FFF
   5686  f520				  -TMPMEMADDRESS SET	(TMPMEMADDRESS + $300)
   5687  f520				  -	      else
   5688  f520				  -	      if	((((DLINDEX+1)*WMEMSIZE)/WZONECOUNT)+WDLMEMSTART) > $1FFF
   5689  f520				  -TMPMEMADDRESS SET	(TMPMEMADDRESS + $300)
   5690  f520				  -	      endif
   5691  f520				  -	      endif		; TMPMEMADDRESS > $1FFF
   5692  f520					      endif		; EXTRADLMEMORY
   5693  f520
   5694  f520		       1d 80	   ZONE8ADDRESS =	TMPMEMADDRESS
   5695  f520				   LASTZONEADDRESS SET	TMPMEMADDRESS
   5696  f520
   5697  f520				   DLINDEX    SET	DLINDEX + 1
   5682  f520					      REPEND
   5683  f520				   TMPMEMADDRESS SET	(((DLINDEX*WMEMSIZE)/WZONECOUNT)+WDLMEMSTART)
   5684  f520				  -	      ifconst	EXTRADLMEMORY
   5685  f520				  -	      if	TMPMEMADDRESS > $1FFF
   5686  f520				  -TMPMEMADDRESS SET	(TMPMEMADDRESS + $300)
   5687  f520				  -	      else
   5688  f520				  -	      if	((((DLINDEX+1)*WMEMSIZE)/WZONECOUNT)+WDLMEMSTART) > $1FFF
   5689  f520				  -TMPMEMADDRESS SET	(TMPMEMADDRESS + $300)
   5690  f520				  -	      endif
   5691  f520				  -	      endif		; TMPMEMADDRESS > $1FFF
   5692  f520					      endif		; EXTRADLMEMORY
   5693  f520
   5694  f520		       1e 20	   ZONE9ADDRESS =	TMPMEMADDRESS
   5695  f520				   LASTZONEADDRESS SET	TMPMEMADDRESS
   5696  f520
   5697  f520				   DLINDEX    SET	DLINDEX + 1
   5682  f520					      REPEND
   5683  f520				   TMPMEMADDRESS SET	(((DLINDEX*WMEMSIZE)/WZONECOUNT)+WDLMEMSTART)
   5684  f520				  -	      ifconst	EXTRADLMEMORY
   5685  f520				  -	      if	TMPMEMADDRESS > $1FFF
   5686  f520				  -TMPMEMADDRESS SET	(TMPMEMADDRESS + $300)
   5687  f520				  -	      else
   5688  f520				  -	      if	((((DLINDEX+1)*WMEMSIZE)/WZONECOUNT)+WDLMEMSTART) > $1FFF
   5689  f520				  -TMPMEMADDRESS SET	(TMPMEMADDRESS + $300)
   5690  f520				  -	      endif
   5691  f520				  -	      endif		; TMPMEMADDRESS > $1FFF
   5692  f520					      endif		; EXTRADLMEMORY
   5693  f520
   5694  f520		       1e c0	   ZONE10ADDRESS =	TMPMEMADDRESS
   5695  f520				   LASTZONEADDRESS SET	TMPMEMADDRESS
   5696  f520
   5697  f520				   DLINDEX    SET	DLINDEX + 1
   5682  f520					      REPEND
   5683  f520				   TMPMEMADDRESS SET	(((DLINDEX*WMEMSIZE)/WZONECOUNT)+WDLMEMSTART)
   5684  f520				  -	      ifconst	EXTRADLMEMORY
   5685  f520				  -	      if	TMPMEMADDRESS > $1FFF
   5686  f520				  -TMPMEMADDRESS SET	(TMPMEMADDRESS + $300)
   5687  f520				  -	      else
   5688  f520				  -	      if	((((DLINDEX+1)*WMEMSIZE)/WZONECOUNT)+WDLMEMSTART) > $1FFF
   5689  f520				  -TMPMEMADDRESS SET	(TMPMEMADDRESS + $300)
   5690  f520				  -	      endif
   5691  f520				  -	      endif		; TMPMEMADDRESS > $1FFF
   5692  f520					      endif		; EXTRADLMEMORY
   5693  f520
   5694  f520		       1f 60	   ZONE11ADDRESS =	TMPMEMADDRESS
   5695  f520				   LASTZONEADDRESS SET	TMPMEMADDRESS
   5696  f520
   5697  f520				   DLINDEX    SET	DLINDEX + 1
   5698  f520					      REPEND
   5699  f520
   5700  f520
     $1880 to $1fff used as zone memory, allowing 31 display objects per zone.
   5701  f520					      echo	"   ",[WDLMEMSTART],"to",[WDLMEMEND],"used as zone memory, allowing",[(DLLASTOBJ/5)]d,"display objects per zone."
   5702  f520
   5703  f520				   DLHEIGHT
   5704  f520					      REPEAT	WZONECOUNT
   5705  f520		       0f		      .byte.b	(WZONEHEIGHT-1)
   5704  f520					      REPEND
   5705  f521		       0f		      .byte.b	(WZONEHEIGHT-1)
   5704  f521					      REPEND
   5705  f522		       0f		      .byte.b	(WZONEHEIGHT-1)
   5704  f522					      REPEND
   5705  f523		       0f		      .byte.b	(WZONEHEIGHT-1)
   5704  f523					      REPEND
   5705  f524		       0f		      .byte.b	(WZONEHEIGHT-1)
   5704  f524					      REPEND
   5705  f525		       0f		      .byte.b	(WZONEHEIGHT-1)
   5704  f525					      REPEND
   5705  f526		       0f		      .byte.b	(WZONEHEIGHT-1)
   5704  f526					      REPEND
   5705  f527		       0f		      .byte.b	(WZONEHEIGHT-1)
   5704  f527					      REPEND
   5705  f528		       0f		      .byte.b	(WZONEHEIGHT-1)
   5704  f528					      REPEND
   5705  f529		       0f		      .byte.b	(WZONEHEIGHT-1)
   5704  f529					      REPEND
   5705  f52a		       0f		      .byte.b	(WZONEHEIGHT-1)
   5704  f52a					      REPEND
   5705  f52b		       0f		      .byte.b	(WZONEHEIGHT-1)
   5706  f52c					      REPEND
   5707  f52c
   5708  f52c							; Provided under the CC0 license. See the included LICENSE.txt for details.
   5709  f52c
   5710  f52c							; a simple guard, than ensures the 7800basic code hasn't
   5711  f52c							; spilled into the encryption area...
     2642 bytes left in the 7800basic reserved area.
   5712  f52c					      echo	"   ",($FF7E-*)d,"bytes left in the 7800basic reserved area."
   5713  f52c				  -	      if	(*>$FF7D)
   5714  f52c				  -	      echo
   5715  f52c				  -	      echo	"***************************"
   5716  f52c				  -	      echo	"*** Abort: ROM Overflow ***"
   5717  f52c				  -	      echo	"***************************"
   5718  f52c				  -	      ERR		; abort the assembly
   5719  f52c					      endif
   5720  f52c
   5721  f52c							; throw a compile
   5722  f52c				  -	      ifconst	RMT
   5723  f52c				  -	      ifnconst	pokeysupport
   5724  f52c				  -	      echo
   5725  f52c				  -	      echo	"************************************************************"
   5726  f52c				  -	      echo	"*** ABORT: RMT Tracker requires 'set pokeysupport $xxxx' ***"
   5727  f52c				  -	      echo	"************************************************************"
   5728  f52c				  -	      ERR		; abort
   5729  f52c				  -	      endif		; pokeysupport
   5730  f52c				  -	      ifnconst	pokeyaddress
   5731  f52c				  -	      echo
   5732  f52c				  -	      echo	"************************************************************"
   5733  f52c				  -	      echo	"*** ABORT: RMT Tracker requires 'set pokeysupport $xxxx' ***"
   5734  f52c				  -	      echo	"************************************************************"
   5735  f52c				  -	      ERR		; abort
   5736  f52c				  -	      endif		; pokeyaddress
   5737  f52c					      endif
   5738  f52c
   5739  f52c							; Provided under the CC0 license. See the included LICENSE.txt for details.
   5740  f52c
   5741  f52c				  -	      ifconst	DEV
   5742  f52c				  -	      ifnconst	ZONEHEIGHT
   5743  f52c				  -	      echo	"* the 4k 7800basic area has",[($FF7E - *)]d,"bytes free."
   5744  f52c				  -	      else
   5745  f52c				  -	      if	ZONEHEIGHT = 8
   5746  f52c				  -	      echo	"* the 4k 7800basic area has",[($FF7E - *)]d,"bytes free."
   5747  f52c				  -	      else
   5748  f52c				  -	      echo	"* the 4k 7800basic area has",[($FF7E - *)]d,"bytes free."
   5749  f52c				  -	      endif
   5750  f52c				  -	      endif
   5751  f52c					      endif
   5752  f52c
   5753  f52c				  -	      if	START_OF_ROM = .
   5754  f52c				  -	      .byte	0
   5755  f52c					      endif
   5756  f52c				   START_OF_ROM SET	0
   5757  f52c
   5758  f52c							; FF7E/FF7F contains the 7800basic crc checksum word
   5759  f52c
   5760  f52c							; FF80 - FFF7 contains the 7800 encryption key
   5761  f52c
   5762  f52c					      ifnconst	bankswitchmode
   5763  fff8					      ORG	$FFF8
   5764  fff8				  -	      else
   5765  fff8				  -	      ifconst	ROM128K
   5766  fff8				  -	      ORG	$27FF8
   5767  fff8				  -	      RORG	$FFF8
   5768  fff8				  -	      endif
   5769  fff8				  -	      ifconst	ROM144K
   5770  fff8				  -	      ORG	$27FF8
   5771  fff8				  -	      RORG	$FFF8
   5772  fff8				  -	      endif
   5773  fff8				  -	      ifconst	ROM256K
   5774  fff8				  -	      ORG	$47FF8
   5775  fff8				  -	      RORG	$FFF8
   5776  fff8				  -	      endif
   5777  fff8				  -	      ifconst	ROM272K
   5778  fff8				  -	      ORG	$47FF8
   5779  fff8				  -	      RORG	$FFF8
   5780  fff8				  -	      endif
   5781  fff8				  -	      ifconst	ROM512K
   5782  fff8				  -	      ORG	$87FF8
   5783  fff8				  -	      RORG	$FFF8
   5784  fff8				  -	      endif
   5785  fff8				  -	      ifconst	ROM528K
   5786  fff8				  -	      ORG	$87FF8
   5787  fff8				  -	      RORG	$FFF8
   5788  fff8				  -	      endif
   5789  fff8					      endif
   5790  fff8
   5791  fff8
   5792  fff8		       ff		      .byte.b	$FF	; region verification. $FF=all regions
   5793  fff9		       f7		      .byte.b	$F7	; high nibble:  encryption check from $N000 to $FF7F. we only hash the last 4k for faster boot.
   5794  fffa							; low nibble :  N=7 atari rainbow start, N=3 no atari rainbow
   5795  fffa
   5796  fffa							;Vectors
   5797  fffa		       00 f0		      .word.w	NMI
   5798  fffc		       8a f4		      .word.w	START
   5799  fffe		       5f f0		      .word.w	IRQ
   5800  10000
